
dwarf_test_aarch64_elf:     file format elf64-little

Contents of the .eh_frame section:


00000000 00000014 00000000 CIE
  Version:               1
  Augmentation:          "zR"
  Code alignment factor: 1
  Data alignment factor: -4
  Return address column: 30
  Augmentation data:     1b
  DW_CFA_def_cfa: r31 ofs 0
  DW_CFA_nop
  DW_CFA_nop
  DW_CFA_nop
  DW_CFA_nop

00000018 00000024 0000001c FDE cie=00000000 pc=0006f65c..0006f82c
  DW_CFA_advance_loc: 4 to 0006f660
  DW_CFA_def_cfa_offset: 16
  DW_CFA_offset: r29 at cfa-16
  DW_CFA_advance_loc: 4 to 0006f664
  DW_CFA_def_cfa_offset: 576
  DW_CFA_advance_loc2: 448 to 0006f824
  DW_CFA_def_cfa_offset: 16
  DW_CFA_advance_loc: 4 to 0006f828
  DW_CFA_def_cfa_offset: 0
  DW_CFA_restore: r29
  DW_CFA_nop
  DW_CFA_nop
  DW_CFA_nop
  DW_CFA_nop
  DW_CFA_nop

00000040 00000014 00000044 FDE cie=00000000 pc=0006f82c..0006f874
  DW_CFA_nop
  DW_CFA_nop
  DW_CFA_nop
  DW_CFA_nop
  DW_CFA_nop
  DW_CFA_nop
  DW_CFA_nop

00000058 00000044 0000005c FDE cie=00000000 pc=0006f874..0006fb20
  DW_CFA_advance_loc: 4 to 0006f878
  DW_CFA_def_cfa_offset: 96
  DW_CFA_advance_loc: 24 to 0006f890
  DW_CFA_def_cfa: r29 ofs 96
  DW_CFA_offset: r19 at cfa-8
  DW_CFA_offset: r20 at cfa-16
  DW_CFA_offset: r21 at cfa-24
  DW_CFA_offset: r22 at cfa-32
  DW_CFA_offset: r23 at cfa-40
  DW_CFA_offset: r24 at cfa-48
  DW_CFA_offset: r25 at cfa-56
  DW_CFA_offset: r26 at cfa-64
  DW_CFA_offset: r27 at cfa-72
  DW_CFA_offset: r28 at cfa-80
  DW_CFA_offset: r30 at cfa-88
  DW_CFA_offset: r29 at cfa-96
  DW_CFA_advance_loc2: 628 to 0006fb04
  DW_CFA_def_cfa: r31 ofs 96
  DW_CFA_advance_loc: 24 to 0006fb1c
  DW_CFA_def_cfa_offset: 0
  DW_CFA_restore: r19
  DW_CFA_restore: r20
  DW_CFA_restore: r21
  DW_CFA_restore: r22
  DW_CFA_restore: r23
  DW_CFA_restore: r24
  DW_CFA_restore: r25
  DW_CFA_restore: r26
  DW_CFA_restore: r27
  DW_CFA_restore: r28
  DW_CFA_restore: r30
  DW_CFA_restore: r29
  DW_CFA_nop
  DW_CFA_nop
  DW_CFA_nop

000000a0 00000044 000000a4 FDE cie=00000000 pc=0006fb20..0006fcc8
  DW_CFA_advance_loc: 20 to 0006fb34
  DW_CFA_def_cfa_offset: 400
  DW_CFA_advance_loc: 28 to 0006fb50
  DW_CFA_def_cfa: r29 ofs 96
  DW_CFA_offset: r15 at cfa-8
  DW_CFA_offset: r19 at cfa-16
  DW_CFA_offset: r20 at cfa-24
  DW_CFA_offset: r21 at cfa-32
  DW_CFA_offset: r22 at cfa-40
  DW_CFA_offset: r23 at cfa-48
  DW_CFA_offset: r24 at cfa-56
  DW_CFA_offset: r25 at cfa-64
  DW_CFA_offset: r28 at cfa-80
  DW_CFA_offset: r30 at cfa-88
  DW_CFA_offset: r29 at cfa-96
  DW_CFA_advance_loc2: 316 to 0006fc8c
  DW_CFA_def_cfa: r31 ofs 400
  DW_CFA_advance_loc: 28 to 0006fca8
  DW_CFA_def_cfa_offset: 0
  DW_CFA_restore: r15
  DW_CFA_restore: r19
  DW_CFA_restore: r20
  DW_CFA_restore: r21
  DW_CFA_restore: r22
  DW_CFA_restore: r23
  DW_CFA_restore: r24
  DW_CFA_restore: r25
  DW_CFA_restore: r28
  DW_CFA_restore: r30
  DW_CFA_restore: r29
  DW_CFA_nop
  DW_CFA_nop
  DW_CFA_nop
  DW_CFA_nop

000000e8 00000014 000000ec FDE cie=00000000 pc=0006fcc8..0006fd70
  DW_CFA_nop
  DW_CFA_nop
  DW_CFA_nop
  DW_CFA_nop
  DW_CFA_nop
  DW_CFA_nop
  DW_CFA_nop

00000100 00000034 00000104 FDE cie=00000000 pc=0006fd70..0006fdb8
  DW_CFA_advance_loc: 4 to 0006fd74
  DW_CFA_def_cfa_offset: 32
  DW_CFA_advance_loc: 8 to 0006fd7c
  DW_CFA_def_cfa: r29 ofs 32
  DW_CFA_offset: r19 at cfa-16
  DW_CFA_offset: r30 at cfa-24
  DW_CFA_offset: r29 at cfa-32
  DW_CFA_remember_state
  DW_CFA_advance_loc: 24 to 0006fd94
  DW_CFA_def_cfa: r31 ofs 32
  DW_CFA_advance_loc: 8 to 0006fd9c
  DW_CFA_def_cfa_offset: 0
  DW_CFA_restore: r19
  DW_CFA_restore: r30
  DW_CFA_restore: r29
  DW_CFA_advance_loc: 4 to 0006fda0
  DW_CFA_restore_state
  DW_CFA_advance_loc: 12 to 0006fdac
  DW_CFA_def_cfa: r31 ofs 32
  DW_CFA_advance_loc: 8 to 0006fdb4
  DW_CFA_def_cfa_offset: 0
  DW_CFA_restore: r19
  DW_CFA_restore: r30
  DW_CFA_restore: r29
  DW_CFA_nop
  DW_CFA_nop
  DW_CFA_nop

00000138 00000024 0000013c FDE cie=00000000 pc=0006fdb8..0006fe04
  DW_CFA_advance_loc: 4 to 0006fdbc
  DW_CFA_def_cfa_offset: 32
  DW_CFA_advance_loc: 8 to 0006fdc4
  DW_CFA_def_cfa: r29 ofs 32
  DW_CFA_offset: r19 at cfa-16
  DW_CFA_offset: r30 at cfa-24
  DW_CFA_offset: r29 at cfa-32
  DW_CFA_advance_loc: 52 to 0006fdf8
  DW_CFA_def_cfa: r31 ofs 32
  DW_CFA_advance_loc: 8 to 0006fe00
  DW_CFA_def_cfa_offset: 0
  DW_CFA_restore: r19
  DW_CFA_restore: r30
  DW_CFA_restore: r29

00000160 00000044 00000164 FDE cie=00000000 pc=0006fe04..00070024
  DW_CFA_advance_loc: 4 to 0006fe08
  DW_CFA_def_cfa_offset: 416
  DW_CFA_advance_loc: 28 to 0006fe24
  DW_CFA_def_cfa: r29 ofs 96
  DW_CFA_offset: r19 at cfa-8
  DW_CFA_offset: r20 at cfa-16
  DW_CFA_offset: r21 at cfa-24
  DW_CFA_offset: r22 at cfa-32
  DW_CFA_offset: r23 at cfa-40
  DW_CFA_offset: r24 at cfa-48
  DW_CFA_offset: r25 at cfa-56
  DW_CFA_offset: r26 at cfa-64
  DW_CFA_offset: r27 at cfa-72
  DW_CFA_offset: r28 at cfa-80
  DW_CFA_offset: r30 at cfa-88
  DW_CFA_offset: r29 at cfa-96
  DW_CFA_advance_loc2: 480 to 00070004
  DW_CFA_def_cfa: r31 ofs 416
  DW_CFA_advance_loc: 28 to 00070020
  DW_CFA_def_cfa_offset: 0
  DW_CFA_restore: r19
  DW_CFA_restore: r20
  DW_CFA_restore: r21
  DW_CFA_restore: r22
  DW_CFA_restore: r23
  DW_CFA_restore: r24
  DW_CFA_restore: r25
  DW_CFA_restore: r26
  DW_CFA_restore: r27
  DW_CFA_restore: r28
  DW_CFA_restore: r30
  DW_CFA_restore: r29
  DW_CFA_nop

000001a8 00000014 000001ac FDE cie=00000000 pc=00070024..00070028
  DW_CFA_nop
  DW_CFA_nop
  DW_CFA_nop
  DW_CFA_nop
  DW_CFA_nop
  DW_CFA_nop
  DW_CFA_nop

000001c0 00000014 000001c4 FDE cie=00000000 pc=00070028..0007002c
  DW_CFA_nop
  DW_CFA_nop
  DW_CFA_nop
  DW_CFA_nop
  DW_CFA_nop
  DW_CFA_nop
  DW_CFA_nop

000001d8 0000003c 000001dc FDE cie=00000000 pc=0007002c..000702f0
  DW_CFA_advance_loc: 20 to 00070040
  DW_CFA_def_cfa_offset: 80
  DW_CFA_advance_loc: 20 to 00070054
  DW_CFA_def_cfa: r29 ofs 80
  DW_CFA_offset: r15 at cfa-8
  DW_CFA_offset: r19 at cfa-16
  DW_CFA_offset: r20 at cfa-24
  DW_CFA_offset: r21 at cfa-32
  DW_CFA_offset: r22 at cfa-40
  DW_CFA_offset: r23 at cfa-48
  DW_CFA_offset: r24 at cfa-56
  DW_CFA_offset: r28 at cfa-64
  DW_CFA_offset: r30 at cfa-72
  DW_CFA_offset: r29 at cfa-80
  DW_CFA_advance_loc2: 616 to 000702bc
  DW_CFA_def_cfa: r31 ofs 80
  DW_CFA_advance_loc: 20 to 000702d0
  DW_CFA_def_cfa_offset: 0
  DW_CFA_restore: r15
  DW_CFA_restore: r19
  DW_CFA_restore: r20
  DW_CFA_restore: r21
  DW_CFA_restore: r22
  DW_CFA_restore: r23
  DW_CFA_restore: r24
  DW_CFA_restore: r28
  DW_CFA_restore: r30
  DW_CFA_restore: r29
  DW_CFA_nop

00000218 00000014 0000021c FDE cie=00000000 pc=000702f0..000704b4
  DW_CFA_nop
  DW_CFA_nop
  DW_CFA_nop
  DW_CFA_nop
  DW_CFA_nop
  DW_CFA_nop
  DW_CFA_nop

00000230 00000024 00000234 FDE cie=00000000 pc=000704b4..000706cc
  DW_CFA_advance_loc: 20 to 000704c8
  DW_CFA_def_cfa_offset: 320
  DW_CFA_advance_loc: 4 to 000704cc
  DW_CFA_offset: r15 at cfa-8
  DW_CFA_offset: r29 at cfa-16
  DW_CFA_advance_loc2: 480 to 000706ac
  DW_CFA_def_cfa_offset: 0
  DW_CFA_restore: r15
  DW_CFA_restore: r29
  DW_CFA_nop
  DW_CFA_nop
  DW_CFA_nop
  DW_CFA_nop
  DW_CFA_nop
  DW_CFA_nop
  DW_CFA_nop

00000258 0000004c 0000025c FDE cie=00000000 pc=000706cc..00070e2c
  DW_CFA_advance_loc: 20 to 000706e0
  DW_CFA_def_cfa_offset: 112
  DW_CFA_advance_loc: 28 to 000706fc
  DW_CFA_def_cfa: r29 ofs 112
  DW_CFA_offset: r15 at cfa-8
  DW_CFA_offset: r19 at cfa-16
  DW_CFA_offset: r20 at cfa-24
  DW_CFA_offset: r21 at cfa-32
  DW_CFA_offset: r22 at cfa-40
  DW_CFA_offset: r23 at cfa-48
  DW_CFA_offset: r24 at cfa-56
  DW_CFA_offset: r25 at cfa-64
  DW_CFA_offset: r26 at cfa-72
  DW_CFA_offset: r27 at cfa-80
  DW_CFA_offset: r28 at cfa-96
  DW_CFA_offset: r30 at cfa-104
  DW_CFA_offset: r29 at cfa-112
  DW_CFA_remember_state
  DW_CFA_advance_loc2: 1764 to 00070de0
  DW_CFA_def_cfa: r31 ofs 112
  DW_CFA_advance_loc: 28 to 00070dfc
  DW_CFA_def_cfa_offset: 0
  DW_CFA_restore: r15
  DW_CFA_restore: r19
  DW_CFA_restore: r20
  DW_CFA_restore: r21
  DW_CFA_restore: r22
  DW_CFA_restore: r23
  DW_CFA_restore: r24
  DW_CFA_restore: r25
  DW_CFA_restore: r26
  DW_CFA_restore: r27
  DW_CFA_restore: r28
  DW_CFA_restore: r30
  DW_CFA_restore: r29
  DW_CFA_advance_loc: 32 to 00070e1c
  DW_CFA_restore_state
  DW_CFA_nop
  DW_CFA_nop
  DW_CFA_nop
  DW_CFA_nop
  DW_CFA_nop

000002a8 00000034 000002ac FDE cie=00000000 pc=00070e2c..00070f18
  DW_CFA_advance_loc: 4 to 00070e30
  DW_CFA_def_cfa_offset: 80
  DW_CFA_advance_loc: 16 to 00070e40
  DW_CFA_def_cfa: r29 ofs 48
  DW_CFA_offset: r19 at cfa-8
  DW_CFA_offset: r20 at cfa-16
  DW_CFA_offset: r21 at cfa-24
  DW_CFA_offset: r22 at cfa-32
  DW_CFA_offset: r30 at cfa-40
  DW_CFA_offset: r29 at cfa-48
  DW_CFA_advance_loc1: 196 to 00070f04
  DW_CFA_def_cfa: r31 ofs 80
  DW_CFA_advance_loc: 16 to 00070f14
  DW_CFA_def_cfa_offset: 0
  DW_CFA_restore: r19
  DW_CFA_restore: r20
  DW_CFA_restore: r21
  DW_CFA_restore: r22
  DW_CFA_restore: r30
  DW_CFA_restore: r29
  DW_CFA_nop
  DW_CFA_nop
  DW_CFA_nop
  DW_CFA_nop
  DW_CFA_nop
  DW_CFA_nop

000002e0 0000002c 000002e4 FDE cie=00000000 pc=00070f18..00072708
  DW_CFA_advance_loc: 4 to 00070f1c
  DW_CFA_def_cfa_offset: 96
  DW_CFA_advance_loc: 24 to 00070f34
  DW_CFA_def_cfa: r29 ofs 96
  DW_CFA_offset: r19 at cfa-8
  DW_CFA_offset: r20 at cfa-16
  DW_CFA_offset: r21 at cfa-24
  DW_CFA_offset: r22 at cfa-32
  DW_CFA_offset: r23 at cfa-40
  DW_CFA_offset: r24 at cfa-48
  DW_CFA_offset: r25 at cfa-56
  DW_CFA_offset: r26 at cfa-64
  DW_CFA_offset: r27 at cfa-72
  DW_CFA_offset: r28 at cfa-80
  DW_CFA_offset: r30 at cfa-88
  DW_CFA_offset: r29 at cfa-96

00000310 00000034 00000314 FDE cie=00000000 pc=00072708..00072870
  DW_CFA_advance_loc: 4 to 0007270c
  DW_CFA_def_cfa_offset: 48
  DW_CFA_advance_loc: 12 to 00072718
  DW_CFA_def_cfa: r29 ofs 48
  DW_CFA_offset: r19 at cfa-8
  DW_CFA_offset: r20 at cfa-16
  DW_CFA_offset: r21 at cfa-24
  DW_CFA_offset: r22 at cfa-32
  DW_CFA_offset: r30 at cfa-40
  DW_CFA_offset: r29 at cfa-48
  DW_CFA_advance_loc2: 328 to 00072860
  DW_CFA_def_cfa: r31 ofs 48
  DW_CFA_advance_loc: 12 to 0007286c
  DW_CFA_def_cfa_offset: 0
  DW_CFA_restore: r19
  DW_CFA_restore: r20
  DW_CFA_restore: r21
  DW_CFA_restore: r22
  DW_CFA_restore: r30
  DW_CFA_restore: r29
  DW_CFA_nop
  DW_CFA_nop
  DW_CFA_nop
  DW_CFA_nop
  DW_CFA_nop

00000348 00000044 0000034c FDE cie=00000000 pc=00072870..000729d0
  DW_CFA_advance_loc: 20 to 00072884
  DW_CFA_def_cfa_offset: 176
  DW_CFA_advance_loc: 28 to 000728a0
  DW_CFA_def_cfa: r29 ofs 96
  DW_CFA_offset: r15 at cfa-8
  DW_CFA_offset: r19 at cfa-16
  DW_CFA_offset: r20 at cfa-24
  DW_CFA_offset: r21 at cfa-32
  DW_CFA_offset: r22 at cfa-40
  DW_CFA_offset: r23 at cfa-48
  DW_CFA_offset: r24 at cfa-56
  DW_CFA_offset: r25 at cfa-64
  DW_CFA_offset: r26 at cfa-72
  DW_CFA_offset: r27 at cfa-80
  DW_CFA_offset: r30 at cfa-88
  DW_CFA_offset: r29 at cfa-96
  DW_CFA_advance_loc1: 244 to 00072994
  DW_CFA_def_cfa: r31 ofs 176
  DW_CFA_advance_loc: 28 to 000729b0
  DW_CFA_def_cfa_offset: 0
  DW_CFA_restore: r15
  DW_CFA_restore: r19
  DW_CFA_restore: r20
  DW_CFA_restore: r21
  DW_CFA_restore: r22
  DW_CFA_restore: r23
  DW_CFA_restore: r24
  DW_CFA_restore: r25
  DW_CFA_restore: r26
  DW_CFA_restore: r27
  DW_CFA_restore: r30
  DW_CFA_restore: r29
  DW_CFA_nop
  DW_CFA_nop

00000390 00000044 00000394 FDE cie=00000000 pc=000729d0..00072d5c
  DW_CFA_advance_loc: 4 to 000729d4
  DW_CFA_def_cfa_offset: 112
  DW_CFA_advance_loc: 28 to 000729f0
  DW_CFA_def_cfa: r29 ofs 96
  DW_CFA_offset: r19 at cfa-8
  DW_CFA_offset: r20 at cfa-16
  DW_CFA_offset: r21 at cfa-24
  DW_CFA_offset: r22 at cfa-32
  DW_CFA_offset: r23 at cfa-40
  DW_CFA_offset: r24 at cfa-48
  DW_CFA_offset: r25 at cfa-56
  DW_CFA_offset: r26 at cfa-64
  DW_CFA_offset: r27 at cfa-72
  DW_CFA_offset: r28 at cfa-80
  DW_CFA_offset: r30 at cfa-88
  DW_CFA_offset: r29 at cfa-96
  DW_CFA_remember_state
  DW_CFA_advance_loc2: 828 to 00072d2c
  DW_CFA_def_cfa: r31 ofs 112
  DW_CFA_advance_loc: 28 to 00072d48
  DW_CFA_def_cfa_offset: 0
  DW_CFA_restore: r19
  DW_CFA_restore: r20
  DW_CFA_restore: r21
  DW_CFA_restore: r22
  DW_CFA_restore: r23
  DW_CFA_restore: r24
  DW_CFA_restore: r25
  DW_CFA_restore: r26
  DW_CFA_restore: r27
  DW_CFA_restore: r28
  DW_CFA_restore: r30
  DW_CFA_restore: r29
  DW_CFA_advance_loc: 4 to 00072d4c
  DW_CFA_restore_state

000003d8 00000034 000003dc FDE cie=00000000 pc=00072d5c..00072e04
  DW_CFA_advance_loc: 4 to 00072d60
  DW_CFA_def_cfa_offset: 48
  DW_CFA_advance_loc: 12 to 00072d6c
  DW_CFA_def_cfa: r29 ofs 48
  DW_CFA_offset: r19 at cfa-8
  DW_CFA_offset: r20 at cfa-16
  DW_CFA_offset: r21 at cfa-24
  DW_CFA_offset: r22 at cfa-32
  DW_CFA_offset: r30 at cfa-40
  DW_CFA_offset: r29 at cfa-48
  DW_CFA_advance_loc1: 136 to 00072df4
  DW_CFA_def_cfa: r31 ofs 48
  DW_CFA_advance_loc: 12 to 00072e00
  DW_CFA_def_cfa_offset: 0
  DW_CFA_restore: r19
  DW_CFA_restore: r20
  DW_CFA_restore: r21
  DW_CFA_restore: r22
  DW_CFA_restore: r30
  DW_CFA_restore: r29
  DW_CFA_nop
  DW_CFA_nop
  DW_CFA_nop
  DW_CFA_nop
  DW_CFA_nop
  DW_CFA_nop

00000410 0000004c 00000414 FDE cie=00000000 pc=00072e04..00073938
  DW_CFA_advance_loc: 20 to 00072e18
  DW_CFA_def_cfa_offset: 256
  DW_CFA_advance_loc: 32 to 00072e38
  DW_CFA_def_cfa: r29 ofs 112
  DW_CFA_offset: r15 at cfa-8
  DW_CFA_offset: r19 at cfa-16
  DW_CFA_offset: r20 at cfa-24
  DW_CFA_offset: r21 at cfa-32
  DW_CFA_offset: r22 at cfa-40
  DW_CFA_offset: r23 at cfa-48
  DW_CFA_offset: r24 at cfa-56
  DW_CFA_offset: r25 at cfa-64
  DW_CFA_offset: r26 at cfa-72
  DW_CFA_offset: r27 at cfa-80
  DW_CFA_offset: r28 at cfa-96
  DW_CFA_offset: r30 at cfa-104
  DW_CFA_offset: r29 at cfa-112
  DW_CFA_remember_state
  DW_CFA_advance_loc2: 2736 to 000738e8
  DW_CFA_def_cfa: r31 ofs 256
  DW_CFA_advance_loc: 32 to 00073908
  DW_CFA_def_cfa_offset: 0
  DW_CFA_restore: r15
  DW_CFA_restore: r19
  DW_CFA_restore: r20
  DW_CFA_restore: r21
  DW_CFA_restore: r22
  DW_CFA_restore: r23
  DW_CFA_restore: r24
  DW_CFA_restore: r25
  DW_CFA_restore: r26
  DW_CFA_restore: r27
  DW_CFA_restore: r28
  DW_CFA_restore: r30
  DW_CFA_restore: r29
  DW_CFA_advance_loc: 32 to 00073928
  DW_CFA_restore_state
  DW_CFA_nop
  DW_CFA_nop
  DW_CFA_nop

00000460 00000014 00000464 FDE cie=00000000 pc=00073938..000739c4
  DW_CFA_nop
  DW_CFA_nop
  DW_CFA_nop
  DW_CFA_nop
  DW_CFA_nop
  DW_CFA_nop
  DW_CFA_nop

00000478 00000054 0000047c FDE cie=00000000 pc=000739c4..00073be4
  DW_CFA_advance_loc: 4 to 000739c8
  DW_CFA_def_cfa_offset: 48
  DW_CFA_advance_loc: 12 to 000739d4
  DW_CFA_def_cfa: r29 ofs 48
  DW_CFA_offset: r19 at cfa-8
  DW_CFA_offset: r20 at cfa-16
  DW_CFA_offset: r21 at cfa-32
  DW_CFA_offset: r30 at cfa-40
  DW_CFA_offset: r29 at cfa-48
  DW_CFA_remember_state
  DW_CFA_advance_loc: 16 to 000739e4
  DW_CFA_def_cfa: r31 ofs 48
  DW_CFA_advance_loc: 12 to 000739f0
  DW_CFA_def_cfa_offset: 0
  DW_CFA_restore: r19
  DW_CFA_restore: r20
  DW_CFA_restore: r21
  DW_CFA_restore: r30
  DW_CFA_restore: r29
  DW_CFA_advance_loc: 4 to 000739f4
  DW_CFA_restore_state
  DW_CFA_remember_state
  DW_CFA_advance_loc2: 416 to 00073b94
  DW_CFA_def_cfa: r31 ofs 48
  DW_CFA_advance_loc: 12 to 00073ba0
  DW_CFA_def_cfa_offset: 0
  DW_CFA_restore: r19
  DW_CFA_restore: r20
  DW_CFA_restore: r21
  DW_CFA_restore: r30
  DW_CFA_restore: r29
  DW_CFA_advance_loc: 4 to 00073ba4
  DW_CFA_restore_state
  DW_CFA_remember_state
  DW_CFA_advance_loc: 32 to 00073bc4
  DW_CFA_def_cfa: r31 ofs 48
  DW_CFA_advance_loc: 12 to 00073bd0
  DW_CFA_def_cfa_offset: 0
  DW_CFA_restore: r19
  DW_CFA_restore: r20
  DW_CFA_restore: r21
  DW_CFA_restore: r30
  DW_CFA_restore: r29
  DW_CFA_advance_loc: 4 to 00073bd4
  DW_CFA_restore_state
  DW_CFA_nop
  DW_CFA_nop
  DW_CFA_nop
  DW_CFA_nop
  DW_CFA_nop
  DW_CFA_nop
  DW_CFA_nop

000004d0 0000002c 000004d4 FDE cie=00000000 pc=00073be4..00073cd0
  DW_CFA_advance_loc: 20 to 00073bf8
  DW_CFA_def_cfa_offset: 288
  DW_CFA_advance_loc: 12 to 00073c04
  DW_CFA_def_cfa: r29 ofs 32
  DW_CFA_offset: r15 at cfa-8
  DW_CFA_offset: r28 at cfa-16
  DW_CFA_offset: r30 at cfa-24
  DW_CFA_offset: r29 at cfa-32
  DW_CFA_advance_loc1: 160 to 00073ca4
  DW_CFA_def_cfa: r31 ofs 288
  DW_CFA_advance_loc: 12 to 00073cb0
  DW_CFA_def_cfa_offset: 0
  DW_CFA_restore: r15
  DW_CFA_restore: r28
  DW_CFA_restore: r30
  DW_CFA_restore: r29
  DW_CFA_nop
  DW_CFA_nop

00000500 0000002c 00000504 FDE cie=00000000 pc=00073cd0..00073d54
  DW_CFA_advance_loc: 4 to 00073cd4
  DW_CFA_def_cfa_offset: 48
  DW_CFA_advance_loc: 12 to 00073ce0
  DW_CFA_def_cfa: r29 ofs 48
  DW_CFA_offset: r19 at cfa-8
  DW_CFA_offset: r20 at cfa-16
  DW_CFA_offset: r21 at cfa-32
  DW_CFA_offset: r30 at cfa-40
  DW_CFA_offset: r29 at cfa-48
  DW_CFA_advance_loc1: 100 to 00073d44
  DW_CFA_def_cfa: r31 ofs 48
  DW_CFA_advance_loc: 12 to 00073d50
  DW_CFA_def_cfa_offset: 0
  DW_CFA_restore: r19
  DW_CFA_restore: r20
  DW_CFA_restore: r21
  DW_CFA_restore: r30
  DW_CFA_restore: r29
  DW_CFA_nop

00000530 0000004c 00000534 FDE cie=00000000 pc=00073d54..00074834
  DW_CFA_advance_loc: 20 to 00073d68
  DW_CFA_def_cfa_offset: 112
  DW_CFA_advance_loc: 28 to 00073d84
  DW_CFA_def_cfa: r29 ofs 112
  DW_CFA_offset: r15 at cfa-8
  DW_CFA_offset: r19 at cfa-16
  DW_CFA_offset: r20 at cfa-24
  DW_CFA_offset: r21 at cfa-32
  DW_CFA_offset: r22 at cfa-40
  DW_CFA_offset: r23 at cfa-48
  DW_CFA_offset: r24 at cfa-56
  DW_CFA_offset: r25 at cfa-64
  DW_CFA_offset: r26 at cfa-72
  DW_CFA_offset: r27 at cfa-80
  DW_CFA_offset: r28 at cfa-96
  DW_CFA_offset: r30 at cfa-104
  DW_CFA_offset: r29 at cfa-112
  DW_CFA_remember_state
  DW_CFA_advance_loc2: 1564 to 000743a0
  DW_CFA_def_cfa: r31 ofs 112
  DW_CFA_advance_loc: 28 to 000743bc
  DW_CFA_def_cfa_offset: 0
  DW_CFA_restore: r15
  DW_CFA_restore: r19
  DW_CFA_restore: r20
  DW_CFA_restore: r21
  DW_CFA_restore: r22
  DW_CFA_restore: r23
  DW_CFA_restore: r24
  DW_CFA_restore: r25
  DW_CFA_restore: r26
  DW_CFA_restore: r27
  DW_CFA_restore: r28
  DW_CFA_restore: r30
  DW_CFA_restore: r29
  DW_CFA_advance_loc: 32 to 000743dc
  DW_CFA_restore_state
  DW_CFA_nop
  DW_CFA_nop
  DW_CFA_nop
  DW_CFA_nop
  DW_CFA_nop

00000580 0000003c 00000584 FDE cie=00000000 pc=00074834..000748bc
  DW_CFA_advance_loc: 4 to 00074838
  DW_CFA_def_cfa_offset: 32
  DW_CFA_advance_loc: 8 to 00074840
  DW_CFA_def_cfa: r29 ofs 32
  DW_CFA_offset: r19 at cfa-8
  DW_CFA_offset: r20 at cfa-16
  DW_CFA_offset: r30 at cfa-24
  DW_CFA_offset: r29 at cfa-32
  DW_CFA_remember_state
  DW_CFA_advance_loc1: 96 to 000748a0
  DW_CFA_def_cfa: r31 ofs 32
  DW_CFA_advance_loc: 8 to 000748a8
  DW_CFA_def_cfa_offset: 0
  DW_CFA_restore: r19
  DW_CFA_restore: r20
  DW_CFA_restore: r30
  DW_CFA_restore: r29
  DW_CFA_advance_loc: 4 to 000748ac
  DW_CFA_restore_state
  DW_CFA_advance_loc: 4 to 000748b0
  DW_CFA_def_cfa: r31 ofs 32
  DW_CFA_advance_loc: 8 to 000748b8
  DW_CFA_def_cfa_offset: 0
  DW_CFA_restore: r19
  DW_CFA_restore: r20
  DW_CFA_restore: r30
  DW_CFA_restore: r29
  DW_CFA_nop
  DW_CFA_nop
  DW_CFA_nop
  DW_CFA_nop
  DW_CFA_nop
  DW_CFA_nop

000005c0 0000004c 000005c4 FDE cie=00000000 pc=000748bc..00074a20
  DW_CFA_advance_loc: 4 to 000748c0
  DW_CFA_def_cfa_offset: 48
  DW_CFA_advance_loc: 12 to 000748cc
  DW_CFA_def_cfa: r29 ofs 48
  DW_CFA_offset: r19 at cfa-8
  DW_CFA_offset: r20 at cfa-16
  DW_CFA_offset: r21 at cfa-32
  DW_CFA_offset: r30 at cfa-40
  DW_CFA_offset: r29 at cfa-48
  DW_CFA_remember_state
  DW_CFA_advance_loc1: 248 to 000749c4
  DW_CFA_def_cfa: r31 ofs 48
  DW_CFA_advance_loc: 12 to 000749d0
  DW_CFA_def_cfa_offset: 0
  DW_CFA_restore: r19
  DW_CFA_restore: r20
  DW_CFA_restore: r21
  DW_CFA_restore: r30
  DW_CFA_restore: r29
  DW_CFA_advance_loc: 4 to 000749d4
  DW_CFA_restore_state
  DW_CFA_remember_state
  DW_CFA_advance_loc: 40 to 000749fc
  DW_CFA_def_cfa: r31 ofs 48
  DW_CFA_advance_loc: 12 to 00074a08
  DW_CFA_def_cfa_offset: 0
  DW_CFA_restore: r19
  DW_CFA_restore: r20
  DW_CFA_restore: r21
  DW_CFA_restore: r30
  DW_CFA_restore: r29
  DW_CFA_advance_loc: 4 to 00074a0c
  DW_CFA_restore_state
  DW_CFA_advance_loc: 4 to 00074a10
  DW_CFA_def_cfa: r31 ofs 48
  DW_CFA_advance_loc: 12 to 00074a1c
  DW_CFA_def_cfa_offset: 0
  DW_CFA_restore: r19
  DW_CFA_restore: r20
  DW_CFA_restore: r21
  DW_CFA_restore: r30
  DW_CFA_restore: r29
  DW_CFA_nop
  DW_CFA_nop
  DW_CFA_nop

00000610 0000003c 00000614 FDE cie=00000000 pc=00074a20..00074bf0
  DW_CFA_advance_loc: 4 to 00074a24
  DW_CFA_def_cfa_offset: 48
  DW_CFA_advance_loc: 12 to 00074a30
  DW_CFA_def_cfa: r29 ofs 48
  DW_CFA_offset: r19 at cfa-8
  DW_CFA_offset: r20 at cfa-16
  DW_CFA_offset: r21 at cfa-32
  DW_CFA_offset: r30 at cfa-40
  DW_CFA_offset: r29 at cfa-48
  DW_CFA_remember_state
  DW_CFA_advance_loc1: 132 to 00074ab4
  DW_CFA_def_cfa: r31 ofs 48
  DW_CFA_advance_loc: 12 to 00074ac0
  DW_CFA_def_cfa_offset: 0
  DW_CFA_restore: r19
  DW_CFA_restore: r20
  DW_CFA_restore: r21
  DW_CFA_restore: r30
  DW_CFA_restore: r29
  DW_CFA_advance_loc: 4 to 00074ac4
  DW_CFA_restore_state
  DW_CFA_advance_loc2: 284 to 00074be0
  DW_CFA_def_cfa: r31 ofs 48
  DW_CFA_advance_loc: 12 to 00074bec
  DW_CFA_def_cfa_offset: 0
  DW_CFA_restore: r19
  DW_CFA_restore: r20
  DW_CFA_restore: r21
  DW_CFA_restore: r30
  DW_CFA_restore: r29

00000650 00000014 00000654 FDE cie=00000000 pc=00074bf0..00074c7c
  DW_CFA_nop
  DW_CFA_nop
  DW_CFA_nop
  DW_CFA_nop
  DW_CFA_nop
  DW_CFA_nop
  DW_CFA_nop

00000668 00000044 0000066c FDE cie=00000000 pc=00074c7c..00074d48
  DW_CFA_advance_loc: 4 to 00074c80
  DW_CFA_def_cfa_offset: 64
  DW_CFA_advance_loc: 16 to 00074c90
  DW_CFA_def_cfa: r29 ofs 48
  DW_CFA_offset: r19 at cfa-8
  DW_CFA_offset: r20 at cfa-16
  DW_CFA_offset: r21 at cfa-24
  DW_CFA_offset: r22 at cfa-32
  DW_CFA_offset: r30 at cfa-40
  DW_CFA_offset: r29 at cfa-48
  DW_CFA_remember_state
  DW_CFA_advance_loc1: 140 to 00074d1c
  DW_CFA_def_cfa: r31 ofs 64
  DW_CFA_advance_loc: 16 to 00074d2c
  DW_CFA_def_cfa_offset: 0
  DW_CFA_restore: r19
  DW_CFA_restore: r20
  DW_CFA_restore: r21
  DW_CFA_restore: r22
  DW_CFA_restore: r30
  DW_CFA_restore: r29
  DW_CFA_advance_loc: 4 to 00074d30
  DW_CFA_restore_state
  DW_CFA_advance_loc: 4 to 00074d34
  DW_CFA_def_cfa: r31 ofs 64
  DW_CFA_advance_loc: 16 to 00074d44
  DW_CFA_def_cfa_offset: 0
  DW_CFA_restore: r19
  DW_CFA_restore: r20
  DW_CFA_restore: r21
  DW_CFA_restore: r22
  DW_CFA_restore: r30
  DW_CFA_restore: r29
  DW_CFA_nop
  DW_CFA_nop
  DW_CFA_nop
  DW_CFA_nop
  DW_CFA_nop
  DW_CFA_nop

000006b0 00000044 000006b4 FDE cie=00000000 pc=00074d48..00074e28
  DW_CFA_advance_loc: 4 to 00074d4c
  DW_CFA_def_cfa_offset: 80
  DW_CFA_advance_loc: 20 to 00074d60
  DW_CFA_def_cfa: r29 ofs 64
  DW_CFA_offset: r19 at cfa-8
  DW_CFA_offset: r20 at cfa-16
  DW_CFA_offset: r21 at cfa-24
  DW_CFA_offset: r22 at cfa-32
  DW_CFA_offset: r23 at cfa-48
  DW_CFA_offset: r30 at cfa-56
  DW_CFA_offset: r29 at cfa-64
  DW_CFA_remember_state
  DW_CFA_advance_loc1: 72 to 00074da8
  DW_CFA_def_cfa: r31 ofs 80
  DW_CFA_advance_loc: 20 to 00074dbc
  DW_CFA_def_cfa_offset: 0
  DW_CFA_restore: r19
  DW_CFA_restore: r20
  DW_CFA_restore: r21
  DW_CFA_restore: r22
  DW_CFA_restore: r23
  DW_CFA_restore: r30
  DW_CFA_restore: r29
  DW_CFA_advance_loc: 4 to 00074dc0
  DW_CFA_restore_state
  DW_CFA_advance_loc1: 80 to 00074e10
  DW_CFA_def_cfa: r31 ofs 80
  DW_CFA_advance_loc: 20 to 00074e24
  DW_CFA_def_cfa_offset: 0
  DW_CFA_restore: r19
  DW_CFA_restore: r20
  DW_CFA_restore: r21
  DW_CFA_restore: r22
  DW_CFA_restore: r23
  DW_CFA_restore: r30
  DW_CFA_restore: r29
  DW_CFA_nop

000006f8 0000007c 000006fc FDE cie=00000000 pc=00074e28..000750c8
  DW_CFA_advance_loc: 4 to 00074e2c
  DW_CFA_def_cfa_offset: 64
  DW_CFA_advance_loc: 16 to 00074e3c
  DW_CFA_def_cfa: r29 ofs 64
  DW_CFA_offset: r19 at cfa-8
  DW_CFA_offset: r20 at cfa-16
  DW_CFA_offset: r21 at cfa-24
  DW_CFA_offset: r22 at cfa-32
  DW_CFA_offset: r23 at cfa-48
  DW_CFA_offset: r30 at cfa-56
  DW_CFA_offset: r29 at cfa-64
  DW_CFA_remember_state
  DW_CFA_advance_loc1: 124 to 00074eb8
  DW_CFA_def_cfa: r31 ofs 64
  DW_CFA_advance_loc: 16 to 00074ec8
  DW_CFA_def_cfa_offset: 0
  DW_CFA_restore: r19
  DW_CFA_restore: r20
  DW_CFA_restore: r21
  DW_CFA_restore: r22
  DW_CFA_restore: r23
  DW_CFA_restore: r30
  DW_CFA_restore: r29
  DW_CFA_advance_loc: 4 to 00074ecc
  DW_CFA_restore_state
  DW_CFA_remember_state
  DW_CFA_advance_loc: 40 to 00074ef4
  DW_CFA_def_cfa: r31 ofs 64
  DW_CFA_advance_loc: 16 to 00074f04
  DW_CFA_def_cfa_offset: 0
  DW_CFA_restore: r19
  DW_CFA_restore: r20
  DW_CFA_restore: r21
  DW_CFA_restore: r22
  DW_CFA_restore: r23
  DW_CFA_restore: r30
  DW_CFA_restore: r29
  DW_CFA_advance_loc: 4 to 00074f08
  DW_CFA_restore_state
  DW_CFA_remember_state
  DW_CFA_advance_loc: 16 to 00074f18
  DW_CFA_def_cfa: r31 ofs 64
  DW_CFA_advance_loc: 16 to 00074f28
  DW_CFA_def_cfa_offset: 0
  DW_CFA_restore: r19
  DW_CFA_restore: r20
  DW_CFA_restore: r21
  DW_CFA_restore: r22
  DW_CFA_restore: r23
  DW_CFA_restore: r30
  DW_CFA_restore: r29
  DW_CFA_advance_loc: 4 to 00074f2c
  DW_CFA_restore_state
  DW_CFA_remember_state
  DW_CFA_advance_loc1: 188 to 00074fe8
  DW_CFA_def_cfa: r31 ofs 64
  DW_CFA_advance_loc: 16 to 00074ff8
  DW_CFA_def_cfa_offset: 0
  DW_CFA_restore: r19
  DW_CFA_restore: r20
  DW_CFA_restore: r21
  DW_CFA_restore: r22
  DW_CFA_restore: r23
  DW_CFA_restore: r30
  DW_CFA_restore: r29
  DW_CFA_advance_loc: 4 to 00074ffc
  DW_CFA_restore_state
  DW_CFA_advance_loc1: 184 to 000750b4
  DW_CFA_def_cfa: r31 ofs 64
  DW_CFA_advance_loc: 16 to 000750c4
  DW_CFA_def_cfa_offset: 0
  DW_CFA_restore: r19
  DW_CFA_restore: r20
  DW_CFA_restore: r21
  DW_CFA_restore: r22
  DW_CFA_restore: r23
  DW_CFA_restore: r30
  DW_CFA_restore: r29
  DW_CFA_nop
  DW_CFA_nop
  DW_CFA_nop
  DW_CFA_nop
  DW_CFA_nop

00000778 0000002c 0000077c FDE cie=00000000 pc=000750c8..00075124
  DW_CFA_advance_loc: 4 to 000750cc
  DW_CFA_def_cfa_offset: 32
  DW_CFA_advance_loc: 8 to 000750d4
  DW_CFA_def_cfa: r29 ofs 32
  DW_CFA_offset: r19 at cfa-8
  DW_CFA_offset: r20 at cfa-16
  DW_CFA_offset: r30 at cfa-24
  DW_CFA_offset: r29 at cfa-32
  DW_CFA_advance_loc1: 68 to 00075118
  DW_CFA_def_cfa: r31 ofs 32
  DW_CFA_advance_loc: 8 to 00075120
  DW_CFA_def_cfa_offset: 0
  DW_CFA_restore: r19
  DW_CFA_restore: r20
  DW_CFA_restore: r30
  DW_CFA_restore: r29
  DW_CFA_nop
  DW_CFA_nop
  DW_CFA_nop
  DW_CFA_nop

000007a8 00000064 000007ac FDE cie=00000000 pc=00075124..00075258
  DW_CFA_advance_loc: 4 to 00075128
  DW_CFA_def_cfa_offset: 48
  DW_CFA_advance_loc: 12 to 00075134
  DW_CFA_def_cfa: r29 ofs 48
  DW_CFA_offset: r19 at cfa-8
  DW_CFA_offset: r20 at cfa-16
  DW_CFA_offset: r21 at cfa-24
  DW_CFA_offset: r22 at cfa-32
  DW_CFA_offset: r30 at cfa-40
  DW_CFA_offset: r29 at cfa-48
  DW_CFA_remember_state
  DW_CFA_advance_loc1: 120 to 000751ac
  DW_CFA_def_cfa: r31 ofs 48
  DW_CFA_advance_loc: 12 to 000751b8
  DW_CFA_def_cfa_offset: 0
  DW_CFA_restore: r19
  DW_CFA_restore: r20
  DW_CFA_restore: r21
  DW_CFA_restore: r22
  DW_CFA_restore: r30
  DW_CFA_restore: r29
  DW_CFA_advance_loc: 4 to 000751bc
  DW_CFA_restore_state
  DW_CFA_remember_state
  DW_CFA_advance_loc: 40 to 000751e4
  DW_CFA_def_cfa: r31 ofs 48
  DW_CFA_advance_loc: 12 to 000751f0
  DW_CFA_def_cfa_offset: 0
  DW_CFA_restore: r19
  DW_CFA_restore: r20
  DW_CFA_restore: r21
  DW_CFA_restore: r22
  DW_CFA_restore: r30
  DW_CFA_restore: r29
  DW_CFA_advance_loc: 4 to 000751f4
  DW_CFA_restore_state
  DW_CFA_remember_state
  DW_CFA_advance_loc: 16 to 00075204
  DW_CFA_def_cfa: r31 ofs 48
  DW_CFA_advance_loc: 12 to 00075210
  DW_CFA_def_cfa_offset: 0
  DW_CFA_restore: r19
  DW_CFA_restore: r20
  DW_CFA_restore: r21
  DW_CFA_restore: r22
  DW_CFA_restore: r30
  DW_CFA_restore: r29
  DW_CFA_advance_loc: 4 to 00075214
  DW_CFA_restore_state
  DW_CFA_advance_loc: 52 to 00075248
  DW_CFA_def_cfa: r31 ofs 48
  DW_CFA_advance_loc: 12 to 00075254
  DW_CFA_def_cfa_offset: 0
  DW_CFA_restore: r19
  DW_CFA_restore: r20
  DW_CFA_restore: r21
  DW_CFA_restore: r22
  DW_CFA_restore: r30
  DW_CFA_restore: r29
  DW_CFA_nop
  DW_CFA_nop
  DW_CFA_nop
  DW_CFA_nop
  DW_CFA_nop
  DW_CFA_nop

00000810 00000034 00000814 FDE cie=00000000 pc=00075258..000752a4
  DW_CFA_advance_loc: 4 to 0007525c
  DW_CFA_def_cfa_offset: 16
  DW_CFA_advance_loc: 4 to 00075260
  DW_CFA_def_cfa: r29 ofs 16
  DW_CFA_offset: r30 at cfa-8
  DW_CFA_offset: r29 at cfa-16
  DW_CFA_remember_state
  DW_CFA_advance_loc: 48 to 00075290
  DW_CFA_def_cfa: r31 ofs 16
  DW_CFA_advance_loc: 4 to 00075294
  DW_CFA_def_cfa_offset: 0
  DW_CFA_restore: r30
  DW_CFA_restore: r29
  DW_CFA_advance_loc: 4 to 00075298
  DW_CFA_restore_state
  DW_CFA_advance_loc: 4 to 0007529c
  DW_CFA_def_cfa: r31 ofs 16
  DW_CFA_advance_loc: 4 to 000752a0
  DW_CFA_def_cfa_offset: 0
  DW_CFA_restore: r30
  DW_CFA_restore: r29
  DW_CFA_nop
  DW_CFA_nop
  DW_CFA_nop
  DW_CFA_nop
  DW_CFA_nop
  DW_CFA_nop
  DW_CFA_nop

00000848 0000002c 0000084c FDE cie=00000000 pc=000752a4..00075368
  DW_CFA_advance_loc: 4 to 000752a8
  DW_CFA_def_cfa_offset: 32
  DW_CFA_advance_loc: 8 to 000752b0
  DW_CFA_def_cfa: r29 ofs 32
  DW_CFA_offset: r19 at cfa-8
  DW_CFA_offset: r20 at cfa-16
  DW_CFA_offset: r30 at cfa-24
  DW_CFA_offset: r29 at cfa-32
  DW_CFA_advance_loc1: 172 to 0007535c
  DW_CFA_def_cfa: r31 ofs 32
  DW_CFA_advance_loc: 8 to 00075364
  DW_CFA_def_cfa_offset: 0
  DW_CFA_restore: r19
  DW_CFA_restore: r20
  DW_CFA_restore: r30
  DW_CFA_restore: r29
  DW_CFA_nop
  DW_CFA_nop
  DW_CFA_nop
  DW_CFA_nop

00000878 0000003c 0000087c FDE cie=00000000 pc=00075368..00075570
  DW_CFA_advance_loc: 4 to 0007536c
  DW_CFA_def_cfa_offset: 80
  DW_CFA_advance_loc: 20 to 00075380
  DW_CFA_def_cfa: r29 ofs 64
  DW_CFA_offset: r19 at cfa-8
  DW_CFA_offset: r20 at cfa-16
  DW_CFA_offset: r21 at cfa-24
  DW_CFA_offset: r22 at cfa-32
  DW_CFA_offset: r23 at cfa-40
  DW_CFA_offset: r24 at cfa-48
  DW_CFA_offset: r30 at cfa-56
  DW_CFA_offset: r29 at cfa-64
  DW_CFA_advance_loc2: 472 to 00075558
  DW_CFA_def_cfa: r31 ofs 80
  DW_CFA_advance_loc: 20 to 0007556c
  DW_CFA_def_cfa_offset: 0
  DW_CFA_restore: r19
  DW_CFA_restore: r20
  DW_CFA_restore: r21
  DW_CFA_restore: r22
  DW_CFA_restore: r23
  DW_CFA_restore: r24
  DW_CFA_restore: r30
  DW_CFA_restore: r29
  DW_CFA_nop
  DW_CFA_nop
  DW_CFA_nop
  DW_CFA_nop
  DW_CFA_nop
  DW_CFA_nop
  DW_CFA_nop

000008b8 0000004c 000008bc FDE cie=00000000 pc=00075570..0007585c
  DW_CFA_advance_loc: 4 to 00075574
  DW_CFA_def_cfa_offset: 48
  DW_CFA_advance_loc: 12 to 00075580
  DW_CFA_def_cfa: r29 ofs 48
  DW_CFA_offset: r19 at cfa-8
  DW_CFA_offset: r20 at cfa-16
  DW_CFA_offset: r21 at cfa-32
  DW_CFA_offset: r30 at cfa-40
  DW_CFA_offset: r29 at cfa-48
  DW_CFA_remember_state
  DW_CFA_advance_loc: 48 to 000755b0
  DW_CFA_def_cfa: r31 ofs 48
  DW_CFA_advance_loc: 12 to 000755bc
  DW_CFA_def_cfa_offset: 0
  DW_CFA_restore: r19
  DW_CFA_restore: r20
  DW_CFA_restore: r21
  DW_CFA_restore: r30
  DW_CFA_restore: r29
  DW_CFA_advance_loc: 4 to 000755c0
  DW_CFA_restore_state
  DW_CFA_remember_state
  DW_CFA_advance_loc2: 628 to 00075834
  DW_CFA_def_cfa: r31 ofs 48
  DW_CFA_advance_loc: 12 to 00075840
  DW_CFA_def_cfa_offset: 0
  DW_CFA_restore: r19
  DW_CFA_restore: r20
  DW_CFA_restore: r21
  DW_CFA_restore: r30
  DW_CFA_restore: r29
  DW_CFA_advance_loc: 4 to 00075844
  DW_CFA_restore_state
  DW_CFA_advance_loc: 8 to 0007584c
  DW_CFA_def_cfa: r31 ofs 48
  DW_CFA_advance_loc: 12 to 00075858
  DW_CFA_def_cfa_offset: 0
  DW_CFA_restore: r19
  DW_CFA_restore: r20
  DW_CFA_restore: r21
  DW_CFA_restore: r30
  DW_CFA_restore: r29
  DW_CFA_nop
  DW_CFA_nop

00000908 00000034 0000090c FDE cie=00000000 pc=0007585c..000758ec
  DW_CFA_advance_loc: 4 to 00075860
  DW_CFA_def_cfa_offset: 48
  DW_CFA_advance_loc: 12 to 0007586c
  DW_CFA_def_cfa: r29 ofs 48
  DW_CFA_offset: r19 at cfa-8
  DW_CFA_offset: r20 at cfa-16
  DW_CFA_offset: r21 at cfa-32
  DW_CFA_offset: r30 at cfa-40
  DW_CFA_offset: r29 at cfa-48
  DW_CFA_remember_state
  DW_CFA_advance_loc1: 104 to 000758d4
  DW_CFA_def_cfa: r31 ofs 48
  DW_CFA_advance_loc: 12 to 000758e0
  DW_CFA_def_cfa_offset: 0
  DW_CFA_restore: r19
  DW_CFA_restore: r20
  DW_CFA_restore: r21
  DW_CFA_restore: r30
  DW_CFA_restore: r29
  DW_CFA_advance_loc: 4 to 000758e4
  DW_CFA_restore_state
  DW_CFA_nop
  DW_CFA_nop
  DW_CFA_nop
  DW_CFA_nop
  DW_CFA_nop
  DW_CFA_nop

00000940 0000004c 00000944 FDE cie=00000000 pc=000758ec..00075eb8
  DW_CFA_advance_loc: 20 to 00075900
  DW_CFA_def_cfa_offset: 208
  DW_CFA_advance_loc: 32 to 00075920
  DW_CFA_def_cfa: r29 ofs 112
  DW_CFA_offset: r15 at cfa-8
  DW_CFA_offset: r19 at cfa-16
  DW_CFA_offset: r20 at cfa-24
  DW_CFA_offset: r21 at cfa-32
  DW_CFA_offset: r22 at cfa-40
  DW_CFA_offset: r23 at cfa-48
  DW_CFA_offset: r24 at cfa-56
  DW_CFA_offset: r25 at cfa-64
  DW_CFA_offset: r26 at cfa-72
  DW_CFA_offset: r27 at cfa-80
  DW_CFA_offset: r28 at cfa-96
  DW_CFA_offset: r30 at cfa-104
  DW_CFA_offset: r29 at cfa-112
  DW_CFA_advance_loc2: 1368 to 00075e78
  DW_CFA_def_cfa: r31 ofs 208
  DW_CFA_advance_loc: 32 to 00075e98
  DW_CFA_def_cfa_offset: 0
  DW_CFA_restore: r15
  DW_CFA_restore: r19
  DW_CFA_restore: r20
  DW_CFA_restore: r21
  DW_CFA_restore: r22
  DW_CFA_restore: r23
  DW_CFA_restore: r24
  DW_CFA_restore: r25
  DW_CFA_restore: r26
  DW_CFA_restore: r27
  DW_CFA_restore: r28
  DW_CFA_restore: r30
  DW_CFA_restore: r29
  DW_CFA_nop
  DW_CFA_nop
  DW_CFA_nop
  DW_CFA_nop
  DW_CFA_nop
  DW_CFA_nop

00000990 00000034 00000994 FDE cie=00000000 pc=00075eb8..00075f38
  DW_CFA_advance_loc: 4 to 00075ebc
  DW_CFA_def_cfa_offset: 48
  DW_CFA_advance_loc: 12 to 00075ec8
  DW_CFA_def_cfa: r29 ofs 48
  DW_CFA_offset: r19 at cfa-8
  DW_CFA_offset: r20 at cfa-16
  DW_CFA_offset: r21 at cfa-24
  DW_CFA_offset: r22 at cfa-32
  DW_CFA_offset: r30 at cfa-40
  DW_CFA_offset: r29 at cfa-48
  DW_CFA_remember_state
  DW_CFA_advance_loc1: 88 to 00075f20
  DW_CFA_def_cfa: r31 ofs 48
  DW_CFA_advance_loc: 12 to 00075f2c
  DW_CFA_def_cfa_offset: 0
  DW_CFA_restore: r19
  DW_CFA_restore: r20
  DW_CFA_restore: r21
  DW_CFA_restore: r22
  DW_CFA_restore: r30
  DW_CFA_restore: r29
  DW_CFA_advance_loc: 4 to 00075f30
  DW_CFA_restore_state
  DW_CFA_nop
  DW_CFA_nop
  DW_CFA_nop

000009c8 0000003c 000009cc FDE cie=00000000 pc=00075f38..0007603c
  DW_CFA_advance_loc: 20 to 00075f4c
  DW_CFA_def_cfa_offset: 144
  DW_CFA_advance_loc: 20 to 00075f60
  DW_CFA_def_cfa: r29 ofs 64
  DW_CFA_offset: r15 at cfa-8
  DW_CFA_offset: r19 at cfa-16
  DW_CFA_offset: r20 at cfa-24
  DW_CFA_offset: r21 at cfa-32
  DW_CFA_offset: r22 at cfa-40
  DW_CFA_offset: r23 at cfa-48
  DW_CFA_offset: r30 at cfa-56
  DW_CFA_offset: r29 at cfa-64
  DW_CFA_advance_loc1: 168 to 00076008
  DW_CFA_def_cfa: r31 ofs 144
  DW_CFA_advance_loc: 20 to 0007601c
  DW_CFA_def_cfa_offset: 0
  DW_CFA_restore: r15
  DW_CFA_restore: r19
  DW_CFA_restore: r20
  DW_CFA_restore: r21
  DW_CFA_restore: r22
  DW_CFA_restore: r23
  DW_CFA_restore: r30
  DW_CFA_restore: r29
  DW_CFA_nop
  DW_CFA_nop
  DW_CFA_nop
  DW_CFA_nop
  DW_CFA_nop
  DW_CFA_nop

00000a08 0000005c 00000a0c FDE cie=00000000 pc=0007603c..00076158
  DW_CFA_advance_loc: 4 to 00076040
  DW_CFA_def_cfa_offset: 48
  DW_CFA_advance_loc: 12 to 0007604c
  DW_CFA_def_cfa: r29 ofs 48
  DW_CFA_offset: r19 at cfa-8
  DW_CFA_offset: r20 at cfa-16
  DW_CFA_offset: r21 at cfa-32
  DW_CFA_offset: r30 at cfa-40
  DW_CFA_offset: r29 at cfa-48
  DW_CFA_remember_state
  DW_CFA_advance_loc1: 92 to 000760a8
  DW_CFA_def_cfa: r31 ofs 48
  DW_CFA_advance_loc: 12 to 000760b4
  DW_CFA_def_cfa_offset: 0
  DW_CFA_restore: r19
  DW_CFA_restore: r20
  DW_CFA_restore: r21
  DW_CFA_restore: r30
  DW_CFA_restore: r29
  DW_CFA_advance_loc: 4 to 000760b8
  DW_CFA_restore_state
  DW_CFA_remember_state
  DW_CFA_advance_loc: 40 to 000760e0
  DW_CFA_def_cfa: r31 ofs 48
  DW_CFA_advance_loc: 12 to 000760ec
  DW_CFA_def_cfa_offset: 0
  DW_CFA_restore: r19
  DW_CFA_restore: r20
  DW_CFA_restore: r21
  DW_CFA_restore: r30
  DW_CFA_restore: r29
  DW_CFA_advance_loc: 4 to 000760f0
  DW_CFA_restore_state
  DW_CFA_remember_state
  DW_CFA_advance_loc: 16 to 00076100
  DW_CFA_def_cfa: r31 ofs 48
  DW_CFA_advance_loc: 12 to 0007610c
  DW_CFA_def_cfa_offset: 0
  DW_CFA_restore: r19
  DW_CFA_restore: r20
  DW_CFA_restore: r21
  DW_CFA_restore: r30
  DW_CFA_restore: r29
  DW_CFA_advance_loc: 4 to 00076110
  DW_CFA_restore_state
  DW_CFA_advance_loc: 56 to 00076148
  DW_CFA_def_cfa: r31 ofs 48
  DW_CFA_advance_loc: 12 to 00076154
  DW_CFA_def_cfa_offset: 0
  DW_CFA_restore: r19
  DW_CFA_restore: r20
  DW_CFA_restore: r21
  DW_CFA_restore: r30
  DW_CFA_restore: r29
  DW_CFA_nop
  DW_CFA_nop
  DW_CFA_nop
  DW_CFA_nop

00000a68 00000044 00000a6c FDE cie=00000000 pc=00076158..00076290
  DW_CFA_advance_loc: 4 to 0007615c
  DW_CFA_def_cfa_offset: 96
  DW_CFA_advance_loc: 24 to 00076174
  DW_CFA_def_cfa: r29 ofs 96
  DW_CFA_offset: r19 at cfa-8
  DW_CFA_offset: r20 at cfa-16
  DW_CFA_offset: r21 at cfa-24
  DW_CFA_offset: r22 at cfa-32
  DW_CFA_offset: r23 at cfa-40
  DW_CFA_offset: r24 at cfa-48
  DW_CFA_offset: r25 at cfa-56
  DW_CFA_offset: r26 at cfa-64
  DW_CFA_offset: r27 at cfa-72
  DW_CFA_offset: r28 at cfa-80
  DW_CFA_offset: r30 at cfa-88
  DW_CFA_offset: r29 at cfa-96
  DW_CFA_remember_state
  DW_CFA_advance_loc1: 76 to 000761c0
  DW_CFA_def_cfa: r31 ofs 96
  DW_CFA_advance_loc: 24 to 000761d8
  DW_CFA_def_cfa_offset: 0
  DW_CFA_restore: r19
  DW_CFA_restore: r20
  DW_CFA_restore: r21
  DW_CFA_restore: r22
  DW_CFA_restore: r23
  DW_CFA_restore: r24
  DW_CFA_restore: r25
  DW_CFA_restore: r26
  DW_CFA_restore: r27
  DW_CFA_restore: r28
  DW_CFA_restore: r30
  DW_CFA_restore: r29
  DW_CFA_advance_loc: 4 to 000761dc
  DW_CFA_restore_state
  DW_CFA_nop

00000ab0 00000044 00000ab4 FDE cie=00000000 pc=00076290..00076388
  DW_CFA_advance_loc: 4 to 00076294
  DW_CFA_def_cfa_offset: 64
  DW_CFA_advance_loc: 16 to 000762a4
  DW_CFA_def_cfa: r29 ofs 48
  DW_CFA_offset: r19 at cfa-8
  DW_CFA_offset: r20 at cfa-16
  DW_CFA_offset: r21 at cfa-24
  DW_CFA_offset: r22 at cfa-32
  DW_CFA_offset: r30 at cfa-40
  DW_CFA_offset: r29 at cfa-48
  DW_CFA_remember_state
  DW_CFA_advance_loc1: 144 to 00076334
  DW_CFA_def_cfa: r31 ofs 64
  DW_CFA_advance_loc: 16 to 00076344
  DW_CFA_def_cfa_offset: 0
  DW_CFA_restore: r19
  DW_CFA_restore: r20
  DW_CFA_restore: r21
  DW_CFA_restore: r22
  DW_CFA_restore: r30
  DW_CFA_restore: r29
  DW_CFA_advance_loc: 4 to 00076348
  DW_CFA_restore_state
  DW_CFA_advance_loc: 44 to 00076374
  DW_CFA_def_cfa: r31 ofs 64
  DW_CFA_advance_loc: 16 to 00076384
  DW_CFA_def_cfa_offset: 0
  DW_CFA_restore: r19
  DW_CFA_restore: r20
  DW_CFA_restore: r21
  DW_CFA_restore: r22
  DW_CFA_restore: r30
  DW_CFA_restore: r29
  DW_CFA_nop
  DW_CFA_nop
  DW_CFA_nop
  DW_CFA_nop
  DW_CFA_nop
  DW_CFA_nop

00000af8 00000044 00000afc FDE cie=00000000 pc=00076388..000767d0
  DW_CFA_advance_loc: 20 to 0007639c
  DW_CFA_def_cfa_offset: 96
  DW_CFA_advance_loc: 24 to 000763b4
  DW_CFA_def_cfa: r29 ofs 96
  DW_CFA_offset: r15 at cfa-8
  DW_CFA_offset: r19 at cfa-16
  DW_CFA_offset: r20 at cfa-24
  DW_CFA_offset: r21 at cfa-32
  DW_CFA_offset: r22 at cfa-40
  DW_CFA_offset: r23 at cfa-48
  DW_CFA_offset: r24 at cfa-56
  DW_CFA_offset: r25 at cfa-64
  DW_CFA_offset: r28 at cfa-80
  DW_CFA_offset: r30 at cfa-88
  DW_CFA_offset: r29 at cfa-96
  DW_CFA_remember_state
  DW_CFA_advance_loc1: 240 to 000764a4
  DW_CFA_def_cfa: r31 ofs 96
  DW_CFA_advance_loc: 24 to 000764bc
  DW_CFA_def_cfa_offset: 0
  DW_CFA_restore: r15
  DW_CFA_restore: r19
  DW_CFA_restore: r20
  DW_CFA_restore: r21
  DW_CFA_restore: r22
  DW_CFA_restore: r23
  DW_CFA_restore: r24
  DW_CFA_restore: r25
  DW_CFA_restore: r28
  DW_CFA_restore: r30
  DW_CFA_restore: r29
  DW_CFA_advance_loc: 32 to 000764dc
  DW_CFA_restore_state
  DW_CFA_nop
  DW_CFA_nop
  DW_CFA_nop
  DW_CFA_nop

00000b40 00000074 00000b44 FDE cie=00000000 pc=000767d0..00076910
  DW_CFA_advance_loc: 4 to 000767d4
  DW_CFA_def_cfa_offset: 48
  DW_CFA_advance_loc: 12 to 000767e0
  DW_CFA_def_cfa: r29 ofs 48
  DW_CFA_offset: r19 at cfa-8
  DW_CFA_offset: r20 at cfa-16
  DW_CFA_offset: r21 at cfa-24
  DW_CFA_offset: r22 at cfa-32
  DW_CFA_offset: r30 at cfa-40
  DW_CFA_offset: r29 at cfa-48
  DW_CFA_remember_state
  DW_CFA_advance_loc1: 104 to 00076848
  DW_CFA_def_cfa: r31 ofs 48
  DW_CFA_advance_loc: 12 to 00076854
  DW_CFA_def_cfa_offset: 0
  DW_CFA_restore: r19
  DW_CFA_restore: r20
  DW_CFA_restore: r21
  DW_CFA_restore: r22
  DW_CFA_restore: r30
  DW_CFA_restore: r29
  DW_CFA_advance_loc: 4 to 00076858
  DW_CFA_restore_state
  DW_CFA_remember_state
  DW_CFA_advance_loc: 16 to 00076868
  DW_CFA_def_cfa: r31 ofs 48
  DW_CFA_advance_loc: 12 to 00076874
  DW_CFA_def_cfa_offset: 0
  DW_CFA_restore: r19
  DW_CFA_restore: r20
  DW_CFA_restore: r21
  DW_CFA_restore: r22
  DW_CFA_restore: r30
  DW_CFA_restore: r29
  DW_CFA_advance_loc: 4 to 00076878
  DW_CFA_restore_state
  DW_CFA_remember_state
  DW_CFA_advance_loc1: 64 to 000768b8
  DW_CFA_def_cfa: r31 ofs 48
  DW_CFA_advance_loc: 12 to 000768c4
  DW_CFA_def_cfa_offset: 0
  DW_CFA_restore: r19
  DW_CFA_restore: r20
  DW_CFA_restore: r21
  DW_CFA_restore: r22
  DW_CFA_restore: r30
  DW_CFA_restore: r29
  DW_CFA_advance_loc: 4 to 000768c8
  DW_CFA_restore_state
  DW_CFA_remember_state
  DW_CFA_advance_loc: 12 to 000768d4
  DW_CFA_def_cfa: r31 ofs 48
  DW_CFA_advance_loc: 12 to 000768e0
  DW_CFA_def_cfa_offset: 0
  DW_CFA_restore: r19
  DW_CFA_restore: r20
  DW_CFA_restore: r21
  DW_CFA_restore: r22
  DW_CFA_restore: r30
  DW_CFA_restore: r29
  DW_CFA_advance_loc: 4 to 000768e4
  DW_CFA_restore_state
  DW_CFA_advance_loc: 28 to 00076900
  DW_CFA_def_cfa: r31 ofs 48
  DW_CFA_advance_loc: 12 to 0007690c
  DW_CFA_def_cfa_offset: 0
  DW_CFA_restore: r19
  DW_CFA_restore: r20
  DW_CFA_restore: r21
  DW_CFA_restore: r22
  DW_CFA_restore: r30
  DW_CFA_restore: r29
  DW_CFA_nop
  DW_CFA_nop
  DW_CFA_nop
  DW_CFA_nop
  DW_CFA_nop

00000bb8 0000004c 00000bbc FDE cie=00000000 pc=00076910..00077208
  DW_CFA_advance_loc: 20 to 00076924
  DW_CFA_def_cfa_offset: 320
  DW_CFA_advance_loc: 32 to 00076944
  DW_CFA_def_cfa: r29 ofs 112
  DW_CFA_offset: r15 at cfa-8
  DW_CFA_offset: r19 at cfa-16
  DW_CFA_offset: r20 at cfa-24
  DW_CFA_offset: r21 at cfa-32
  DW_CFA_offset: r22 at cfa-40
  DW_CFA_offset: r23 at cfa-48
  DW_CFA_offset: r24 at cfa-56
  DW_CFA_offset: r25 at cfa-64
  DW_CFA_offset: r26 at cfa-72
  DW_CFA_offset: r27 at cfa-80
  DW_CFA_offset: r28 at cfa-96
  DW_CFA_offset: r30 at cfa-104
  DW_CFA_offset: r29 at cfa-112
  DW_CFA_remember_state
  DW_CFA_advance_loc2: 2096 to 00077174
  DW_CFA_def_cfa: r31 ofs 320
  DW_CFA_advance_loc: 32 to 00077194
  DW_CFA_def_cfa_offset: 0
  DW_CFA_restore: r15
  DW_CFA_restore: r19
  DW_CFA_restore: r20
  DW_CFA_restore: r21
  DW_CFA_restore: r22
  DW_CFA_restore: r23
  DW_CFA_restore: r24
  DW_CFA_restore: r25
  DW_CFA_restore: r26
  DW_CFA_restore: r27
  DW_CFA_restore: r28
  DW_CFA_restore: r30
  DW_CFA_restore: r29
  DW_CFA_advance_loc: 32 to 000771b4
  DW_CFA_restore_state
  DW_CFA_nop
  DW_CFA_nop
  DW_CFA_nop

00000c08 0000004c 00000c0c FDE cie=00000000 pc=00077208..00077798
  DW_CFA_advance_loc: 20 to 0007721c
  DW_CFA_def_cfa_offset: 160
  DW_CFA_advance_loc: 32 to 0007723c
  DW_CFA_def_cfa: r29 ofs 112
  DW_CFA_offset: r15 at cfa-8
  DW_CFA_offset: r19 at cfa-16
  DW_CFA_offset: r20 at cfa-24
  DW_CFA_offset: r21 at cfa-32
  DW_CFA_offset: r22 at cfa-40
  DW_CFA_offset: r23 at cfa-48
  DW_CFA_offset: r24 at cfa-56
  DW_CFA_offset: r25 at cfa-64
  DW_CFA_offset: r26 at cfa-72
  DW_CFA_offset: r27 at cfa-80
  DW_CFA_offset: r28 at cfa-96
  DW_CFA_offset: r30 at cfa-104
  DW_CFA_offset: r29 at cfa-112
  DW_CFA_remember_state
  DW_CFA_advance_loc1: 148 to 000772d0
  DW_CFA_def_cfa: r31 ofs 160
  DW_CFA_advance_loc: 32 to 000772f0
  DW_CFA_def_cfa_offset: 0
  DW_CFA_restore: r15
  DW_CFA_restore: r19
  DW_CFA_restore: r20
  DW_CFA_restore: r21
  DW_CFA_restore: r22
  DW_CFA_restore: r23
  DW_CFA_restore: r24
  DW_CFA_restore: r25
  DW_CFA_restore: r26
  DW_CFA_restore: r27
  DW_CFA_restore: r28
  DW_CFA_restore: r30
  DW_CFA_restore: r29
  DW_CFA_advance_loc: 32 to 00077310
  DW_CFA_restore_state
  DW_CFA_nop
  DW_CFA_nop
  DW_CFA_nop
  DW_CFA_nop

00000c58 00000044 00000c5c FDE cie=00000000 pc=00077798..00077abc
  DW_CFA_advance_loc: 4 to 0007779c
  DW_CFA_def_cfa_offset: 144
  DW_CFA_advance_loc: 28 to 000777b8
  DW_CFA_def_cfa: r29 ofs 96
  DW_CFA_offset: r19 at cfa-8
  DW_CFA_offset: r20 at cfa-16
  DW_CFA_offset: r21 at cfa-24
  DW_CFA_offset: r22 at cfa-32
  DW_CFA_offset: r23 at cfa-40
  DW_CFA_offset: r24 at cfa-48
  DW_CFA_offset: r25 at cfa-56
  DW_CFA_offset: r26 at cfa-64
  DW_CFA_offset: r27 at cfa-72
  DW_CFA_offset: r28 at cfa-80
  DW_CFA_offset: r30 at cfa-88
  DW_CFA_offset: r29 at cfa-96
  DW_CFA_advance_loc2: 740 to 00077a9c
  DW_CFA_def_cfa: r31 ofs 144
  DW_CFA_advance_loc: 28 to 00077ab8
  DW_CFA_def_cfa_offset: 0
  DW_CFA_restore: r19
  DW_CFA_restore: r20
  DW_CFA_restore: r21
  DW_CFA_restore: r22
  DW_CFA_restore: r23
  DW_CFA_restore: r24
  DW_CFA_restore: r25
  DW_CFA_restore: r26
  DW_CFA_restore: r27
  DW_CFA_restore: r28
  DW_CFA_restore: r30
  DW_CFA_restore: r29
  DW_CFA_nop

00000ca0 00000034 00000ca4 FDE cie=00000000 pc=00077abc..00077bb0
  DW_CFA_advance_loc: 20 to 00077ad0
  DW_CFA_def_cfa_offset: 96
  DW_CFA_advance_loc: 20 to 00077ae4
  DW_CFA_def_cfa: r29 ofs 64
  DW_CFA_offset: r15 at cfa-8
  DW_CFA_offset: r19 at cfa-16
  DW_CFA_offset: r20 at cfa-24
  DW_CFA_offset: r21 at cfa-32
  DW_CFA_offset: r22 at cfa-48
  DW_CFA_offset: r30 at cfa-56
  DW_CFA_offset: r29 at cfa-64
  DW_CFA_advance_loc1: 152 to 00077b7c
  DW_CFA_def_cfa: r31 ofs 96
  DW_CFA_advance_loc: 20 to 00077b90
  DW_CFA_def_cfa_offset: 0
  DW_CFA_restore: r15
  DW_CFA_restore: r19
  DW_CFA_restore: r20
  DW_CFA_restore: r21
  DW_CFA_restore: r22
  DW_CFA_restore: r30
  DW_CFA_restore: r29
  DW_CFA_nop
  DW_CFA_nop
  DW_CFA_nop

00000cd8 00000034 00000cdc FDE cie=00000000 pc=00077bb0..00077c84
  DW_CFA_advance_loc: 20 to 00077bc4
  DW_CFA_def_cfa_offset: 128
  DW_CFA_advance_loc: 16 to 00077bd4
  DW_CFA_def_cfa: r29 ofs 48
  DW_CFA_offset: r15 at cfa-8
  DW_CFA_offset: r19 at cfa-16
  DW_CFA_offset: r20 at cfa-24
  DW_CFA_offset: r21 at cfa-32
  DW_CFA_offset: r30 at cfa-40
  DW_CFA_offset: r29 at cfa-48
  DW_CFA_advance_loc1: 128 to 00077c54
  DW_CFA_def_cfa: r31 ofs 128
  DW_CFA_advance_loc: 16 to 00077c64
  DW_CFA_def_cfa_offset: 0
  DW_CFA_restore: r15
  DW_CFA_restore: r19
  DW_CFA_restore: r20
  DW_CFA_restore: r21
  DW_CFA_restore: r30
  DW_CFA_restore: r29
  DW_CFA_nop
  DW_CFA_nop
  DW_CFA_nop
  DW_CFA_nop

00000d10 0000005c 00000d14 FDE cie=00000000 pc=00077c84..00077d68
  DW_CFA_advance_loc: 4 to 00077c88
  DW_CFA_def_cfa_offset: 48
  DW_CFA_advance_loc: 12 to 00077c94
  DW_CFA_def_cfa: r29 ofs 48
  DW_CFA_offset: r19 at cfa-8
  DW_CFA_offset: r20 at cfa-16
  DW_CFA_offset: r21 at cfa-32
  DW_CFA_offset: r30 at cfa-40
  DW_CFA_offset: r29 at cfa-48
  DW_CFA_remember_state
  DW_CFA_advance_loc1: 112 to 00077d04
  DW_CFA_def_cfa: r31 ofs 48
  DW_CFA_advance_loc: 12 to 00077d10
  DW_CFA_def_cfa_offset: 0
  DW_CFA_restore: r19
  DW_CFA_restore: r20
  DW_CFA_restore: r21
  DW_CFA_restore: r30
  DW_CFA_restore: r29
  DW_CFA_advance_loc: 4 to 00077d14
  DW_CFA_restore_state
  DW_CFA_remember_state
  DW_CFA_advance_loc: 36 to 00077d38
  DW_CFA_def_cfa: r31 ofs 48
  DW_CFA_advance_loc: 12 to 00077d44
  DW_CFA_def_cfa_offset: 0
  DW_CFA_restore: r19
  DW_CFA_restore: r20
  DW_CFA_restore: r21
  DW_CFA_restore: r30
  DW_CFA_restore: r29
  DW_CFA_advance_loc: 4 to 00077d48
  DW_CFA_restore_state
  DW_CFA_remember_state
  DW_CFA_def_cfa: r31 ofs 48
  DW_CFA_advance_loc: 12 to 00077d54
  DW_CFA_def_cfa_offset: 0
  DW_CFA_restore: r19
  DW_CFA_restore: r20
  DW_CFA_restore: r21
  DW_CFA_restore: r30
  DW_CFA_restore: r29
  DW_CFA_advance_loc: 4 to 00077d58
  DW_CFA_restore_state
  DW_CFA_def_cfa: r31 ofs 48
  DW_CFA_advance_loc: 12 to 00077d64
  DW_CFA_def_cfa_offset: 0
  DW_CFA_restore: r19
  DW_CFA_restore: r20
  DW_CFA_restore: r21
  DW_CFA_restore: r30
  DW_CFA_restore: r29
  DW_CFA_nop
  DW_CFA_nop
  DW_CFA_nop
  DW_CFA_nop
  DW_CFA_nop
  DW_CFA_nop

00000d70 0000003c 00000d74 FDE cie=00000000 pc=00077d68..00077de0
  DW_CFA_advance_loc: 4 to 00077d6c
  DW_CFA_def_cfa_offset: 48
  DW_CFA_advance_loc: 12 to 00077d78
  DW_CFA_def_cfa: r29 ofs 48
  DW_CFA_offset: r19 at cfa-8
  DW_CFA_offset: r20 at cfa-16
  DW_CFA_offset: r21 at cfa-32
  DW_CFA_offset: r30 at cfa-40
  DW_CFA_offset: r29 at cfa-48
  DW_CFA_remember_state
  DW_CFA_advance_loc1: 64 to 00077db8
  DW_CFA_def_cfa: r31 ofs 48
  DW_CFA_advance_loc: 12 to 00077dc4
  DW_CFA_def_cfa_offset: 0
  DW_CFA_restore: r19
  DW_CFA_restore: r20
  DW_CFA_restore: r21
  DW_CFA_restore: r30
  DW_CFA_restore: r29
  DW_CFA_advance_loc: 4 to 00077dc8
  DW_CFA_restore_state
  DW_CFA_advance_loc: 8 to 00077dd0
  DW_CFA_def_cfa: r31 ofs 48
  DW_CFA_advance_loc: 12 to 00077ddc
  DW_CFA_def_cfa_offset: 0
  DW_CFA_restore: r19
  DW_CFA_restore: r20
  DW_CFA_restore: r21
  DW_CFA_restore: r30
  DW_CFA_restore: r29
  DW_CFA_nop
  DW_CFA_nop

00000db0 00000034 00000db4 FDE cie=00000000 pc=00077de0..00077ebc
  DW_CFA_advance_loc: 4 to 00077de4
  DW_CFA_def_cfa_offset: 48
  DW_CFA_advance_loc: 12 to 00077df0
  DW_CFA_def_cfa: r29 ofs 48
  DW_CFA_offset: r19 at cfa-8
  DW_CFA_offset: r20 at cfa-16
  DW_CFA_offset: r21 at cfa-24
  DW_CFA_offset: r22 at cfa-32
  DW_CFA_offset: r30 at cfa-40
  DW_CFA_offset: r29 at cfa-48
  DW_CFA_advance_loc1: 188 to 00077eac
  DW_CFA_def_cfa: r31 ofs 48
  DW_CFA_advance_loc: 12 to 00077eb8
  DW_CFA_def_cfa_offset: 0
  DW_CFA_restore: r19
  DW_CFA_restore: r20
  DW_CFA_restore: r21
  DW_CFA_restore: r22
  DW_CFA_restore: r30
  DW_CFA_restore: r29
  DW_CFA_nop
  DW_CFA_nop
  DW_CFA_nop
  DW_CFA_nop
  DW_CFA_nop
  DW_CFA_nop

00000de8 0000003c 00000dec FDE cie=00000000 pc=00077ebc..00077f90
  DW_CFA_advance_loc: 4 to 00077ec0
  DW_CFA_def_cfa_offset: 32
  DW_CFA_advance_loc: 8 to 00077ec8
  DW_CFA_def_cfa: r29 ofs 32
  DW_CFA_offset: r19 at cfa-8
  DW_CFA_offset: r20 at cfa-16
  DW_CFA_offset: r30 at cfa-24
  DW_CFA_offset: r29 at cfa-32
  DW_CFA_remember_state
  DW_CFA_advance_loc1: 176 to 00077f78
  DW_CFA_def_cfa: r31 ofs 32
  DW_CFA_advance_loc: 8 to 00077f80
  DW_CFA_def_cfa_offset: 0
  DW_CFA_restore: r19
  DW_CFA_restore: r20
  DW_CFA_restore: r30
  DW_CFA_restore: r29
  DW_CFA_advance_loc: 4 to 00077f84
  DW_CFA_restore_state
  DW_CFA_def_cfa: r31 ofs 32
  DW_CFA_advance_loc: 8 to 00077f8c
  DW_CFA_def_cfa_offset: 0
  DW_CFA_restore: r19
  DW_CFA_restore: r20
  DW_CFA_restore: r30
  DW_CFA_restore: r29
  DW_CFA_nop
  DW_CFA_nop
  DW_CFA_nop
  DW_CFA_nop
  DW_CFA_nop
  DW_CFA_nop
  DW_CFA_nop

00000e28 00000034 00000e2c FDE cie=00000000 pc=00077f90..00078070
  DW_CFA_advance_loc: 4 to 00077f94
  DW_CFA_def_cfa_offset: 32
  DW_CFA_advance_loc: 8 to 00077f9c
  DW_CFA_def_cfa: r29 ofs 32
  DW_CFA_offset: r19 at cfa-16
  DW_CFA_offset: r30 at cfa-24
  DW_CFA_offset: r29 at cfa-32
  DW_CFA_remember_state
  DW_CFA_advance_loc1: 140 to 00078028
  DW_CFA_def_cfa: r31 ofs 32
  DW_CFA_advance_loc: 8 to 00078030
  DW_CFA_def_cfa_offset: 0
  DW_CFA_restore: r19
  DW_CFA_restore: r30
  DW_CFA_restore: r29
  DW_CFA_advance_loc: 4 to 00078034
  DW_CFA_restore_state
  DW_CFA_advance_loc: 48 to 00078064
  DW_CFA_def_cfa: r31 ofs 32
  DW_CFA_advance_loc: 8 to 0007806c
  DW_CFA_def_cfa_offset: 0
  DW_CFA_restore: r19
  DW_CFA_restore: r30
  DW_CFA_restore: r29
  DW_CFA_nop
  DW_CFA_nop

00000e60 00000014 00000e64 FDE cie=00000000 pc=00078070..000780ec
  DW_CFA_nop
  DW_CFA_nop
  DW_CFA_nop
  DW_CFA_nop
  DW_CFA_nop
  DW_CFA_nop
  DW_CFA_nop

00000e78 0000004c 00000e7c FDE cie=00000000 pc=000780ec..00078b24
  DW_CFA_advance_loc: 20 to 00078100
  DW_CFA_def_cfa_offset: 112
  DW_CFA_advance_loc: 28 to 0007811c
  DW_CFA_def_cfa: r29 ofs 112
  DW_CFA_offset: r15 at cfa-8
  DW_CFA_offset: r19 at cfa-16
  DW_CFA_offset: r20 at cfa-24
  DW_CFA_offset: r21 at cfa-32
  DW_CFA_offset: r22 at cfa-40
  DW_CFA_offset: r23 at cfa-48
  DW_CFA_offset: r24 at cfa-56
  DW_CFA_offset: r25 at cfa-64
  DW_CFA_offset: r26 at cfa-72
  DW_CFA_offset: r27 at cfa-80
  DW_CFA_offset: r28 at cfa-96
  DW_CFA_offset: r30 at cfa-104
  DW_CFA_offset: r29 at cfa-112
  DW_CFA_remember_state
  DW_CFA_advance_loc2: 2456 to 00078ab4
  DW_CFA_def_cfa: r31 ofs 112
  DW_CFA_advance_loc: 28 to 00078ad0
  DW_CFA_def_cfa_offset: 0
  DW_CFA_restore: r15
  DW_CFA_restore: r19
  DW_CFA_restore: r20
  DW_CFA_restore: r21
  DW_CFA_restore: r22
  DW_CFA_restore: r23
  DW_CFA_restore: r24
  DW_CFA_restore: r25
  DW_CFA_restore: r26
  DW_CFA_restore: r27
  DW_CFA_restore: r28
  DW_CFA_restore: r30
  DW_CFA_restore: r29
  DW_CFA_advance_loc: 32 to 00078af0
  DW_CFA_restore_state
  DW_CFA_nop
  DW_CFA_nop
  DW_CFA_nop
  DW_CFA_nop
  DW_CFA_nop

00000ec8 00000044 00000ecc FDE cie=00000000 pc=00078b24..00078d8c
  DW_CFA_advance_loc: 4 to 00078b28
  DW_CFA_def_cfa_offset: 96
  DW_CFA_advance_loc: 24 to 00078b40
  DW_CFA_def_cfa: r29 ofs 96
  DW_CFA_offset: r19 at cfa-8
  DW_CFA_offset: r20 at cfa-16
  DW_CFA_offset: r21 at cfa-24
  DW_CFA_offset: r22 at cfa-32
  DW_CFA_offset: r23 at cfa-40
  DW_CFA_offset: r24 at cfa-48
  DW_CFA_offset: r25 at cfa-56
  DW_CFA_offset: r26 at cfa-64
  DW_CFA_offset: r27 at cfa-80
  DW_CFA_offset: r30 at cfa-88
  DW_CFA_offset: r29 at cfa-96
  DW_CFA_remember_state
  DW_CFA_advance_loc2: 544 to 00078d60
  DW_CFA_def_cfa: r31 ofs 96
  DW_CFA_advance_loc: 24 to 00078d78
  DW_CFA_def_cfa_offset: 0
  DW_CFA_restore: r19
  DW_CFA_restore: r20
  DW_CFA_restore: r21
  DW_CFA_restore: r22
  DW_CFA_restore: r23
  DW_CFA_restore: r24
  DW_CFA_restore: r25
  DW_CFA_restore: r26
  DW_CFA_restore: r27
  DW_CFA_restore: r30
  DW_CFA_restore: r29
  DW_CFA_advance_loc: 4 to 00078d7c
  DW_CFA_restore_state
  DW_CFA_nop
  DW_CFA_nop
  DW_CFA_nop

00000f10 00000034 00000f14 FDE cie=00000000 pc=00078d8c..00078f1c
  DW_CFA_advance_loc: 20 to 00078da0
  DW_CFA_def_cfa_offset: 352
  DW_CFA_advance_loc: 16 to 00078db0
  DW_CFA_def_cfa: r29 ofs 48
  DW_CFA_offset: r15 at cfa-8
  DW_CFA_offset: r19 at cfa-16
  DW_CFA_offset: r28 at cfa-32
  DW_CFA_offset: r30 at cfa-40
  DW_CFA_offset: r29 at cfa-48
  DW_CFA_remember_state
  DW_CFA_advance_loc2: 284 to 00078ecc
  DW_CFA_def_cfa: r31 ofs 352
  DW_CFA_advance_loc: 16 to 00078edc
  DW_CFA_def_cfa_offset: 0
  DW_CFA_restore: r15
  DW_CFA_restore: r19
  DW_CFA_restore: r28
  DW_CFA_restore: r30
  DW_CFA_restore: r29
  DW_CFA_advance_loc: 32 to 00078efc
  DW_CFA_restore_state
  DW_CFA_nop
  DW_CFA_nop
  DW_CFA_nop

00000f48 0000004c 00000f4c FDE cie=00000000 pc=00078f1c..000790f0
  DW_CFA_advance_loc: 20 to 00078f30
  DW_CFA_def_cfa_offset: 256
  DW_CFA_advance_loc: 32 to 00078f50
  DW_CFA_def_cfa: r29 ofs 112
  DW_CFA_offset: r15 at cfa-8
  DW_CFA_offset: r19 at cfa-16
  DW_CFA_offset: r20 at cfa-24
  DW_CFA_offset: r21 at cfa-32
  DW_CFA_offset: r22 at cfa-40
  DW_CFA_offset: r23 at cfa-48
  DW_CFA_offset: r24 at cfa-56
  DW_CFA_offset: r25 at cfa-64
  DW_CFA_offset: r26 at cfa-72
  DW_CFA_offset: r27 at cfa-80
  DW_CFA_offset: r28 at cfa-96
  DW_CFA_offset: r30 at cfa-104
  DW_CFA_offset: r29 at cfa-112
  DW_CFA_advance_loc2: 352 to 000790b0
  DW_CFA_def_cfa: r31 ofs 256
  DW_CFA_advance_loc: 32 to 000790d0
  DW_CFA_def_cfa_offset: 0
  DW_CFA_restore: r15
  DW_CFA_restore: r19
  DW_CFA_restore: r20
  DW_CFA_restore: r21
  DW_CFA_restore: r22
  DW_CFA_restore: r23
  DW_CFA_restore: r24
  DW_CFA_restore: r25
  DW_CFA_restore: r26
  DW_CFA_restore: r27
  DW_CFA_restore: r28
  DW_CFA_restore: r30
  DW_CFA_restore: r29
  DW_CFA_nop
  DW_CFA_nop
  DW_CFA_nop
  DW_CFA_nop
  DW_CFA_nop
  DW_CFA_nop

00000f98 00000044 00000f9c FDE cie=00000000 pc=000790f0..00079278
  DW_CFA_advance_loc: 20 to 00079104
  DW_CFA_def_cfa_offset: 96
  DW_CFA_advance_loc: 24 to 0007911c
  DW_CFA_def_cfa: r29 ofs 96
  DW_CFA_offset: r15 at cfa-8
  DW_CFA_offset: r19 at cfa-16
  DW_CFA_offset: r20 at cfa-24
  DW_CFA_offset: r21 at cfa-32
  DW_CFA_offset: r22 at cfa-40
  DW_CFA_offset: r23 at cfa-48
  DW_CFA_offset: r24 at cfa-56
  DW_CFA_offset: r25 at cfa-64
  DW_CFA_offset: r28 at cfa-80
  DW_CFA_offset: r30 at cfa-88
  DW_CFA_offset: r29 at cfa-96
  DW_CFA_advance_loc2: 292 to 00079240
  DW_CFA_def_cfa: r31 ofs 96
  DW_CFA_advance_loc: 24 to 00079258
  DW_CFA_def_cfa_offset: 0
  DW_CFA_restore: r15
  DW_CFA_restore: r19
  DW_CFA_restore: r20
  DW_CFA_restore: r21
  DW_CFA_restore: r22
  DW_CFA_restore: r23
  DW_CFA_restore: r24
  DW_CFA_restore: r25
  DW_CFA_restore: r28
  DW_CFA_restore: r30
  DW_CFA_restore: r29
  DW_CFA_nop
  DW_CFA_nop
  DW_CFA_nop
  DW_CFA_nop
  DW_CFA_nop
  DW_CFA_nop

00000fe0 00000044 00000fe4 FDE cie=00000000 pc=00079278..000793e8
  DW_CFA_advance_loc: 4 to 0007927c
  DW_CFA_def_cfa_offset: 112
  DW_CFA_advance_loc: 28 to 00079298
  DW_CFA_def_cfa: r29 ofs 96
  DW_CFA_offset: r19 at cfa-8
  DW_CFA_offset: r20 at cfa-16
  DW_CFA_offset: r21 at cfa-24
  DW_CFA_offset: r22 at cfa-32
  DW_CFA_offset: r23 at cfa-40
  DW_CFA_offset: r24 at cfa-48
  DW_CFA_offset: r25 at cfa-56
  DW_CFA_offset: r26 at cfa-64
  DW_CFA_offset: r27 at cfa-72
  DW_CFA_offset: r28 at cfa-80
  DW_CFA_offset: r30 at cfa-88
  DW_CFA_offset: r29 at cfa-96
  DW_CFA_remember_state
  DW_CFA_advance_loc1: 72 to 000792e0
  DW_CFA_def_cfa: r31 ofs 112
  DW_CFA_advance_loc: 28 to 000792fc
  DW_CFA_def_cfa_offset: 0
  DW_CFA_restore: r19
  DW_CFA_restore: r20
  DW_CFA_restore: r21
  DW_CFA_restore: r22
  DW_CFA_restore: r23
  DW_CFA_restore: r24
  DW_CFA_restore: r25
  DW_CFA_restore: r26
  DW_CFA_restore: r27
  DW_CFA_restore: r28
  DW_CFA_restore: r30
  DW_CFA_restore: r29
  DW_CFA_advance_loc: 4 to 00079300
  DW_CFA_restore_state
  DW_CFA_nop

00001028 0000005c 0000102c FDE cie=00000000 pc=000793e8..000794ec
  DW_CFA_advance_loc: 4 to 000793ec
  DW_CFA_def_cfa_offset: 64
  DW_CFA_advance_loc: 16 to 000793fc
  DW_CFA_def_cfa: r29 ofs 64
  DW_CFA_offset: r19 at cfa-8
  DW_CFA_offset: r20 at cfa-16
  DW_CFA_offset: r21 at cfa-24
  DW_CFA_offset: r22 at cfa-32
  DW_CFA_offset: r23 at cfa-40
  DW_CFA_offset: r24 at cfa-48
  DW_CFA_offset: r30 at cfa-56
  DW_CFA_offset: r29 at cfa-64
  DW_CFA_remember_state
  DW_CFA_advance_loc: 8 to 00079404
  DW_CFA_def_cfa: r31 ofs 64
  DW_CFA_advance_loc: 16 to 00079414
  DW_CFA_def_cfa_offset: 0
  DW_CFA_restore: r19
  DW_CFA_restore: r20
  DW_CFA_restore: r21
  DW_CFA_restore: r22
  DW_CFA_restore: r23
  DW_CFA_restore: r24
  DW_CFA_restore: r30
  DW_CFA_restore: r29
  DW_CFA_advance_loc: 4 to 00079418
  DW_CFA_restore_state
  DW_CFA_remember_state
  DW_CFA_advance_loc1: 144 to 000794a8
  DW_CFA_def_cfa: r31 ofs 64
  DW_CFA_advance_loc: 16 to 000794b8
  DW_CFA_def_cfa_offset: 0
  DW_CFA_restore: r19
  DW_CFA_restore: r20
  DW_CFA_restore: r21
  DW_CFA_restore: r22
  DW_CFA_restore: r23
  DW_CFA_restore: r24
  DW_CFA_restore: r30
  DW_CFA_restore: r29
  DW_CFA_advance_loc: 4 to 000794bc
  DW_CFA_restore_state
  DW_CFA_advance_loc: 28 to 000794d8
  DW_CFA_def_cfa: r31 ofs 64
  DW_CFA_advance_loc: 16 to 000794e8
  DW_CFA_def_cfa_offset: 0
  DW_CFA_restore: r19
  DW_CFA_restore: r20
  DW_CFA_restore: r21
  DW_CFA_restore: r22
  DW_CFA_restore: r23
  DW_CFA_restore: r24
  DW_CFA_restore: r30
  DW_CFA_restore: r29
  DW_CFA_nop
  DW_CFA_nop
  DW_CFA_nop
  DW_CFA_nop

00001088 00000064 0000108c FDE cie=00000000 pc=000794ec..000798a4
  DW_CFA_advance_loc: 4 to 000794f0
  DW_CFA_def_cfa_offset: 64
  DW_CFA_advance_loc: 16 to 00079500
  DW_CFA_def_cfa: r29 ofs 64
  DW_CFA_offset: r19 at cfa-8
  DW_CFA_offset: r20 at cfa-16
  DW_CFA_offset: r21 at cfa-24
  DW_CFA_offset: r22 at cfa-32
  DW_CFA_offset: r23 at cfa-40
  DW_CFA_offset: r24 at cfa-48
  DW_CFA_offset: r30 at cfa-56
  DW_CFA_offset: r29 at cfa-64
  DW_CFA_remember_state
  DW_CFA_advance_loc1: 228 to 000795e4
  DW_CFA_def_cfa: r31 ofs 64
  DW_CFA_advance_loc: 16 to 000795f4
  DW_CFA_def_cfa_offset: 0
  DW_CFA_restore: r19
  DW_CFA_restore: r20
  DW_CFA_restore: r21
  DW_CFA_restore: r22
  DW_CFA_restore: r23
  DW_CFA_restore: r24
  DW_CFA_restore: r30
  DW_CFA_restore: r29
  DW_CFA_advance_loc: 4 to 000795f8
  DW_CFA_restore_state
  DW_CFA_remember_state
  DW_CFA_advance_loc: 44 to 00079624
  DW_CFA_def_cfa: r31 ofs 64
  DW_CFA_advance_loc: 16 to 00079634
  DW_CFA_def_cfa_offset: 0
  DW_CFA_restore: r19
  DW_CFA_restore: r20
  DW_CFA_restore: r21
  DW_CFA_restore: r22
  DW_CFA_restore: r23
  DW_CFA_restore: r24
  DW_CFA_restore: r30
  DW_CFA_restore: r29
  DW_CFA_advance_loc: 4 to 00079638
  DW_CFA_restore_state
  DW_CFA_remember_state
  DW_CFA_advance_loc2: 448 to 000797f8
  DW_CFA_def_cfa: r31 ofs 64
  DW_CFA_advance_loc: 16 to 00079808
  DW_CFA_def_cfa_offset: 0
  DW_CFA_restore: r19
  DW_CFA_restore: r20
  DW_CFA_restore: r21
  DW_CFA_restore: r22
  DW_CFA_restore: r23
  DW_CFA_restore: r24
  DW_CFA_restore: r30
  DW_CFA_restore: r29
  DW_CFA_advance_loc: 4 to 0007980c
  DW_CFA_restore_state
  DW_CFA_nop
  DW_CFA_nop
  DW_CFA_nop
  DW_CFA_nop
  DW_CFA_nop
  DW_CFA_nop
  DW_CFA_nop

000010f0 0000002c 000010f4 FDE cie=00000000 pc=000798a4..00079928
  DW_CFA_advance_loc: 4 to 000798a8
  DW_CFA_def_cfa_offset: 48
  DW_CFA_advance_loc: 12 to 000798b4
  DW_CFA_def_cfa: r29 ofs 48
  DW_CFA_offset: r19 at cfa-8
  DW_CFA_offset: r20 at cfa-16
  DW_CFA_offset: r21 at cfa-32
  DW_CFA_offset: r30 at cfa-40
  DW_CFA_offset: r29 at cfa-48
  DW_CFA_advance_loc1: 100 to 00079918
  DW_CFA_def_cfa: r31 ofs 48
  DW_CFA_advance_loc: 12 to 00079924
  DW_CFA_def_cfa_offset: 0
  DW_CFA_restore: r19
  DW_CFA_restore: r20
  DW_CFA_restore: r21
  DW_CFA_restore: r30
  DW_CFA_restore: r29
  DW_CFA_nop

00001120 00000074 00001124 FDE cie=00000000 pc=00079928..00079c9c
  DW_CFA_advance_loc: 20 to 0007993c
  DW_CFA_def_cfa_offset: 400
  DW_CFA_advance_loc: 28 to 00079958
  DW_CFA_def_cfa: r29 ofs 96
  DW_CFA_offset: r15 at cfa-8
  DW_CFA_offset: r19 at cfa-16
  DW_CFA_offset: r20 at cfa-24
  DW_CFA_offset: r21 at cfa-32
  DW_CFA_offset: r22 at cfa-40
  DW_CFA_offset: r23 at cfa-48
  DW_CFA_offset: r24 at cfa-56
  DW_CFA_offset: r25 at cfa-64
  DW_CFA_offset: r28 at cfa-80
  DW_CFA_offset: r30 at cfa-88
  DW_CFA_offset: r29 at cfa-96
  DW_CFA_remember_state
  DW_CFA_advance_loc: 52 to 0007998c
  DW_CFA_def_cfa: r31 ofs 400
  DW_CFA_advance_loc: 28 to 000799a8
  DW_CFA_def_cfa_offset: 0
  DW_CFA_restore: r15
  DW_CFA_restore: r19
  DW_CFA_restore: r20
  DW_CFA_restore: r21
  DW_CFA_restore: r22
  DW_CFA_restore: r23
  DW_CFA_restore: r24
  DW_CFA_restore: r25
  DW_CFA_restore: r28
  DW_CFA_restore: r30
  DW_CFA_restore: r29
  DW_CFA_advance_loc: 4 to 000799ac
  DW_CFA_restore_state
  DW_CFA_remember_state
  DW_CFA_advance_loc: 44 to 000799d8
  DW_CFA_def_cfa: r31 ofs 400
  DW_CFA_advance_loc: 28 to 000799f4
  DW_CFA_def_cfa_offset: 0
  DW_CFA_restore: r15
  DW_CFA_restore: r19
  DW_CFA_restore: r20
  DW_CFA_restore: r21
  DW_CFA_restore: r22
  DW_CFA_restore: r23
  DW_CFA_restore: r24
  DW_CFA_restore: r25
  DW_CFA_restore: r28
  DW_CFA_restore: r30
  DW_CFA_restore: r29
  DW_CFA_advance_loc: 32 to 00079a14
  DW_CFA_restore_state
  DW_CFA_advance_loc2: 616 to 00079c7c
  DW_CFA_def_cfa: r31 ofs 400
  DW_CFA_advance_loc: 28 to 00079c98
  DW_CFA_def_cfa_offset: 0
  DW_CFA_restore: r15
  DW_CFA_restore: r19
  DW_CFA_restore: r20
  DW_CFA_restore: r21
  DW_CFA_restore: r22
  DW_CFA_restore: r23
  DW_CFA_restore: r24
  DW_CFA_restore: r25
  DW_CFA_restore: r28
  DW_CFA_restore: r30
  DW_CFA_restore: r29
  DW_CFA_nop
  DW_CFA_nop
  DW_CFA_nop
  DW_CFA_nop
  DW_CFA_nop
  DW_CFA_nop
  DW_CFA_nop
  DW_CFA_nop

00001198 0000003c 0000119c FDE cie=00000000 pc=00079c9c..00079d78
  DW_CFA_advance_loc: 4 to 00079ca0
  DW_CFA_def_cfa_offset: 48
  DW_CFA_advance_loc: 12 to 00079cac
  DW_CFA_def_cfa: r29 ofs 48
  DW_CFA_offset: r19 at cfa-8
  DW_CFA_offset: r20 at cfa-16
  DW_CFA_offset: r21 at cfa-32
  DW_CFA_offset: r30 at cfa-40
  DW_CFA_offset: r29 at cfa-48
  DW_CFA_remember_state
  DW_CFA_advance_loc1: 72 to 00079cf4
  DW_CFA_def_cfa: r31 ofs 48
  DW_CFA_advance_loc: 12 to 00079d00
  DW_CFA_def_cfa_offset: 0
  DW_CFA_restore: r19
  DW_CFA_restore: r20
  DW_CFA_restore: r21
  DW_CFA_restore: r30
  DW_CFA_restore: r29
  DW_CFA_advance_loc: 4 to 00079d04
  DW_CFA_restore_state
  DW_CFA_advance_loc1: 100 to 00079d68
  DW_CFA_def_cfa: r31 ofs 48
  DW_CFA_advance_loc: 12 to 00079d74
  DW_CFA_def_cfa_offset: 0
  DW_CFA_restore: r19
  DW_CFA_restore: r20
  DW_CFA_restore: r21
  DW_CFA_restore: r30
  DW_CFA_restore: r29
  DW_CFA_nop

000011d8 00000044 000011dc FDE cie=00000000 pc=00079d78..00079ebc
  DW_CFA_advance_loc: 4 to 00079d7c
  DW_CFA_def_cfa_offset: 48
  DW_CFA_advance_loc: 12 to 00079d88
  DW_CFA_def_cfa: r29 ofs 48
  DW_CFA_offset: r19 at cfa-8
  DW_CFA_offset: r20 at cfa-16
  DW_CFA_offset: r21 at cfa-24
  DW_CFA_offset: r22 at cfa-32
  DW_CFA_offset: r30 at cfa-40
  DW_CFA_offset: r29 at cfa-48
  DW_CFA_remember_state
  DW_CFA_advance_loc1: 228 to 00079e6c
  DW_CFA_def_cfa: r31 ofs 48
  DW_CFA_advance_loc: 12 to 00079e78
  DW_CFA_def_cfa_offset: 0
  DW_CFA_restore: r19
  DW_CFA_restore: r20
  DW_CFA_restore: r21
  DW_CFA_restore: r22
  DW_CFA_restore: r30
  DW_CFA_restore: r29
  DW_CFA_advance_loc: 4 to 00079e7c
  DW_CFA_restore_state
  DW_CFA_advance_loc: 48 to 00079eac
  DW_CFA_def_cfa: r31 ofs 48
  DW_CFA_advance_loc: 12 to 00079eb8
  DW_CFA_def_cfa_offset: 0
  DW_CFA_restore: r19
  DW_CFA_restore: r20
  DW_CFA_restore: r21
  DW_CFA_restore: r22
  DW_CFA_restore: r30
  DW_CFA_restore: r29
  DW_CFA_nop
  DW_CFA_nop
  DW_CFA_nop
  DW_CFA_nop
  DW_CFA_nop
  DW_CFA_nop

00001220 00000034 00001224 FDE cie=00000000 pc=00079ebc..00079f34
  DW_CFA_advance_loc: 4 to 00079ec0
  DW_CFA_def_cfa_offset: 32
  DW_CFA_advance_loc: 8 to 00079ec8
  DW_CFA_def_cfa: r29 ofs 32
  DW_CFA_offset: r19 at cfa-16
  DW_CFA_offset: r30 at cfa-24
  DW_CFA_offset: r29 at cfa-32
  DW_CFA_remember_state
  DW_CFA_advance_loc: 40 to 00079ef0
  DW_CFA_def_cfa: r31 ofs 32
  DW_CFA_advance_loc: 8 to 00079ef8
  DW_CFA_def_cfa_offset: 0
  DW_CFA_restore: r19
  DW_CFA_restore: r30
  DW_CFA_restore: r29
  DW_CFA_advance_loc: 4 to 00079efc
  DW_CFA_restore_state
  DW_CFA_advance_loc: 44 to 00079f28
  DW_CFA_def_cfa: r31 ofs 32
  DW_CFA_advance_loc: 8 to 00079f30
  DW_CFA_def_cfa_offset: 0
  DW_CFA_restore: r19
  DW_CFA_restore: r30
  DW_CFA_restore: r29
  DW_CFA_nop
  DW_CFA_nop
  DW_CFA_nop

00001258 00000034 0000125c FDE cie=00000000 pc=00079f34..0007a000
  DW_CFA_advance_loc: 4 to 00079f38
  DW_CFA_def_cfa_offset: 48
  DW_CFA_advance_loc: 12 to 00079f44
  DW_CFA_def_cfa: r29 ofs 48
  DW_CFA_offset: r19 at cfa-8
  DW_CFA_offset: r20 at cfa-16
  DW_CFA_offset: r21 at cfa-32
  DW_CFA_offset: r30 at cfa-40
  DW_CFA_offset: r29 at cfa-48
  DW_CFA_remember_state
  DW_CFA_advance_loc1: 108 to 00079fb0
  DW_CFA_def_cfa: r31 ofs 48
  DW_CFA_advance_loc: 12 to 00079fbc
  DW_CFA_def_cfa_offset: 0
  DW_CFA_restore: r19
  DW_CFA_restore: r20
  DW_CFA_restore: r21
  DW_CFA_restore: r30
  DW_CFA_restore: r29
  DW_CFA_advance_loc: 4 to 00079fc0
  DW_CFA_restore_state
  DW_CFA_nop
  DW_CFA_nop
  DW_CFA_nop
  DW_CFA_nop
  DW_CFA_nop
  DW_CFA_nop

00001290 00000014 00001294 FDE cie=00000000 pc=0007a000..0007a00c
  DW_CFA_nop
  DW_CFA_nop
  DW_CFA_nop
  DW_CFA_nop
  DW_CFA_nop
  DW_CFA_nop
  DW_CFA_nop

000012a8 00000034 000012ac FDE cie=00000000 pc=0007a00c..0007a058
  DW_CFA_advance_loc: 4 to 0007a010
  DW_CFA_def_cfa_offset: 32
  DW_CFA_advance_loc: 8 to 0007a018
  DW_CFA_def_cfa: r29 ofs 32
  DW_CFA_offset: r19 at cfa-8
  DW_CFA_offset: r20 at cfa-16
  DW_CFA_offset: r30 at cfa-24
  DW_CFA_offset: r29 at cfa-32
  DW_CFA_remember_state
  DW_CFA_advance_loc: 40 to 0007a040
  DW_CFA_def_cfa: r31 ofs 32
  DW_CFA_advance_loc: 8 to 0007a048
  DW_CFA_def_cfa_offset: 0
  DW_CFA_restore: r19
  DW_CFA_restore: r20
  DW_CFA_restore: r30
  DW_CFA_restore: r29
  DW_CFA_advance_loc: 4 to 0007a04c
  DW_CFA_restore_state
  DW_CFA_def_cfa: r31 ofs 32
  DW_CFA_advance_loc: 8 to 0007a054
  DW_CFA_def_cfa_offset: 0
  DW_CFA_restore: r19
  DW_CFA_restore: r20
  DW_CFA_restore: r30
  DW_CFA_restore: r29

000012e0 0000003c 000012e4 FDE cie=00000000 pc=0007a058..0007a0a8
  DW_CFA_advance_loc: 4 to 0007a05c
  DW_CFA_def_cfa_offset: 32
  DW_CFA_advance_loc: 8 to 0007a064
  DW_CFA_def_cfa: r29 ofs 32
  DW_CFA_offset: r19 at cfa-8
  DW_CFA_offset: r20 at cfa-16
  DW_CFA_offset: r30 at cfa-24
  DW_CFA_offset: r29 at cfa-32
  DW_CFA_remember_state
  DW_CFA_advance_loc: 40 to 0007a08c
  DW_CFA_def_cfa: r31 ofs 32
  DW_CFA_advance_loc: 8 to 0007a094
  DW_CFA_def_cfa_offset: 0
  DW_CFA_restore: r19
  DW_CFA_restore: r20
  DW_CFA_restore: r30
  DW_CFA_restore: r29
  DW_CFA_advance_loc: 4 to 0007a098
  DW_CFA_restore_state
  DW_CFA_advance_loc: 4 to 0007a09c
  DW_CFA_def_cfa: r31 ofs 32
  DW_CFA_advance_loc: 8 to 0007a0a4
  DW_CFA_def_cfa_offset: 0
  DW_CFA_restore: r19
  DW_CFA_restore: r20
  DW_CFA_restore: r30
  DW_CFA_restore: r29
  DW_CFA_nop
  DW_CFA_nop
  DW_CFA_nop
  DW_CFA_nop
  DW_CFA_nop
  DW_CFA_nop
  DW_CFA_nop

00001320 0000003c 00001324 FDE cie=00000000 pc=0007a0a8..0007a0f8
  DW_CFA_advance_loc: 4 to 0007a0ac
  DW_CFA_def_cfa_offset: 32
  DW_CFA_advance_loc: 8 to 0007a0b4
  DW_CFA_def_cfa: r29 ofs 32
  DW_CFA_offset: r19 at cfa-8
  DW_CFA_offset: r20 at cfa-16
  DW_CFA_offset: r30 at cfa-24
  DW_CFA_offset: r29 at cfa-32
  DW_CFA_remember_state
  DW_CFA_advance_loc: 40 to 0007a0dc
  DW_CFA_def_cfa: r31 ofs 32
  DW_CFA_advance_loc: 8 to 0007a0e4
  DW_CFA_def_cfa_offset: 0
  DW_CFA_restore: r19
  DW_CFA_restore: r20
  DW_CFA_restore: r30
  DW_CFA_restore: r29
  DW_CFA_advance_loc: 4 to 0007a0e8
  DW_CFA_restore_state
  DW_CFA_advance_loc: 4 to 0007a0ec
  DW_CFA_def_cfa: r31 ofs 32
  DW_CFA_advance_loc: 8 to 0007a0f4
  DW_CFA_def_cfa_offset: 0
  DW_CFA_restore: r19
  DW_CFA_restore: r20
  DW_CFA_restore: r30
  DW_CFA_restore: r29
  DW_CFA_nop
  DW_CFA_nop
  DW_CFA_nop
  DW_CFA_nop
  DW_CFA_nop
  DW_CFA_nop
  DW_CFA_nop

00001360 0000003c 00001364 FDE cie=00000000 pc=0007a0f8..0007a148
  DW_CFA_advance_loc: 4 to 0007a0fc
  DW_CFA_def_cfa_offset: 32
  DW_CFA_advance_loc: 8 to 0007a104
  DW_CFA_def_cfa: r29 ofs 32
  DW_CFA_offset: r19 at cfa-8
  DW_CFA_offset: r20 at cfa-16
  DW_CFA_offset: r30 at cfa-24
  DW_CFA_offset: r29 at cfa-32
  DW_CFA_remember_state
  DW_CFA_advance_loc: 40 to 0007a12c
  DW_CFA_def_cfa: r31 ofs 32
  DW_CFA_advance_loc: 8 to 0007a134
  DW_CFA_def_cfa_offset: 0
  DW_CFA_restore: r19
  DW_CFA_restore: r20
  DW_CFA_restore: r30
  DW_CFA_restore: r29
  DW_CFA_advance_loc: 4 to 0007a138
  DW_CFA_restore_state
  DW_CFA_advance_loc: 4 to 0007a13c
  DW_CFA_def_cfa: r31 ofs 32
  DW_CFA_advance_loc: 8 to 0007a144
  DW_CFA_def_cfa_offset: 0
  DW_CFA_restore: r19
  DW_CFA_restore: r20
  DW_CFA_restore: r30
  DW_CFA_restore: r29
  DW_CFA_nop
  DW_CFA_nop
  DW_CFA_nop
  DW_CFA_nop
  DW_CFA_nop
  DW_CFA_nop
  DW_CFA_nop

000013a0 0000002c 000013a4 FDE cie=00000000 pc=0007a148..0007a18c
  DW_CFA_advance_loc: 8 to 0007a150
  DW_CFA_def_cfa_offset: 32
  DW_CFA_advance_loc: 8 to 0007a158
  DW_CFA_def_cfa: r29 ofs 32
  DW_CFA_offset: r19 at cfa-8
  DW_CFA_offset: r20 at cfa-16
  DW_CFA_offset: r30 at cfa-24
  DW_CFA_offset: r29 at cfa-32
  DW_CFA_advance_loc: 40 to 0007a180
  DW_CFA_def_cfa: r31 ofs 32
  DW_CFA_advance_loc: 8 to 0007a188
  DW_CFA_def_cfa_offset: 0
  DW_CFA_restore: r19
  DW_CFA_restore: r20
  DW_CFA_restore: r30
  DW_CFA_restore: r29
  DW_CFA_nop
  DW_CFA_nop
  DW_CFA_nop
  DW_CFA_nop
  DW_CFA_nop

000013d0 0000002c 000013d4 FDE cie=00000000 pc=0007a18c..0007a1d0
  DW_CFA_advance_loc: 8 to 0007a194
  DW_CFA_def_cfa_offset: 32
  DW_CFA_advance_loc: 8 to 0007a19c
  DW_CFA_def_cfa: r29 ofs 32
  DW_CFA_offset: r19 at cfa-8
  DW_CFA_offset: r20 at cfa-16
  DW_CFA_offset: r30 at cfa-24
  DW_CFA_offset: r29 at cfa-32
  DW_CFA_advance_loc: 40 to 0007a1c4
  DW_CFA_def_cfa: r31 ofs 32
  DW_CFA_advance_loc: 8 to 0007a1cc
  DW_CFA_def_cfa_offset: 0
  DW_CFA_restore: r19
  DW_CFA_restore: r20
  DW_CFA_restore: r30
  DW_CFA_restore: r29
  DW_CFA_nop
  DW_CFA_nop
  DW_CFA_nop
  DW_CFA_nop
  DW_CFA_nop

00001400 00000014 00001404 FDE cie=00000000 pc=0007a1d0..0007a1e0
  DW_CFA_nop
  DW_CFA_nop
  DW_CFA_nop
  DW_CFA_nop
  DW_CFA_nop
  DW_CFA_nop
  DW_CFA_nop

00001418 0000003c 0000141c FDE cie=00000000 pc=0007a1e0..0007a250
  DW_CFA_advance_loc: 4 to 0007a1e4
  DW_CFA_def_cfa_offset: 32
  DW_CFA_advance_loc: 8 to 0007a1ec
  DW_CFA_def_cfa: r29 ofs 32
  DW_CFA_offset: r19 at cfa-8
  DW_CFA_offset: r20 at cfa-16
  DW_CFA_offset: r30 at cfa-24
  DW_CFA_offset: r29 at cfa-32
  DW_CFA_remember_state
  DW_CFA_advance_loc1: 76 to 0007a238
  DW_CFA_def_cfa: r31 ofs 32
  DW_CFA_advance_loc: 8 to 0007a240
  DW_CFA_def_cfa_offset: 0
  DW_CFA_restore: r19
  DW_CFA_restore: r20
  DW_CFA_restore: r30
  DW_CFA_restore: r29
  DW_CFA_advance_loc: 4 to 0007a244
  DW_CFA_restore_state
  DW_CFA_def_cfa: r31 ofs 32
  DW_CFA_advance_loc: 8 to 0007a24c
  DW_CFA_def_cfa_offset: 0
  DW_CFA_restore: r19
  DW_CFA_restore: r20
  DW_CFA_restore: r30
  DW_CFA_restore: r29
  DW_CFA_nop
  DW_CFA_nop
  DW_CFA_nop
  DW_CFA_nop
  DW_CFA_nop
  DW_CFA_nop
  DW_CFA_nop

00001458 00000054 0000145c FDE cie=00000000 pc=0007a250..0007a2fc
  DW_CFA_advance_loc: 4 to 0007a254
  DW_CFA_def_cfa_offset: 48
  DW_CFA_advance_loc: 12 to 0007a260
  DW_CFA_def_cfa: r29 ofs 48
  DW_CFA_offset: r19 at cfa-8
  DW_CFA_offset: r20 at cfa-16
  DW_CFA_offset: r21 at cfa-24
  DW_CFA_offset: r22 at cfa-32
  DW_CFA_offset: r30 at cfa-40
  DW_CFA_offset: r29 at cfa-48
  DW_CFA_remember_state
  DW_CFA_advance_loc1: 92 to 0007a2bc
  DW_CFA_def_cfa: r31 ofs 48
  DW_CFA_advance_loc: 12 to 0007a2c8
  DW_CFA_def_cfa_offset: 0
  DW_CFA_restore: r19
  DW_CFA_restore: r20
  DW_CFA_restore: r21
  DW_CFA_restore: r22
  DW_CFA_restore: r30
  DW_CFA_restore: r29
  DW_CFA_advance_loc: 4 to 0007a2cc
  DW_CFA_restore_state
  DW_CFA_remember_state
  DW_CFA_advance_loc: 8 to 0007a2d4
  DW_CFA_def_cfa: r31 ofs 48
  DW_CFA_advance_loc: 12 to 0007a2e0
  DW_CFA_def_cfa_offset: 0
  DW_CFA_restore: r19
  DW_CFA_restore: r20
  DW_CFA_restore: r21
  DW_CFA_restore: r22
  DW_CFA_restore: r30
  DW_CFA_restore: r29
  DW_CFA_advance_loc: 4 to 0007a2e4
  DW_CFA_restore_state
  DW_CFA_advance_loc: 8 to 0007a2ec
  DW_CFA_def_cfa: r31 ofs 48
  DW_CFA_advance_loc: 12 to 0007a2f8
  DW_CFA_def_cfa_offset: 0
  DW_CFA_restore: r19
  DW_CFA_restore: r20
  DW_CFA_restore: r21
  DW_CFA_restore: r22
  DW_CFA_restore: r30
  DW_CFA_restore: r29
  DW_CFA_nop
  DW_CFA_nop
  DW_CFA_nop
  DW_CFA_nop
  DW_CFA_nop
  DW_CFA_nop

000014b0 0000005c 000014b4 FDE cie=00000000 pc=0007a2fc..0007a54c
  DW_CFA_advance_loc: 4 to 0007a300
  DW_CFA_def_cfa_offset: 64
  DW_CFA_advance_loc: 16 to 0007a310
  DW_CFA_def_cfa: r29 ofs 64
  DW_CFA_offset: r19 at cfa-8
  DW_CFA_offset: r20 at cfa-16
  DW_CFA_offset: r21 at cfa-24
  DW_CFA_offset: r22 at cfa-32
  DW_CFA_offset: r23 at cfa-48
  DW_CFA_offset: r30 at cfa-56
  DW_CFA_offset: r29 at cfa-64
  DW_CFA_remember_state
  DW_CFA_advance_loc2: 268 to 0007a41c
  DW_CFA_def_cfa: r31 ofs 64
  DW_CFA_advance_loc: 16 to 0007a42c
  DW_CFA_def_cfa_offset: 0
  DW_CFA_restore: r19
  DW_CFA_restore: r20
  DW_CFA_restore: r21
  DW_CFA_restore: r22
  DW_CFA_restore: r23
  DW_CFA_restore: r30
  DW_CFA_restore: r29
  DW_CFA_advance_loc: 4 to 0007a430
  DW_CFA_restore_state
  DW_CFA_remember_state
  DW_CFA_advance_loc1: 168 to 0007a4d8
  DW_CFA_def_cfa: r31 ofs 64
  DW_CFA_advance_loc: 16 to 0007a4e8
  DW_CFA_def_cfa_offset: 0
  DW_CFA_restore: r19
  DW_CFA_restore: r20
  DW_CFA_restore: r21
  DW_CFA_restore: r22
  DW_CFA_restore: r23
  DW_CFA_restore: r30
  DW_CFA_restore: r29
  DW_CFA_advance_loc: 4 to 0007a4ec
  DW_CFA_restore_state
  DW_CFA_remember_state
  DW_CFA_advance_loc: 16 to 0007a4fc
  DW_CFA_def_cfa: r31 ofs 64
  DW_CFA_advance_loc: 16 to 0007a50c
  DW_CFA_def_cfa_offset: 0
  DW_CFA_restore: r19
  DW_CFA_restore: r20
  DW_CFA_restore: r21
  DW_CFA_restore: r22
  DW_CFA_restore: r23
  DW_CFA_restore: r30
  DW_CFA_restore: r29
  DW_CFA_advance_loc: 4 to 0007a510
  DW_CFA_restore_state
  DW_CFA_nop
  DW_CFA_nop
  DW_CFA_nop
  DW_CFA_nop

00001510 0000005c 00001514 FDE cie=00000000 pc=0007a54c..0007a7d8
  DW_CFA_advance_loc: 4 to 0007a550
  DW_CFA_def_cfa_offset: 64
  DW_CFA_advance_loc: 16 to 0007a560
  DW_CFA_def_cfa: r29 ofs 64
  DW_CFA_offset: r19 at cfa-8
  DW_CFA_offset: r20 at cfa-16
  DW_CFA_offset: r21 at cfa-24
  DW_CFA_offset: r22 at cfa-32
  DW_CFA_offset: r23 at cfa-40
  DW_CFA_offset: r24 at cfa-48
  DW_CFA_offset: r30 at cfa-56
  DW_CFA_offset: r29 at cfa-64
  DW_CFA_remember_state
  DW_CFA_advance_loc2: 452 to 0007a724
  DW_CFA_def_cfa: r31 ofs 64
  DW_CFA_advance_loc: 16 to 0007a734
  DW_CFA_def_cfa_offset: 0
  DW_CFA_restore: r19
  DW_CFA_restore: r20
  DW_CFA_restore: r21
  DW_CFA_restore: r22
  DW_CFA_restore: r23
  DW_CFA_restore: r24
  DW_CFA_restore: r30
  DW_CFA_restore: r29
  DW_CFA_advance_loc: 4 to 0007a738
  DW_CFA_restore_state
  DW_CFA_remember_state
  DW_CFA_advance_loc1: 116 to 0007a7ac
  DW_CFA_def_cfa: r31 ofs 64
  DW_CFA_advance_loc: 16 to 0007a7bc
  DW_CFA_def_cfa_offset: 0
  DW_CFA_restore: r19
  DW_CFA_restore: r20
  DW_CFA_restore: r21
  DW_CFA_restore: r22
  DW_CFA_restore: r23
  DW_CFA_restore: r24
  DW_CFA_restore: r30
  DW_CFA_restore: r29
  DW_CFA_advance_loc: 4 to 0007a7c0
  DW_CFA_restore_state
  DW_CFA_advance_loc: 4 to 0007a7c4
  DW_CFA_def_cfa: r31 ofs 64
  DW_CFA_advance_loc: 16 to 0007a7d4
  DW_CFA_def_cfa_offset: 0
  DW_CFA_restore: r19
  DW_CFA_restore: r20
  DW_CFA_restore: r21
  DW_CFA_restore: r22
  DW_CFA_restore: r23
  DW_CFA_restore: r24
  DW_CFA_restore: r30
  DW_CFA_restore: r29
  DW_CFA_nop
  DW_CFA_nop

00001570 00000054 00001574 FDE cie=00000000 pc=0007a7d8..0007a93c
  DW_CFA_advance_loc: 4 to 0007a7dc
  DW_CFA_def_cfa_offset: 64
  DW_CFA_advance_loc: 16 to 0007a7ec
  DW_CFA_def_cfa: r29 ofs 64
  DW_CFA_offset: r19 at cfa-8
  DW_CFA_offset: r20 at cfa-16
  DW_CFA_offset: r21 at cfa-24
  DW_CFA_offset: r22 at cfa-32
  DW_CFA_offset: r23 at cfa-48
  DW_CFA_offset: r30 at cfa-56
  DW_CFA_offset: r29 at cfa-64
  DW_CFA_remember_state
  DW_CFA_advance_loc1: 156 to 0007a888
  DW_CFA_def_cfa: r31 ofs 64
  DW_CFA_advance_loc: 16 to 0007a898
  DW_CFA_def_cfa_offset: 0
  DW_CFA_restore: r19
  DW_CFA_restore: r20
  DW_CFA_restore: r21
  DW_CFA_restore: r22
  DW_CFA_restore: r23
  DW_CFA_restore: r30
  DW_CFA_restore: r29
  DW_CFA_advance_loc: 4 to 0007a89c
  DW_CFA_restore_state
  DW_CFA_remember_state
  DW_CFA_advance_loc1: 116 to 0007a910
  DW_CFA_def_cfa: r31 ofs 64
  DW_CFA_advance_loc: 16 to 0007a920
  DW_CFA_def_cfa_offset: 0
  DW_CFA_restore: r19
  DW_CFA_restore: r20
  DW_CFA_restore: r21
  DW_CFA_restore: r22
  DW_CFA_restore: r23
  DW_CFA_restore: r30
  DW_CFA_restore: r29
  DW_CFA_advance_loc: 4 to 0007a924
  DW_CFA_restore_state
  DW_CFA_advance_loc: 4 to 0007a928
  DW_CFA_def_cfa: r31 ofs 64
  DW_CFA_advance_loc: 16 to 0007a938
  DW_CFA_def_cfa_offset: 0
  DW_CFA_restore: r19
  DW_CFA_restore: r20
  DW_CFA_restore: r21
  DW_CFA_restore: r22
  DW_CFA_restore: r23
  DW_CFA_restore: r30
  DW_CFA_restore: r29

000015c8 00000054 000015cc FDE cie=00000000 pc=0007a93c..0007a9f8
  DW_CFA_advance_loc: 4 to 0007a940
  DW_CFA_def_cfa_offset: 48
  DW_CFA_advance_loc: 12 to 0007a94c
  DW_CFA_def_cfa: r29 ofs 48
  DW_CFA_offset: r19 at cfa-8
  DW_CFA_offset: r20 at cfa-16
  DW_CFA_offset: r21 at cfa-24
  DW_CFA_offset: r22 at cfa-32
  DW_CFA_offset: r30 at cfa-40
  DW_CFA_offset: r29 at cfa-48
  DW_CFA_remember_state
  DW_CFA_advance_loc1: 116 to 0007a9c0
  DW_CFA_def_cfa: r31 ofs 48
  DW_CFA_advance_loc: 12 to 0007a9cc
  DW_CFA_def_cfa_offset: 0
  DW_CFA_restore: r19
  DW_CFA_restore: r20
  DW_CFA_restore: r21
  DW_CFA_restore: r22
  DW_CFA_restore: r30
  DW_CFA_restore: r29
  DW_CFA_advance_loc: 4 to 0007a9d0
  DW_CFA_restore_state
  DW_CFA_remember_state
  DW_CFA_advance_loc: 4 to 0007a9d4
  DW_CFA_def_cfa: r31 ofs 48
  DW_CFA_advance_loc: 12 to 0007a9e0
  DW_CFA_def_cfa_offset: 0
  DW_CFA_restore: r19
  DW_CFA_restore: r20
  DW_CFA_restore: r21
  DW_CFA_restore: r22
  DW_CFA_restore: r30
  DW_CFA_restore: r29
  DW_CFA_advance_loc: 4 to 0007a9e4
  DW_CFA_restore_state
  DW_CFA_advance_loc: 4 to 0007a9e8
  DW_CFA_def_cfa: r31 ofs 48
  DW_CFA_advance_loc: 12 to 0007a9f4
  DW_CFA_def_cfa_offset: 0
  DW_CFA_restore: r19
  DW_CFA_restore: r20
  DW_CFA_restore: r21
  DW_CFA_restore: r22
  DW_CFA_restore: r30
  DW_CFA_restore: r29
  DW_CFA_nop
  DW_CFA_nop
  DW_CFA_nop
  DW_CFA_nop
  DW_CFA_nop
  DW_CFA_nop

00001620 00000014 00001624 FDE cie=00000000 pc=0007a9f8..0007aa04
  DW_CFA_nop
  DW_CFA_nop
  DW_CFA_nop
  DW_CFA_nop
  DW_CFA_nop
  DW_CFA_nop
  DW_CFA_nop

00001638 0000002c 0000163c FDE cie=00000000 pc=0007aa04..0007aac0
  DW_CFA_advance_loc: 4 to 0007aa08
  DW_CFA_def_cfa_offset: 32
  DW_CFA_advance_loc: 8 to 0007aa10
  DW_CFA_def_cfa: r29 ofs 32
  DW_CFA_offset: r19 at cfa-16
  DW_CFA_offset: r30 at cfa-24
  DW_CFA_offset: r29 at cfa-32
  DW_CFA_advance_loc1: 164 to 0007aab4
  DW_CFA_def_cfa: r31 ofs 32
  DW_CFA_advance_loc: 8 to 0007aabc
  DW_CFA_def_cfa_offset: 0
  DW_CFA_restore: r19
  DW_CFA_restore: r30
  DW_CFA_restore: r29
  DW_CFA_nop
  DW_CFA_nop
  DW_CFA_nop
  DW_CFA_nop
  DW_CFA_nop
  DW_CFA_nop
  DW_CFA_nop

00001668 00000014 0000166c FDE cie=00000000 pc=0007aac0..0007aadc
  DW_CFA_nop
  DW_CFA_nop
  DW_CFA_nop
  DW_CFA_nop
  DW_CFA_nop
  DW_CFA_nop
  DW_CFA_nop

00001680 0000004c 00001684 FDE cie=00000000 pc=0007aadc..0007b454
  DW_CFA_advance_loc: 20 to 0007aaf0
  DW_CFA_def_cfa_offset: 112
  DW_CFA_advance_loc: 28 to 0007ab0c
  DW_CFA_def_cfa: r29 ofs 112
  DW_CFA_offset: r15 at cfa-8
  DW_CFA_offset: r19 at cfa-16
  DW_CFA_offset: r20 at cfa-24
  DW_CFA_offset: r21 at cfa-32
  DW_CFA_offset: r22 at cfa-40
  DW_CFA_offset: r23 at cfa-48
  DW_CFA_offset: r24 at cfa-56
  DW_CFA_offset: r25 at cfa-64
  DW_CFA_offset: r26 at cfa-72
  DW_CFA_offset: r27 at cfa-80
  DW_CFA_offset: r28 at cfa-96
  DW_CFA_offset: r30 at cfa-104
  DW_CFA_offset: r29 at cfa-112
  DW_CFA_remember_state
  DW_CFA_advance_loc2: 1132 to 0007af78
  DW_CFA_def_cfa: r31 ofs 112
  DW_CFA_advance_loc: 28 to 0007af94
  DW_CFA_def_cfa_offset: 0
  DW_CFA_restore: r15
  DW_CFA_restore: r19
  DW_CFA_restore: r20
  DW_CFA_restore: r21
  DW_CFA_restore: r22
  DW_CFA_restore: r23
  DW_CFA_restore: r24
  DW_CFA_restore: r25
  DW_CFA_restore: r26
  DW_CFA_restore: r27
  DW_CFA_restore: r28
  DW_CFA_restore: r30
  DW_CFA_restore: r29
  DW_CFA_advance_loc: 32 to 0007afb4
  DW_CFA_restore_state
  DW_CFA_nop
  DW_CFA_nop
  DW_CFA_nop
  DW_CFA_nop
  DW_CFA_nop

000016d0 00000044 000016d4 FDE cie=00000000 pc=0007b454..0007b584
  DW_CFA_advance_loc: 4 to 0007b458
  DW_CFA_def_cfa_offset: 64
  DW_CFA_advance_loc: 16 to 0007b468
  DW_CFA_def_cfa: r29 ofs 64
  DW_CFA_offset: r19 at cfa-8
  DW_CFA_offset: r20 at cfa-16
  DW_CFA_offset: r21 at cfa-24
  DW_CFA_offset: r22 at cfa-32
  DW_CFA_offset: r23 at cfa-48
  DW_CFA_offset: r30 at cfa-56
  DW_CFA_offset: r29 at cfa-64
  DW_CFA_remember_state
  DW_CFA_advance_loc1: 232 to 0007b550
  DW_CFA_def_cfa: r31 ofs 64
  DW_CFA_advance_loc: 16 to 0007b560
  DW_CFA_def_cfa_offset: 0
  DW_CFA_restore: r19
  DW_CFA_restore: r20
  DW_CFA_restore: r21
  DW_CFA_restore: r22
  DW_CFA_restore: r23
  DW_CFA_restore: r30
  DW_CFA_restore: r29
  DW_CFA_advance_loc: 4 to 0007b564
  DW_CFA_restore_state
  DW_CFA_advance_loc: 12 to 0007b570
  DW_CFA_def_cfa: r31 ofs 64
  DW_CFA_advance_loc: 16 to 0007b580
  DW_CFA_def_cfa_offset: 0
  DW_CFA_restore: r19
  DW_CFA_restore: r20
  DW_CFA_restore: r21
  DW_CFA_restore: r22
  DW_CFA_restore: r23
  DW_CFA_restore: r30
  DW_CFA_restore: r29
  DW_CFA_nop
  DW_CFA_nop

00001718 00000044 0000171c FDE cie=00000000 pc=0007b584..0007b6e8
  DW_CFA_advance_loc: 4 to 0007b588
  DW_CFA_def_cfa_offset: 64
  DW_CFA_advance_loc: 16 to 0007b598
  DW_CFA_def_cfa: r29 ofs 64
  DW_CFA_offset: r19 at cfa-8
  DW_CFA_offset: r20 at cfa-16
  DW_CFA_offset: r21 at cfa-24
  DW_CFA_offset: r22 at cfa-32
  DW_CFA_offset: r23 at cfa-48
  DW_CFA_offset: r30 at cfa-56
  DW_CFA_offset: r29 at cfa-64
  DW_CFA_remember_state
  DW_CFA_advance_loc2: 284 to 0007b6b4
  DW_CFA_def_cfa: r31 ofs 64
  DW_CFA_advance_loc: 16 to 0007b6c4
  DW_CFA_def_cfa_offset: 0
  DW_CFA_restore: r19
  DW_CFA_restore: r20
  DW_CFA_restore: r21
  DW_CFA_restore: r22
  DW_CFA_restore: r23
  DW_CFA_restore: r30
  DW_CFA_restore: r29
  DW_CFA_advance_loc: 4 to 0007b6c8
  DW_CFA_restore_state
  DW_CFA_advance_loc: 12 to 0007b6d4
  DW_CFA_def_cfa: r31 ofs 64
  DW_CFA_advance_loc: 16 to 0007b6e4
  DW_CFA_def_cfa_offset: 0
  DW_CFA_restore: r19
  DW_CFA_restore: r20
  DW_CFA_restore: r21
  DW_CFA_restore: r22
  DW_CFA_restore: r23
  DW_CFA_restore: r30
  DW_CFA_restore: r29
  DW_CFA_nop

00001760 00000044 00001764 FDE cie=00000000 pc=0007b6e8..0007b818
  DW_CFA_advance_loc: 4 to 0007b6ec
  DW_CFA_def_cfa_offset: 64
  DW_CFA_advance_loc: 16 to 0007b6fc
  DW_CFA_def_cfa: r29 ofs 64
  DW_CFA_offset: r19 at cfa-8
  DW_CFA_offset: r20 at cfa-16
  DW_CFA_offset: r21 at cfa-24
  DW_CFA_offset: r22 at cfa-32
  DW_CFA_offset: r23 at cfa-48
  DW_CFA_offset: r30 at cfa-56
  DW_CFA_offset: r29 at cfa-64
  DW_CFA_remember_state
  DW_CFA_advance_loc1: 232 to 0007b7e4
  DW_CFA_def_cfa: r31 ofs 64
  DW_CFA_advance_loc: 16 to 0007b7f4
  DW_CFA_def_cfa_offset: 0
  DW_CFA_restore: r19
  DW_CFA_restore: r20
  DW_CFA_restore: r21
  DW_CFA_restore: r22
  DW_CFA_restore: r23
  DW_CFA_restore: r30
  DW_CFA_restore: r29
  DW_CFA_advance_loc: 4 to 0007b7f8
  DW_CFA_restore_state
  DW_CFA_advance_loc: 12 to 0007b804
  DW_CFA_def_cfa: r31 ofs 64
  DW_CFA_advance_loc: 16 to 0007b814
  DW_CFA_def_cfa_offset: 0
  DW_CFA_restore: r19
  DW_CFA_restore: r20
  DW_CFA_restore: r21
  DW_CFA_restore: r22
  DW_CFA_restore: r23
  DW_CFA_restore: r30
  DW_CFA_restore: r29
  DW_CFA_nop
  DW_CFA_nop

000017a8 00000044 000017ac FDE cie=00000000 pc=0007b818..0007b97c
  DW_CFA_advance_loc: 4 to 0007b81c
  DW_CFA_def_cfa_offset: 64
  DW_CFA_advance_loc: 16 to 0007b82c
  DW_CFA_def_cfa: r29 ofs 64
  DW_CFA_offset: r19 at cfa-8
  DW_CFA_offset: r20 at cfa-16
  DW_CFA_offset: r21 at cfa-24
  DW_CFA_offset: r22 at cfa-32
  DW_CFA_offset: r23 at cfa-48
  DW_CFA_offset: r30 at cfa-56
  DW_CFA_offset: r29 at cfa-64
  DW_CFA_remember_state
  DW_CFA_advance_loc2: 284 to 0007b948
  DW_CFA_def_cfa: r31 ofs 64
  DW_CFA_advance_loc: 16 to 0007b958
  DW_CFA_def_cfa_offset: 0
  DW_CFA_restore: r19
  DW_CFA_restore: r20
  DW_CFA_restore: r21
  DW_CFA_restore: r22
  DW_CFA_restore: r23
  DW_CFA_restore: r30
  DW_CFA_restore: r29
  DW_CFA_advance_loc: 4 to 0007b95c
  DW_CFA_restore_state
  DW_CFA_advance_loc: 12 to 0007b968
  DW_CFA_def_cfa: r31 ofs 64
  DW_CFA_advance_loc: 16 to 0007b978
  DW_CFA_def_cfa_offset: 0
  DW_CFA_restore: r19
  DW_CFA_restore: r20
  DW_CFA_restore: r21
  DW_CFA_restore: r22
  DW_CFA_restore: r23
  DW_CFA_restore: r30
  DW_CFA_restore: r29
  DW_CFA_nop

000017f0 00000044 000017f4 FDE cie=00000000 pc=0007b97c..0007bad8
  DW_CFA_advance_loc: 4 to 0007b980
  DW_CFA_def_cfa_offset: 64
  DW_CFA_advance_loc: 16 to 0007b990
  DW_CFA_def_cfa: r29 ofs 64
  DW_CFA_offset: r19 at cfa-8
  DW_CFA_offset: r20 at cfa-16
  DW_CFA_offset: r21 at cfa-24
  DW_CFA_offset: r22 at cfa-32
  DW_CFA_offset: r23 at cfa-48
  DW_CFA_offset: r30 at cfa-56
  DW_CFA_offset: r29 at cfa-64
  DW_CFA_remember_state
  DW_CFA_advance_loc1: 240 to 0007ba80
  DW_CFA_def_cfa: r31 ofs 64
  DW_CFA_advance_loc: 16 to 0007ba90
  DW_CFA_def_cfa_offset: 0
  DW_CFA_restore: r19
  DW_CFA_restore: r20
  DW_CFA_restore: r21
  DW_CFA_restore: r22
  DW_CFA_restore: r23
  DW_CFA_restore: r30
  DW_CFA_restore: r29
  DW_CFA_advance_loc: 4 to 0007ba94
  DW_CFA_restore_state
  DW_CFA_advance_loc: 48 to 0007bac4
  DW_CFA_def_cfa: r31 ofs 64
  DW_CFA_advance_loc: 16 to 0007bad4
  DW_CFA_def_cfa_offset: 0
  DW_CFA_restore: r19
  DW_CFA_restore: r20
  DW_CFA_restore: r21
  DW_CFA_restore: r22
  DW_CFA_restore: r23
  DW_CFA_restore: r30
  DW_CFA_restore: r29
  DW_CFA_nop
  DW_CFA_nop

00001838 00000034 0000183c FDE cie=00000000 pc=0007bad8..0007bc04
  DW_CFA_advance_loc: 8 to 0007bae0
  DW_CFA_def_cfa_offset: 64
  DW_CFA_advance_loc: 16 to 0007baf0
  DW_CFA_def_cfa: r29 ofs 64
  DW_CFA_offset: r19 at cfa-8
  DW_CFA_offset: r20 at cfa-16
  DW_CFA_offset: r21 at cfa-24
  DW_CFA_offset: r22 at cfa-32
  DW_CFA_offset: r23 at cfa-48
  DW_CFA_offset: r30 at cfa-56
  DW_CFA_offset: r29 at cfa-64
  DW_CFA_remember_state
  DW_CFA_advance_loc1: 236 to 0007bbdc
  DW_CFA_def_cfa: r31 ofs 64
  DW_CFA_advance_loc: 16 to 0007bbec
  DW_CFA_def_cfa_offset: 0
  DW_CFA_restore: r19
  DW_CFA_restore: r20
  DW_CFA_restore: r21
  DW_CFA_restore: r22
  DW_CFA_restore: r23
  DW_CFA_restore: r30
  DW_CFA_restore: r29
  DW_CFA_advance_loc: 8 to 0007bbf4
  DW_CFA_restore_state

00001870 00000044 00001874 FDE cie=00000000 pc=0007bc04..0007bd34
  DW_CFA_advance_loc: 4 to 0007bc08
  DW_CFA_def_cfa_offset: 64
  DW_CFA_advance_loc: 16 to 0007bc18
  DW_CFA_def_cfa: r29 ofs 64
  DW_CFA_offset: r19 at cfa-8
  DW_CFA_offset: r20 at cfa-16
  DW_CFA_offset: r21 at cfa-24
  DW_CFA_offset: r22 at cfa-32
  DW_CFA_offset: r23 at cfa-48
  DW_CFA_offset: r30 at cfa-56
  DW_CFA_offset: r29 at cfa-64
  DW_CFA_remember_state
  DW_CFA_advance_loc1: 232 to 0007bd00
  DW_CFA_def_cfa: r31 ofs 64
  DW_CFA_advance_loc: 16 to 0007bd10
  DW_CFA_def_cfa_offset: 0
  DW_CFA_restore: r19
  DW_CFA_restore: r20
  DW_CFA_restore: r21
  DW_CFA_restore: r22
  DW_CFA_restore: r23
  DW_CFA_restore: r30
  DW_CFA_restore: r29
  DW_CFA_advance_loc: 4 to 0007bd14
  DW_CFA_restore_state
  DW_CFA_advance_loc: 12 to 0007bd20
  DW_CFA_def_cfa: r31 ofs 64
  DW_CFA_advance_loc: 16 to 0007bd30
  DW_CFA_def_cfa_offset: 0
  DW_CFA_restore: r19
  DW_CFA_restore: r20
  DW_CFA_restore: r21
  DW_CFA_restore: r22
  DW_CFA_restore: r23
  DW_CFA_restore: r30
  DW_CFA_restore: r29
  DW_CFA_nop
  DW_CFA_nop

000018b8 0000004c 000018bc FDE cie=00000000 pc=0007bd34..0007bea4
  DW_CFA_advance_loc: 4 to 0007bd38
  DW_CFA_def_cfa_offset: 64
  DW_CFA_advance_loc: 16 to 0007bd48
  DW_CFA_def_cfa: r29 ofs 64
  DW_CFA_offset: r19 at cfa-8
  DW_CFA_offset: r20 at cfa-16
  DW_CFA_offset: r21 at cfa-24
  DW_CFA_offset: r22 at cfa-32
  DW_CFA_offset: r23 at cfa-40
  DW_CFA_offset: r24 at cfa-48
  DW_CFA_offset: r30 at cfa-56
  DW_CFA_offset: r29 at cfa-64
  DW_CFA_remember_state
  DW_CFA_advance_loc2: 296 to 0007be70
  DW_CFA_def_cfa: r31 ofs 64
  DW_CFA_advance_loc: 16 to 0007be80
  DW_CFA_def_cfa_offset: 0
  DW_CFA_restore: r19
  DW_CFA_restore: r20
  DW_CFA_restore: r21
  DW_CFA_restore: r22
  DW_CFA_restore: r23
  DW_CFA_restore: r24
  DW_CFA_restore: r30
  DW_CFA_restore: r29
  DW_CFA_advance_loc: 4 to 0007be84
  DW_CFA_restore_state
  DW_CFA_advance_loc: 12 to 0007be90
  DW_CFA_def_cfa: r31 ofs 64
  DW_CFA_advance_loc: 16 to 0007bea0
  DW_CFA_def_cfa_offset: 0
  DW_CFA_restore: r19
  DW_CFA_restore: r20
  DW_CFA_restore: r21
  DW_CFA_restore: r22
  DW_CFA_restore: r23
  DW_CFA_restore: r24
  DW_CFA_restore: r30
  DW_CFA_restore: r29
  DW_CFA_nop
  DW_CFA_nop
  DW_CFA_nop
  DW_CFA_nop
  DW_CFA_nop

00001908 00000014 0000190c FDE cie=00000000 pc=0007bea4..0007beb0
  DW_CFA_nop
  DW_CFA_nop
  DW_CFA_nop
  DW_CFA_nop
  DW_CFA_nop
  DW_CFA_nop
  DW_CFA_nop

00001920 00000014 00001924 FDE cie=00000000 pc=0007beb0..0007bebc
  DW_CFA_nop
  DW_CFA_nop
  DW_CFA_nop
  DW_CFA_nop
  DW_CFA_nop
  DW_CFA_nop
  DW_CFA_nop

00001938 00000024 0000193c FDE cie=00000000 pc=0007bebc..0007bf10
  DW_CFA_advance_loc: 4 to 0007bec0
  DW_CFA_def_cfa_offset: 32
  DW_CFA_advance_loc: 8 to 0007bec8
  DW_CFA_def_cfa: r29 ofs 32
  DW_CFA_offset: r19 at cfa-16
  DW_CFA_offset: r30 at cfa-24
  DW_CFA_offset: r29 at cfa-32
  DW_CFA_advance_loc: 60 to 0007bf04
  DW_CFA_def_cfa: r31 ofs 32
  DW_CFA_advance_loc: 8 to 0007bf0c
  DW_CFA_def_cfa_offset: 0
  DW_CFA_restore: r19
  DW_CFA_restore: r30
  DW_CFA_restore: r29

00001960 00000034 00001964 FDE cie=00000000 pc=0007bf10..0007bfe0
  DW_CFA_advance_loc: 4 to 0007bf14
  DW_CFA_def_cfa_offset: 64
  DW_CFA_advance_loc: 16 to 0007bf24
  DW_CFA_def_cfa: r29 ofs 64
  DW_CFA_offset: r19 at cfa-8
  DW_CFA_offset: r20 at cfa-16
  DW_CFA_offset: r21 at cfa-24
  DW_CFA_offset: r22 at cfa-32
  DW_CFA_offset: r23 at cfa-48
  DW_CFA_offset: r30 at cfa-56
  DW_CFA_offset: r29 at cfa-64
  DW_CFA_advance_loc1: 168 to 0007bfcc
  DW_CFA_def_cfa: r31 ofs 64
  DW_CFA_advance_loc: 16 to 0007bfdc
  DW_CFA_def_cfa_offset: 0
  DW_CFA_restore: r19
  DW_CFA_restore: r20
  DW_CFA_restore: r21
  DW_CFA_restore: r22
  DW_CFA_restore: r23
  DW_CFA_restore: r30
  DW_CFA_restore: r29
  DW_CFA_nop
  DW_CFA_nop
  DW_CFA_nop

00001998 00000014 0000199c FDE cie=00000000 pc=0007bfe0..0007c010
  DW_CFA_advance_loc: 4 to 0007bfe4
  DW_CFA_def_cfa_offset: 192
  DW_CFA_advance_loc: 40 to 0007c00c
  DW_CFA_def_cfa_offset: 0

000019b0 00000054 000019b4 FDE cie=00000000 pc=0007c010..0007c188
  DW_CFA_advance_loc: 4 to 0007c014
  DW_CFA_def_cfa_offset: 64
  DW_CFA_advance_loc: 16 to 0007c024
  DW_CFA_def_cfa: r29 ofs 64
  DW_CFA_offset: r19 at cfa-8
  DW_CFA_offset: r20 at cfa-16
  DW_CFA_offset: r21 at cfa-24
  DW_CFA_offset: r22 at cfa-32
  DW_CFA_offset: r23 at cfa-48
  DW_CFA_offset: r30 at cfa-56
  DW_CFA_offset: r29 at cfa-64
  DW_CFA_remember_state
  DW_CFA_advance_loc1: 108 to 0007c090
  DW_CFA_def_cfa: r31 ofs 64
  DW_CFA_advance_loc: 16 to 0007c0a0
  DW_CFA_def_cfa_offset: 0
  DW_CFA_restore: r19
  DW_CFA_restore: r20
  DW_CFA_restore: r21
  DW_CFA_restore: r22
  DW_CFA_restore: r23
  DW_CFA_restore: r30
  DW_CFA_restore: r29
  DW_CFA_advance_loc: 4 to 0007c0a4
  DW_CFA_restore_state
  DW_CFA_remember_state
  DW_CFA_advance_loc1: 172 to 0007c150
  DW_CFA_def_cfa: r31 ofs 64
  DW_CFA_advance_loc: 16 to 0007c160
  DW_CFA_def_cfa_offset: 0
  DW_CFA_restore: r19
  DW_CFA_restore: r20
  DW_CFA_restore: r21
  DW_CFA_restore: r22
  DW_CFA_restore: r23
  DW_CFA_restore: r30
  DW_CFA_restore: r29
  DW_CFA_advance_loc: 4 to 0007c164
  DW_CFA_restore_state
  DW_CFA_advance_loc: 16 to 0007c174
  DW_CFA_def_cfa: r31 ofs 64
  DW_CFA_advance_loc: 16 to 0007c184
  DW_CFA_def_cfa_offset: 0
  DW_CFA_restore: r19
  DW_CFA_restore: r20
  DW_CFA_restore: r21
  DW_CFA_restore: r22
  DW_CFA_restore: r23
  DW_CFA_restore: r30
  DW_CFA_restore: r29

00001a08 00000044 00001a0c FDE cie=00000000 pc=0007c188..0007c248
  DW_CFA_advance_loc: 4 to 0007c18c
  DW_CFA_def_cfa_offset: 48
  DW_CFA_advance_loc: 12 to 0007c198
  DW_CFA_def_cfa: r29 ofs 48
  DW_CFA_offset: r19 at cfa-8
  DW_CFA_offset: r20 at cfa-16
  DW_CFA_offset: r21 at cfa-32
  DW_CFA_offset: r30 at cfa-40
  DW_CFA_offset: r29 at cfa-48
  DW_CFA_remember_state
  DW_CFA_advance_loc1: 124 to 0007c214
  DW_CFA_def_cfa: r31 ofs 48
  DW_CFA_advance_loc: 12 to 0007c220
  DW_CFA_def_cfa_offset: 0
  DW_CFA_restore: r19
  DW_CFA_restore: r20
  DW_CFA_restore: r21
  DW_CFA_restore: r30
  DW_CFA_restore: r29
  DW_CFA_advance_loc: 4 to 0007c224
  DW_CFA_restore_state
  DW_CFA_advance_loc: 20 to 0007c238
  DW_CFA_def_cfa: r31 ofs 48
  DW_CFA_advance_loc: 12 to 0007c244
  DW_CFA_def_cfa_offset: 0
  DW_CFA_restore: r19
  DW_CFA_restore: r20
  DW_CFA_restore: r21
  DW_CFA_restore: r30
  DW_CFA_restore: r29
  DW_CFA_nop
  DW_CFA_nop
  DW_CFA_nop
  DW_CFA_nop
  DW_CFA_nop
  DW_CFA_nop
  DW_CFA_nop
  DW_CFA_nop
  DW_CFA_nop
  DW_CFA_nop

00001a50 00000024 00001a54 FDE cie=00000000 pc=0007c248..0007c28c
  DW_CFA_advance_loc: 4 to 0007c24c
  DW_CFA_def_cfa_offset: 32
  DW_CFA_advance_loc: 8 to 0007c254
  DW_CFA_def_cfa: r29 ofs 32
  DW_CFA_offset: r19 at cfa-16
  DW_CFA_offset: r30 at cfa-24
  DW_CFA_offset: r29 at cfa-32
  DW_CFA_advance_loc: 44 to 0007c280
  DW_CFA_def_cfa: r31 ofs 32
  DW_CFA_advance_loc: 8 to 0007c288
  DW_CFA_def_cfa_offset: 0
  DW_CFA_restore: r19
  DW_CFA_restore: r30
  DW_CFA_restore: r29

00001a78 0000003c 00001a7c FDE cie=00000000 pc=0007c28c..0007c328
  DW_CFA_advance_loc: 4 to 0007c290
  DW_CFA_def_cfa_offset: 32
  DW_CFA_advance_loc: 8 to 0007c298
  DW_CFA_def_cfa: r29 ofs 32
  DW_CFA_offset: r19 at cfa-8
  DW_CFA_offset: r20 at cfa-16
  DW_CFA_offset: r30 at cfa-24
  DW_CFA_offset: r29 at cfa-32
  DW_CFA_remember_state
  DW_CFA_advance_loc1: 112 to 0007c308
  DW_CFA_def_cfa: r31 ofs 32
  DW_CFA_advance_loc: 8 to 0007c310
  DW_CFA_def_cfa_offset: 0
  DW_CFA_restore: r19
  DW_CFA_restore: r20
  DW_CFA_restore: r30
  DW_CFA_restore: r29
  DW_CFA_advance_loc: 4 to 0007c314
  DW_CFA_restore_state
  DW_CFA_advance_loc: 8 to 0007c31c
  DW_CFA_def_cfa: r31 ofs 32
  DW_CFA_advance_loc: 8 to 0007c324
  DW_CFA_def_cfa_offset: 0
  DW_CFA_restore: r19
  DW_CFA_restore: r20
  DW_CFA_restore: r30
  DW_CFA_restore: r29
  DW_CFA_nop
  DW_CFA_nop
  DW_CFA_nop
  DW_CFA_nop
  DW_CFA_nop
  DW_CFA_nop

00001ab8 0000004c 00001abc FDE cie=00000000 pc=0007c328..0007c580
  DW_CFA_advance_loc: 4 to 0007c32c
  DW_CFA_def_cfa_offset: 64
  DW_CFA_advance_loc: 16 to 0007c33c
  DW_CFA_def_cfa: r29 ofs 64
  DW_CFA_offset: r19 at cfa-8
  DW_CFA_offset: r20 at cfa-16
  DW_CFA_offset: r21 at cfa-24
  DW_CFA_offset: r22 at cfa-32
  DW_CFA_offset: r23 at cfa-40
  DW_CFA_offset: r24 at cfa-48
  DW_CFA_offset: r30 at cfa-56
  DW_CFA_offset: r29 at cfa-64
  DW_CFA_remember_state
  DW_CFA_advance_loc2: 424 to 0007c4e4
  DW_CFA_def_cfa: r31 ofs 64
  DW_CFA_advance_loc: 16 to 0007c4f4
  DW_CFA_def_cfa_offset: 0
  DW_CFA_restore: r19
  DW_CFA_restore: r20
  DW_CFA_restore: r21
  DW_CFA_restore: r22
  DW_CFA_restore: r23
  DW_CFA_restore: r24
  DW_CFA_restore: r30
  DW_CFA_restore: r29
  DW_CFA_advance_loc: 4 to 0007c4f8
  DW_CFA_restore_state
  DW_CFA_advance_loc1: 116 to 0007c56c
  DW_CFA_def_cfa: r31 ofs 64
  DW_CFA_advance_loc: 16 to 0007c57c
  DW_CFA_def_cfa_offset: 0
  DW_CFA_restore: r19
  DW_CFA_restore: r20
  DW_CFA_restore: r21
  DW_CFA_restore: r22
  DW_CFA_restore: r23
  DW_CFA_restore: r24
  DW_CFA_restore: r30
  DW_CFA_restore: r29
  DW_CFA_nop
  DW_CFA_nop
  DW_CFA_nop
  DW_CFA_nop

00001b08 00000034 00001b0c FDE cie=00000000 pc=0007c580..0007c5c4
  DW_CFA_advance_loc: 4 to 0007c584
  DW_CFA_def_cfa_offset: 32
  DW_CFA_advance_loc: 8 to 0007c58c
  DW_CFA_def_cfa: r29 ofs 32
  DW_CFA_offset: r19 at cfa-8
  DW_CFA_offset: r20 at cfa-16
  DW_CFA_offset: r30 at cfa-24
  DW_CFA_offset: r29 at cfa-32
  DW_CFA_remember_state
  DW_CFA_advance_loc: 32 to 0007c5ac
  DW_CFA_def_cfa: r31 ofs 32
  DW_CFA_advance_loc: 8 to 0007c5b4
  DW_CFA_def_cfa_offset: 0
  DW_CFA_restore: r19
  DW_CFA_restore: r20
  DW_CFA_restore: r30
  DW_CFA_restore: r29
  DW_CFA_advance_loc: 4 to 0007c5b8
  DW_CFA_restore_state
  DW_CFA_def_cfa: r31 ofs 32
  DW_CFA_advance_loc: 8 to 0007c5c0
  DW_CFA_def_cfa_offset: 0
  DW_CFA_restore: r19
  DW_CFA_restore: r20
  DW_CFA_restore: r30
  DW_CFA_restore: r29

00001b40 0000002c 00001b44 FDE cie=00000000 pc=0007c5c4..0007c61c
  DW_CFA_advance_loc: 8 to 0007c5cc
  DW_CFA_def_cfa_offset: 32
  DW_CFA_advance_loc: 8 to 0007c5d4
  DW_CFA_def_cfa: r29 ofs 32
  DW_CFA_offset: r19 at cfa-8
  DW_CFA_offset: r20 at cfa-16
  DW_CFA_offset: r30 at cfa-24
  DW_CFA_offset: r29 at cfa-32
  DW_CFA_advance_loc: 56 to 0007c60c
  DW_CFA_def_cfa: r31 ofs 32
  DW_CFA_advance_loc: 8 to 0007c614
  DW_CFA_def_cfa_offset: 0
  DW_CFA_restore: r19
  DW_CFA_restore: r20
  DW_CFA_restore: r30
  DW_CFA_restore: r29
  DW_CFA_nop
  DW_CFA_nop
  DW_CFA_nop
  DW_CFA_nop
  DW_CFA_nop

00001b70 00000034 00001b74 FDE cie=00000000 pc=0007c61c..0007c6ec
  DW_CFA_advance_loc: 4 to 0007c620
  DW_CFA_def_cfa_offset: 48
  DW_CFA_advance_loc: 12 to 0007c62c
  DW_CFA_def_cfa: r29 ofs 48
  DW_CFA_offset: r19 at cfa-8
  DW_CFA_offset: r20 at cfa-16
  DW_CFA_offset: r21 at cfa-32
  DW_CFA_offset: r30 at cfa-40
  DW_CFA_offset: r29 at cfa-48
  DW_CFA_remember_state
  DW_CFA_advance_loc1: 160 to 0007c6cc
  DW_CFA_def_cfa: r31 ofs 48
  DW_CFA_advance_loc: 12 to 0007c6d8
  DW_CFA_def_cfa_offset: 0
  DW_CFA_restore: r19
  DW_CFA_restore: r20
  DW_CFA_restore: r21
  DW_CFA_restore: r30
  DW_CFA_restore: r29
  DW_CFA_advance_loc: 4 to 0007c6dc
  DW_CFA_restore_state
  DW_CFA_nop
  DW_CFA_nop
  DW_CFA_nop
  DW_CFA_nop
  DW_CFA_nop
  DW_CFA_nop

00001ba8 00000014 00001bac FDE cie=00000000 pc=0007c6ec..0007c718
  DW_CFA_nop
  DW_CFA_nop
  DW_CFA_nop
  DW_CFA_nop
  DW_CFA_nop
  DW_CFA_nop
  DW_CFA_nop

00001bc0 00000014 00001bc4 FDE cie=00000000 pc=0007c718..0007c760
  DW_CFA_nop
  DW_CFA_nop
  DW_CFA_nop
  DW_CFA_nop
  DW_CFA_nop
  DW_CFA_nop
  DW_CFA_nop

00001bd8 00000034 00001bdc FDE cie=00000000 pc=0007c760..0007c870
  DW_CFA_advance_loc: 20 to 0007c774
  DW_CFA_def_cfa_offset: 80
  DW_CFA_advance_loc: 20 to 0007c788
  DW_CFA_def_cfa: r29 ofs 64
  DW_CFA_offset: r15 at cfa-8
  DW_CFA_offset: r19 at cfa-16
  DW_CFA_offset: r20 at cfa-24
  DW_CFA_offset: r21 at cfa-32
  DW_CFA_offset: r22 at cfa-48
  DW_CFA_offset: r30 at cfa-56
  DW_CFA_offset: r29 at cfa-64
  DW_CFA_advance_loc1: 180 to 0007c83c
  DW_CFA_def_cfa: r31 ofs 80
  DW_CFA_advance_loc: 20 to 0007c850
  DW_CFA_def_cfa_offset: 0
  DW_CFA_restore: r15
  DW_CFA_restore: r19
  DW_CFA_restore: r20
  DW_CFA_restore: r21
  DW_CFA_restore: r22
  DW_CFA_restore: r30
  DW_CFA_restore: r29
  DW_CFA_nop
  DW_CFA_nop
  DW_CFA_nop

00001c10 00000024 00001c14 FDE cie=00000000 pc=0007c870..0007c894
  DW_CFA_advance_loc: 4 to 0007c874
  DW_CFA_def_cfa_offset: 16
  DW_CFA_advance_loc: 4 to 0007c878
  DW_CFA_def_cfa: r29 ofs 16
  DW_CFA_offset: r30 at cfa-8
  DW_CFA_offset: r29 at cfa-16
  DW_CFA_advance_loc: 20 to 0007c88c
  DW_CFA_def_cfa: r31 ofs 16
  DW_CFA_advance_loc: 4 to 0007c890
  DW_CFA_def_cfa_offset: 0
  DW_CFA_restore: r30
  DW_CFA_restore: r29
  DW_CFA_nop
  DW_CFA_nop
  DW_CFA_nop

00001c38 0000003c 00001c3c FDE cie=00000000 pc=0007c894..0007c92c
  DW_CFA_advance_loc: 4 to 0007c898
  DW_CFA_def_cfa_offset: 48
  DW_CFA_advance_loc: 12 to 0007c8a4
  DW_CFA_def_cfa: r29 ofs 48
  DW_CFA_offset: r19 at cfa-8
  DW_CFA_offset: r20 at cfa-16
  DW_CFA_offset: r21 at cfa-32
  DW_CFA_offset: r30 at cfa-40
  DW_CFA_offset: r29 at cfa-48
  DW_CFA_remember_state
  DW_CFA_advance_loc1: 84 to 0007c8f8
  DW_CFA_def_cfa: r31 ofs 48
  DW_CFA_advance_loc: 12 to 0007c904
  DW_CFA_def_cfa_offset: 0
  DW_CFA_restore: r19
  DW_CFA_restore: r20
  DW_CFA_restore: r21
  DW_CFA_restore: r30
  DW_CFA_restore: r29
  DW_CFA_advance_loc: 4 to 0007c908
  DW_CFA_restore_state
  DW_CFA_advance_loc: 20 to 0007c91c
  DW_CFA_def_cfa: r31 ofs 48
  DW_CFA_advance_loc: 12 to 0007c928
  DW_CFA_def_cfa_offset: 0
  DW_CFA_restore: r19
  DW_CFA_restore: r20
  DW_CFA_restore: r21
  DW_CFA_restore: r30
  DW_CFA_restore: r29
  DW_CFA_nop
  DW_CFA_nop

00001c78 00000034 00001c7c FDE cie=00000000 pc=0007c92c..0007c9d4
  DW_CFA_advance_loc: 8 to 0007c934
  DW_CFA_def_cfa_offset: 32
  DW_CFA_advance_loc: 8 to 0007c93c
  DW_CFA_def_cfa: r29 ofs 32
  DW_CFA_offset: r19 at cfa-16
  DW_CFA_offset: r30 at cfa-24
  DW_CFA_offset: r29 at cfa-32
  DW_CFA_remember_state
  DW_CFA_advance_loc1: 108 to 0007c9a8
  DW_CFA_def_cfa: r31 ofs 32
  DW_CFA_advance_loc: 8 to 0007c9b0
  DW_CFA_def_cfa_offset: 0
  DW_CFA_restore: r19
  DW_CFA_restore: r30
  DW_CFA_restore: r29
  DW_CFA_advance_loc: 8 to 0007c9b8
  DW_CFA_restore_state
  DW_CFA_advance_loc: 16 to 0007c9c8
  DW_CFA_def_cfa: r31 ofs 32
  DW_CFA_advance_loc: 8 to 0007c9d0
  DW_CFA_def_cfa_offset: 0
  DW_CFA_restore: r19
  DW_CFA_restore: r30
  DW_CFA_restore: r29
  DW_CFA_nop
  DW_CFA_nop

00001cb0 00000014 00001cb4 FDE cie=00000000 pc=0007c9d4..0007c9fc
  DW_CFA_nop
  DW_CFA_nop
  DW_CFA_nop
  DW_CFA_nop
  DW_CFA_nop
  DW_CFA_nop
  DW_CFA_nop

00001cc8 0000002c 00001ccc FDE cie=00000000 pc=0007c9fc..0007ca84
  DW_CFA_advance_loc: 8 to 0007ca04
  DW_CFA_def_cfa_offset: 32
  DW_CFA_advance_loc: 8 to 0007ca0c
  DW_CFA_def_cfa: r29 ofs 32
  DW_CFA_offset: r19 at cfa-8
  DW_CFA_offset: r20 at cfa-16
  DW_CFA_offset: r30 at cfa-24
  DW_CFA_offset: r29 at cfa-32
  DW_CFA_advance_loc1: 104 to 0007ca74
  DW_CFA_def_cfa: r31 ofs 32
  DW_CFA_advance_loc: 8 to 0007ca7c
  DW_CFA_def_cfa_offset: 0
  DW_CFA_restore: r19
  DW_CFA_restore: r20
  DW_CFA_restore: r30
  DW_CFA_restore: r29
  DW_CFA_nop
  DW_CFA_nop
  DW_CFA_nop
  DW_CFA_nop

00001cf8 0000002c 00001cfc FDE cie=00000000 pc=0007ca84..0007cb48
  DW_CFA_advance_loc: 20 to 0007ca98
  DW_CFA_def_cfa_offset: 64
  DW_CFA_advance_loc: 16 to 0007caa8
  DW_CFA_def_cfa: r29 ofs 48
  DW_CFA_offset: r15 at cfa-8
  DW_CFA_offset: r19 at cfa-16
  DW_CFA_offset: r20 at cfa-32
  DW_CFA_offset: r30 at cfa-40
  DW_CFA_offset: r29 at cfa-48
  DW_CFA_advance_loc1: 112 to 0007cb18
  DW_CFA_def_cfa: r31 ofs 64
  DW_CFA_advance_loc: 16 to 0007cb28
  DW_CFA_def_cfa_offset: 0
  DW_CFA_restore: r15
  DW_CFA_restore: r19
  DW_CFA_restore: r20
  DW_CFA_restore: r30
  DW_CFA_restore: r29
  DW_CFA_nop

00001d28 0000004c 00001d2c FDE cie=00000000 pc=0007cb48..0007cbe4
  DW_CFA_advance_loc: 4 to 0007cb4c
  DW_CFA_def_cfa_offset: 64
  DW_CFA_advance_loc: 16 to 0007cb5c
  DW_CFA_def_cfa: r29 ofs 64
  DW_CFA_offset: r19 at cfa-8
  DW_CFA_offset: r20 at cfa-16
  DW_CFA_offset: r21 at cfa-24
  DW_CFA_offset: r22 at cfa-32
  DW_CFA_offset: r23 at cfa-40
  DW_CFA_offset: r24 at cfa-48
  DW_CFA_offset: r30 at cfa-56
  DW_CFA_offset: r29 at cfa-64
  DW_CFA_remember_state
  DW_CFA_advance_loc1: 88 to 0007cbb4
  DW_CFA_def_cfa: r31 ofs 64
  DW_CFA_advance_loc: 16 to 0007cbc4
  DW_CFA_def_cfa_offset: 0
  DW_CFA_restore: r19
  DW_CFA_restore: r20
  DW_CFA_restore: r21
  DW_CFA_restore: r22
  DW_CFA_restore: r23
  DW_CFA_restore: r24
  DW_CFA_restore: r30
  DW_CFA_restore: r29
  DW_CFA_advance_loc: 4 to 0007cbc8
  DW_CFA_restore_state
  DW_CFA_advance_loc: 8 to 0007cbd0
  DW_CFA_def_cfa: r31 ofs 64
  DW_CFA_advance_loc: 16 to 0007cbe0
  DW_CFA_def_cfa_offset: 0
  DW_CFA_restore: r19
  DW_CFA_restore: r20
  DW_CFA_restore: r21
  DW_CFA_restore: r22
  DW_CFA_restore: r23
  DW_CFA_restore: r24
  DW_CFA_restore: r30
  DW_CFA_restore: r29
  DW_CFA_nop
  DW_CFA_nop
  DW_CFA_nop
  DW_CFA_nop
  DW_CFA_nop
  DW_CFA_nop

00001d78 00000034 00001d7c FDE cie=00000000 pc=0007cbe4..0007cc44
  DW_CFA_advance_loc: 4 to 0007cbe8
  DW_CFA_def_cfa_offset: 16
  DW_CFA_advance_loc: 4 to 0007cbec
  DW_CFA_def_cfa: r29 ofs 16
  DW_CFA_offset: r30 at cfa-8
  DW_CFA_offset: r29 at cfa-16
  DW_CFA_remember_state
  DW_CFA_advance_loc: 16 to 0007cbfc
  DW_CFA_def_cfa: r31 ofs 16
  DW_CFA_advance_loc: 4 to 0007cc00
  DW_CFA_def_cfa_offset: 0
  DW_CFA_restore: r30
  DW_CFA_restore: r29
  DW_CFA_advance_loc: 4 to 0007cc04
  DW_CFA_restore_state
  DW_CFA_advance_loc: 56 to 0007cc3c
  DW_CFA_def_cfa: r31 ofs 16
  DW_CFA_advance_loc: 4 to 0007cc40
  DW_CFA_def_cfa_offset: 0
  DW_CFA_restore: r30
  DW_CFA_restore: r29
  DW_CFA_nop
  DW_CFA_nop
  DW_CFA_nop
  DW_CFA_nop
  DW_CFA_nop
  DW_CFA_nop
  DW_CFA_nop

00001db0 00000034 00001db4 FDE cie=00000000 pc=0007cc44..0007ce30
  DW_CFA_advance_loc: 20 to 0007cc58
  DW_CFA_def_cfa_offset: 96
  DW_CFA_advance_loc: 16 to 0007cc68
  DW_CFA_def_cfa: r29 ofs 48
  DW_CFA_offset: r15 at cfa-8
  DW_CFA_offset: r19 at cfa-16
  DW_CFA_offset: r20 at cfa-24
  DW_CFA_offset: r21 at cfa-32
  DW_CFA_offset: r30 at cfa-40
  DW_CFA_offset: r29 at cfa-48
  DW_CFA_remember_state
  DW_CFA_advance_loc1: 212 to 0007cd3c
  DW_CFA_def_cfa: r31 ofs 96
  DW_CFA_advance_loc: 16 to 0007cd4c
  DW_CFA_def_cfa_offset: 0
  DW_CFA_restore: r15
  DW_CFA_restore: r19
  DW_CFA_restore: r20
  DW_CFA_restore: r21
  DW_CFA_restore: r30
  DW_CFA_restore: r29
  DW_CFA_advance_loc: 32 to 0007cd6c
  DW_CFA_restore_state
  DW_CFA_nop
  DW_CFA_nop
  DW_CFA_nop

00001de8 00000044 00001dec FDE cie=00000000 pc=0007ce30..0007d050
  DW_CFA_advance_loc: 20 to 0007ce44
  DW_CFA_def_cfa_offset: 128
  DW_CFA_advance_loc: 28 to 0007ce60
  DW_CFA_def_cfa: r29 ofs 96
  DW_CFA_offset: r15 at cfa-8
  DW_CFA_offset: r19 at cfa-16
  DW_CFA_offset: r20 at cfa-24
  DW_CFA_offset: r21 at cfa-32
  DW_CFA_offset: r22 at cfa-40
  DW_CFA_offset: r23 at cfa-48
  DW_CFA_offset: r24 at cfa-56
  DW_CFA_offset: r25 at cfa-64
  DW_CFA_offset: r26 at cfa-80
  DW_CFA_offset: r30 at cfa-88
  DW_CFA_offset: r29 at cfa-96
  DW_CFA_advance_loc2: 436 to 0007d014
  DW_CFA_def_cfa: r31 ofs 128
  DW_CFA_advance_loc: 28 to 0007d030
  DW_CFA_def_cfa_offset: 0
  DW_CFA_restore: r15
  DW_CFA_restore: r19
  DW_CFA_restore: r20
  DW_CFA_restore: r21
  DW_CFA_restore: r22
  DW_CFA_restore: r23
  DW_CFA_restore: r24
  DW_CFA_restore: r25
  DW_CFA_restore: r26
  DW_CFA_restore: r30
  DW_CFA_restore: r29
  DW_CFA_nop
  DW_CFA_nop
  DW_CFA_nop
  DW_CFA_nop

00001e30 00000034 00001e34 FDE cie=00000000 pc=0007d050..0007d0d4
  DW_CFA_advance_loc: 4 to 0007d054
  DW_CFA_def_cfa_offset: 32
  DW_CFA_advance_loc: 8 to 0007d05c
  DW_CFA_def_cfa: r29 ofs 32
  DW_CFA_offset: r19 at cfa-16
  DW_CFA_offset: r30 at cfa-24
  DW_CFA_offset: r29 at cfa-32
  DW_CFA_remember_state
  DW_CFA_advance_loc1: 96 to 0007d0bc
  DW_CFA_def_cfa: r31 ofs 32
  DW_CFA_advance_loc: 8 to 0007d0c4
  DW_CFA_def_cfa_offset: 0
  DW_CFA_restore: r19
  DW_CFA_restore: r30
  DW_CFA_restore: r29
  DW_CFA_advance_loc: 4 to 0007d0c8
  DW_CFA_restore_state
  DW_CFA_def_cfa: r31 ofs 32
  DW_CFA_advance_loc: 8 to 0007d0d0
  DW_CFA_def_cfa_offset: 0
  DW_CFA_restore: r19
  DW_CFA_restore: r30
  DW_CFA_restore: r29
  DW_CFA_nop
  DW_CFA_nop
  DW_CFA_nop

00001e68 00000044 00001e6c FDE cie=00000000 pc=0007d0d4..0007d380
  DW_CFA_advance_loc: 4 to 0007d0d8
  DW_CFA_def_cfa_offset: 112
  DW_CFA_advance_loc: 28 to 0007d0f4
  DW_CFA_def_cfa: r29 ofs 96
  DW_CFA_offset: r19 at cfa-8
  DW_CFA_offset: r20 at cfa-16
  DW_CFA_offset: r21 at cfa-24
  DW_CFA_offset: r22 at cfa-32
  DW_CFA_offset: r23 at cfa-40
  DW_CFA_offset: r24 at cfa-48
  DW_CFA_offset: r25 at cfa-56
  DW_CFA_offset: r26 at cfa-64
  DW_CFA_offset: r27 at cfa-72
  DW_CFA_offset: r28 at cfa-80
  DW_CFA_offset: r30 at cfa-88
  DW_CFA_offset: r29 at cfa-96
  DW_CFA_advance_loc2: 620 to 0007d360
  DW_CFA_def_cfa: r31 ofs 112
  DW_CFA_advance_loc: 28 to 0007d37c
  DW_CFA_def_cfa_offset: 0
  DW_CFA_restore: r19
  DW_CFA_restore: r20
  DW_CFA_restore: r21
  DW_CFA_restore: r22
  DW_CFA_restore: r23
  DW_CFA_restore: r24
  DW_CFA_restore: r25
  DW_CFA_restore: r26
  DW_CFA_restore: r27
  DW_CFA_restore: r28
  DW_CFA_restore: r30
  DW_CFA_restore: r29
  DW_CFA_nop
  DW_CFA_nop
  DW_CFA_nop

00001eb0 00000014 00001eb4 FDE cie=00000000 pc=0007d380..0007d388
  DW_CFA_nop
  DW_CFA_nop
  DW_CFA_nop
  DW_CFA_nop
  DW_CFA_nop
  DW_CFA_nop
  DW_CFA_nop

00001ec8 0000005c 00001ecc FDE cie=00000000 pc=0007d388..0007d5bc
  DW_CFA_advance_loc: 20 to 0007d39c
  DW_CFA_def_cfa_offset: 96
  DW_CFA_advance_loc: 20 to 0007d3b0
  DW_CFA_def_cfa: r29 ofs 64
  DW_CFA_offset: r15 at cfa-8
  DW_CFA_offset: r19 at cfa-16
  DW_CFA_offset: r20 at cfa-24
  DW_CFA_offset: r21 at cfa-32
  DW_CFA_offset: r22 at cfa-48
  DW_CFA_offset: r30 at cfa-56
  DW_CFA_offset: r29 at cfa-64
  DW_CFA_remember_state
  DW_CFA_advance_loc1: 196 to 0007d474
  DW_CFA_def_cfa: r31 ofs 96
  DW_CFA_advance_loc: 20 to 0007d488
  DW_CFA_def_cfa_offset: 0
  DW_CFA_restore: r15
  DW_CFA_restore: r19
  DW_CFA_restore: r20
  DW_CFA_restore: r21
  DW_CFA_restore: r22
  DW_CFA_restore: r30
  DW_CFA_restore: r29
  DW_CFA_advance_loc: 4 to 0007d48c
  DW_CFA_restore_state
  DW_CFA_remember_state
  DW_CFA_advance_loc1: 112 to 0007d4fc
  DW_CFA_def_cfa: r31 ofs 96
  DW_CFA_advance_loc: 20 to 0007d510
  DW_CFA_def_cfa_offset: 0
  DW_CFA_restore: r15
  DW_CFA_restore: r19
  DW_CFA_restore: r20
  DW_CFA_restore: r21
  DW_CFA_restore: r22
  DW_CFA_restore: r30
  DW_CFA_restore: r29
  DW_CFA_advance_loc: 32 to 0007d530
  DW_CFA_restore_state
  DW_CFA_remember_state
  DW_CFA_advance_loc: 28 to 0007d54c
  DW_CFA_def_cfa: r31 ofs 96
  DW_CFA_advance_loc: 20 to 0007d560
  DW_CFA_def_cfa_offset: 0
  DW_CFA_restore: r15
  DW_CFA_restore: r19
  DW_CFA_restore: r20
  DW_CFA_restore: r21
  DW_CFA_restore: r22
  DW_CFA_restore: r30
  DW_CFA_restore: r29
  DW_CFA_advance_loc: 4 to 0007d564
  DW_CFA_restore_state
  DW_CFA_nop
  DW_CFA_nop
  DW_CFA_nop
  DW_CFA_nop
  DW_CFA_nop

00001f28 00000014 00001f2c FDE cie=00000000 pc=0007d5bc..0007d5c0
  DW_CFA_nop
  DW_CFA_nop
  DW_CFA_nop
  DW_CFA_nop
  DW_CFA_nop
  DW_CFA_nop
  DW_CFA_nop

00001f40 00000034 00001f44 FDE cie=00000000 pc=0007d5c0..0007d79c
  DW_CFA_advance_loc: 20 to 0007d5d4
  DW_CFA_def_cfa_offset: 48
  DW_CFA_advance_loc: 12 to 0007d5e0
  DW_CFA_def_cfa: r29 ofs 48
  DW_CFA_offset: r15 at cfa-8
  DW_CFA_offset: r19 at cfa-16
  DW_CFA_offset: r20 at cfa-24
  DW_CFA_offset: r28 at cfa-32
  DW_CFA_offset: r30 at cfa-40
  DW_CFA_offset: r29 at cfa-48
  DW_CFA_advance_loc2: 400 to 0007d770
  DW_CFA_def_cfa: r31 ofs 48
  DW_CFA_advance_loc: 12 to 0007d77c
  DW_CFA_def_cfa_offset: 0
  DW_CFA_restore: r15
  DW_CFA_restore: r19
  DW_CFA_restore: r20
  DW_CFA_restore: r28
  DW_CFA_restore: r30
  DW_CFA_restore: r29
  DW_CFA_nop
  DW_CFA_nop
  DW_CFA_nop
  DW_CFA_nop
  DW_CFA_nop

00001f78 00000014 00001f7c FDE cie=00000000 pc=0007d79c..0007d7a8
  DW_CFA_nop
  DW_CFA_nop
  DW_CFA_nop
  DW_CFA_nop
  DW_CFA_nop
  DW_CFA_nop
  DW_CFA_nop

00001f90 00000014 00001f94 FDE cie=00000000 pc=0007d7a8..0007d7b4
  DW_CFA_nop
  DW_CFA_nop
  DW_CFA_nop
  DW_CFA_nop
  DW_CFA_nop
  DW_CFA_nop
  DW_CFA_nop

00001fa8 00000014 00001fac FDE cie=00000000 pc=0007ef80..0007f05c
  DW_CFA_nop
  DW_CFA_nop
  DW_CFA_nop
  DW_CFA_nop
  DW_CFA_nop
  DW_CFA_nop
  DW_CFA_nop

00001fc0 00000014 00001fc4 FDE cie=00000000 pc=0007f080..0007f190
  DW_CFA_nop
  DW_CFA_nop
  DW_CFA_nop
  DW_CFA_nop
  DW_CFA_nop
  DW_CFA_nop
  DW_CFA_nop

00001fd8 00000014 00001fdc FDE cie=00000000 pc=0007f1c0..0007f3fc
  DW_CFA_nop
  DW_CFA_nop
  DW_CFA_nop
  DW_CFA_nop
  DW_CFA_nop
  DW_CFA_nop
  DW_CFA_nop

00001ff0 00000014 00001ff4 FDE cie=00000000 pc=0007f400..0007f504
  DW_CFA_nop
  DW_CFA_nop
  DW_CFA_nop
  DW_CFA_nop
  DW_CFA_nop
  DW_CFA_nop
  DW_CFA_nop

00002008 00000014 0000200c FDE cie=00000000 pc=0007f540..0007f6fc
  DW_CFA_nop
  DW_CFA_nop
  DW_CFA_nop
  DW_CFA_nop
  DW_CFA_nop
  DW_CFA_nop
  DW_CFA_nop

00002020 00000014 00002024 FDE cie=00000000 pc=0007f700..0007f7cc
  DW_CFA_nop
  DW_CFA_nop
  DW_CFA_nop
  DW_CFA_nop
  DW_CFA_nop
  DW_CFA_nop
  DW_CFA_nop

00002038 00000014 0000203c FDE cie=00000000 pc=0007f800..0007f8ac
  DW_CFA_nop
  DW_CFA_nop
  DW_CFA_nop
  DW_CFA_nop
  DW_CFA_nop
  DW_CFA_nop
  DW_CFA_nop

00002050 00000014 00002054 FDE cie=00000000 pc=0007f8c0..0007f9a8
  DW_CFA_nop
  DW_CFA_nop
  DW_CFA_nop
  DW_CFA_nop
  DW_CFA_nop
  DW_CFA_nop
  DW_CFA_nop

00002068 00000014 0000206c FDE cie=00000000 pc=0007f9c0..0007fb78
  DW_CFA_nop
  DW_CFA_nop
  DW_CFA_nop
  DW_CFA_nop
  DW_CFA_nop
  DW_CFA_nop
  DW_CFA_nop

00002080 00000014 00002084 FDE cie=00000000 pc=0007fb80..0007fcbc
  DW_CFA_nop
  DW_CFA_nop
  DW_CFA_nop
  DW_CFA_nop
  DW_CFA_nop
  DW_CFA_nop
  DW_CFA_nop

00002098 00000014 0000209c FDE cie=00000000 pc=0007fcc0..0007fe84
  DW_CFA_nop
  DW_CFA_nop
  DW_CFA_nop
  DW_CFA_nop
  DW_CFA_nop
  DW_CFA_nop
  DW_CFA_nop

000020b0 00000014 000020b4 FDE cie=00000000 pc=0007fec0..0007ff84
  DW_CFA_nop
  DW_CFA_nop
  DW_CFA_nop
  DW_CFA_nop
  DW_CFA_nop
  DW_CFA_nop
  DW_CFA_nop

000020c8 00000014 000020cc FDE cie=00000000 pc=0007ffc0..000800c4
  DW_CFA_nop
  DW_CFA_nop
  DW_CFA_nop
  DW_CFA_nop
  DW_CFA_nop
  DW_CFA_nop
  DW_CFA_nop

000020e0 0000002c 000020e4 FDE cie=00000000 pc=000800c4..000800e8
  DW_CFA_advance_loc: 4 to 000800c8
  DW_CFA_def_cfa_offset: 32
  DW_CFA_advance_loc: 8 to 000800d0
  DW_CFA_def_cfa: r29 ofs 32
  DW_CFA_offset: r19 at cfa-16
  DW_CFA_offset: r30 at cfa-24
  DW_CFA_offset: r29 at cfa-32
  DW_CFA_advance_loc: 12 to 000800dc
  DW_CFA_def_cfa: r31 ofs 32
  DW_CFA_advance_loc: 8 to 000800e4
  DW_CFA_def_cfa_offset: 0
  DW_CFA_restore: r19
  DW_CFA_restore: r30
  DW_CFA_restore: r29
  DW_CFA_nop
  DW_CFA_nop
  DW_CFA_nop
  DW_CFA_nop
  DW_CFA_nop
  DW_CFA_nop
  DW_CFA_nop
  DW_CFA_nop

00002110 00000034 00002114 FDE cie=00000000 pc=000800e8..00080180
  DW_CFA_advance_loc: 4 to 000800ec
  DW_CFA_def_cfa_offset: 32
  DW_CFA_advance_loc: 8 to 000800f4
  DW_CFA_def_cfa: r29 ofs 32
  DW_CFA_offset: r19 at cfa-16
  DW_CFA_offset: r30 at cfa-24
  DW_CFA_offset: r29 at cfa-32
  DW_CFA_remember_state
  DW_CFA_advance_loc1: 108 to 00080160
  DW_CFA_def_cfa: r31 ofs 32
  DW_CFA_advance_loc: 8 to 00080168
  DW_CFA_def_cfa_offset: 0
  DW_CFA_restore: r19
  DW_CFA_restore: r30
  DW_CFA_restore: r29
  DW_CFA_advance_loc: 4 to 0008016c
  DW_CFA_restore_state
  DW_CFA_advance_loc: 8 to 00080174
  DW_CFA_def_cfa: r31 ofs 32
  DW_CFA_advance_loc: 8 to 0008017c
  DW_CFA_def_cfa_offset: 0
  DW_CFA_restore: r19
  DW_CFA_restore: r30
  DW_CFA_restore: r29
  DW_CFA_nop
  DW_CFA_nop

00002148 00000034 0000214c FDE cie=00000000 pc=00080180..00080234
  DW_CFA_advance_loc: 4 to 00080184
  DW_CFA_def_cfa_offset: 64
  DW_CFA_advance_loc: 16 to 00080194
  DW_CFA_def_cfa: r29 ofs 64
  DW_CFA_offset: r19 at cfa-8
  DW_CFA_offset: r20 at cfa-16
  DW_CFA_offset: r21 at cfa-24
  DW_CFA_offset: r22 at cfa-32
  DW_CFA_offset: r23 at cfa-48
  DW_CFA_offset: r30 at cfa-56
  DW_CFA_offset: r29 at cfa-64
  DW_CFA_advance_loc1: 140 to 00080220
  DW_CFA_def_cfa: r31 ofs 64
  DW_CFA_advance_loc: 16 to 00080230
  DW_CFA_def_cfa_offset: 0
  DW_CFA_restore: r19
  DW_CFA_restore: r20
  DW_CFA_restore: r21
  DW_CFA_restore: r22
  DW_CFA_restore: r23
  DW_CFA_restore: r30
  DW_CFA_restore: r29
  DW_CFA_nop
  DW_CFA_nop
  DW_CFA_nop

00002180 0000002c 00002184 FDE cie=00000000 pc=00080234..000804a4
  DW_CFA_advance_loc: 20 to 00080248
  DW_CFA_def_cfa_offset: 384
  DW_CFA_advance_loc: 12 to 00080254
  DW_CFA_def_cfa: r29 ofs 32
  DW_CFA_offset: r15 at cfa-8
  DW_CFA_offset: r28 at cfa-16
  DW_CFA_offset: r30 at cfa-24
  DW_CFA_offset: r29 at cfa-32
  DW_CFA_advance_loc2: 548 to 00080478
  DW_CFA_def_cfa: r31 ofs 384
  DW_CFA_advance_loc: 12 to 00080484
  DW_CFA_def_cfa_offset: 0
  DW_CFA_restore: r15
  DW_CFA_restore: r28
  DW_CFA_restore: r30
  DW_CFA_restore: r29
  DW_CFA_nop

000021b0 0000002c 000021b4 FDE cie=00000000 pc=000804a4..000804f4
  DW_CFA_advance_loc: 4 to 000804a8
  DW_CFA_def_cfa_offset: 48
  DW_CFA_advance_loc: 12 to 000804b4
  DW_CFA_def_cfa: r29 ofs 48
  DW_CFA_offset: r19 at cfa-8
  DW_CFA_offset: r20 at cfa-16
  DW_CFA_offset: r21 at cfa-32
  DW_CFA_offset: r30 at cfa-40
  DW_CFA_offset: r29 at cfa-48
  DW_CFA_advance_loc: 48 to 000804e4
  DW_CFA_def_cfa: r31 ofs 48
  DW_CFA_advance_loc: 12 to 000804f0
  DW_CFA_def_cfa_offset: 0
  DW_CFA_restore: r19
  DW_CFA_restore: r20
  DW_CFA_restore: r21
  DW_CFA_restore: r30
  DW_CFA_restore: r29
  DW_CFA_nop
  DW_CFA_nop

000021e0 00000024 000021e4 FDE cie=00000000 pc=000804f4..0008053c
  DW_CFA_advance_loc: 4 to 000804f8
  DW_CFA_def_cfa_offset: 48
  DW_CFA_advance_loc: 12 to 00080504
  DW_CFA_def_cfa: r29 ofs 48
  DW_CFA_offset: r19 at cfa-8
  DW_CFA_offset: r20 at cfa-16
  DW_CFA_offset: r21 at cfa-24
  DW_CFA_offset: r22 at cfa-32
  DW_CFA_offset: r30 at cfa-40
  DW_CFA_offset: r29 at cfa-48
  DW_CFA_nop
  DW_CFA_nop
  DW_CFA_nop
  DW_CFA_nop

00002208 0000002c 0000220c FDE cie=00000000 pc=0008053c..00080598
  DW_CFA_advance_loc: 4 to 00080540
  DW_CFA_def_cfa_offset: 32
  DW_CFA_advance_loc: 8 to 00080548
  DW_CFA_def_cfa: r29 ofs 32
  DW_CFA_offset: r19 at cfa-16
  DW_CFA_offset: r30 at cfa-24
  DW_CFA_offset: r29 at cfa-32
  DW_CFA_advance_loc1: 68 to 0008058c
  DW_CFA_def_cfa: r31 ofs 32
  DW_CFA_advance_loc: 8 to 00080594
  DW_CFA_def_cfa_offset: 0
  DW_CFA_restore: r19
  DW_CFA_restore: r30
  DW_CFA_restore: r29
  DW_CFA_nop
  DW_CFA_nop
  DW_CFA_nop
  DW_CFA_nop
  DW_CFA_nop
  DW_CFA_nop
  DW_CFA_nop

00002238 00000014 0000223c FDE cie=00000000 pc=00080598..000805a4
  DW_CFA_nop
  DW_CFA_nop
  DW_CFA_nop
  DW_CFA_nop
  DW_CFA_nop
  DW_CFA_nop
  DW_CFA_nop

00002250 0000003c 00002254 FDE cie=00000000 pc=000805b0..000806bc
  DW_CFA_advance_loc: 20 to 000805c4
  DW_CFA_def_cfa_offset: 48
  DW_CFA_advance_loc: 12 to 000805d0
  DW_CFA_def_cfa: r29 ofs 32
  DW_CFA_offset: r15 at cfa-16
  DW_CFA_offset: r30 at cfa-24
  DW_CFA_offset: r29 at cfa-32
  DW_CFA_remember_state
  DW_CFA_advance_loc1: 84 to 00080624
  DW_CFA_def_cfa: r31 ofs 48
  DW_CFA_advance_loc: 12 to 00080630
  DW_CFA_def_cfa_offset: 0
  DW_CFA_restore: r15
  DW_CFA_restore: r30
  DW_CFA_restore: r29
  DW_CFA_advance_loc: 4 to 00080634
  DW_CFA_restore_state
  DW_CFA_advance_loc1: 92 to 00080690
  DW_CFA_def_cfa: r31 ofs 48
  DW_CFA_advance_loc: 12 to 0008069c
  DW_CFA_def_cfa_offset: 0
  DW_CFA_restore: r15
  DW_CFA_restore: r30
  DW_CFA_restore: r29
  DW_CFA_nop
  DW_CFA_nop
  DW_CFA_nop
  DW_CFA_nop
  DW_CFA_nop
  DW_CFA_nop
  DW_CFA_nop
  DW_CFA_nop
  DW_CFA_nop

00002290 00000014 00002294 FDE cie=00000000 pc=000806bc..00080790
  DW_CFA_nop
  DW_CFA_nop
  DW_CFA_nop
  DW_CFA_nop
  DW_CFA_nop
  DW_CFA_nop
  DW_CFA_nop

000022a8 00000014 000022ac FDE cie=00000000 pc=00080790..00080820
  DW_CFA_nop
  DW_CFA_nop
  DW_CFA_nop
  DW_CFA_nop
  DW_CFA_nop
  DW_CFA_nop
  DW_CFA_nop

000022c0 00000014 000022c4 FDE cie=00000000 pc=00080820..00080908
  DW_CFA_nop
  DW_CFA_nop
  DW_CFA_nop
  DW_CFA_nop
  DW_CFA_nop
  DW_CFA_nop
  DW_CFA_nop

000022d8 00000014 000022dc FDE cie=00000000 pc=00080908..00080990
  DW_CFA_nop
  DW_CFA_nop
  DW_CFA_nop
  DW_CFA_nop
  DW_CFA_nop
  DW_CFA_nop
  DW_CFA_nop

000022f0 00000014 000022f4 FDE cie=00000000 pc=00080990..00080a3c
  DW_CFA_nop
  DW_CFA_nop
  DW_CFA_nop
  DW_CFA_nop
  DW_CFA_nop
  DW_CFA_nop
  DW_CFA_nop

00002308 00000014 0000230c FDE cie=00000000 pc=00080a3c..00080b00
  DW_CFA_nop
  DW_CFA_nop
  DW_CFA_nop
  DW_CFA_nop
  DW_CFA_nop
  DW_CFA_nop
  DW_CFA_nop

00002320 00000014 00002324 FDE cie=00000000 pc=00080b00..00080cac
  DW_CFA_nop
  DW_CFA_nop
  DW_CFA_nop
  DW_CFA_nop
  DW_CFA_nop
  DW_CFA_nop
  DW_CFA_nop

00002338 00000014 0000233c FDE cie=00000000 pc=00080cac..00080e60
  DW_CFA_nop
  DW_CFA_nop
  DW_CFA_nop
  DW_CFA_nop
  DW_CFA_nop
  DW_CFA_nop
  DW_CFA_nop

00002350 00000014 00002354 FDE cie=00000000 pc=00080e60..00081004
  DW_CFA_nop
  DW_CFA_nop
  DW_CFA_nop
  DW_CFA_nop
  DW_CFA_nop
  DW_CFA_nop
  DW_CFA_nop

00002368 00000014 0000236c FDE cie=00000000 pc=00081004..000810dc
  DW_CFA_nop
  DW_CFA_nop
  DW_CFA_nop
  DW_CFA_nop
  DW_CFA_nop
  DW_CFA_nop
  DW_CFA_nop

00002380 0000002c 00002384 FDE cie=00000000 pc=000810dc..00081124
  DW_CFA_advance_loc: 52 to 00081110
  DW_CFA_def_cfa_offset: 16
  DW_CFA_advance_loc: 4 to 00081114
  DW_CFA_def_cfa: r29 ofs 16
  DW_CFA_offset: r30 at cfa-8
  DW_CFA_offset: r29 at cfa-16
  DW_CFA_advance_loc: 8 to 0008111c
  DW_CFA_def_cfa: r31 ofs 16
  DW_CFA_advance_loc: 4 to 00081120
  DW_CFA_def_cfa_offset: 0
  DW_CFA_restore: r30
  DW_CFA_restore: r29
  DW_CFA_nop
  DW_CFA_nop
  DW_CFA_nop
  DW_CFA_nop
  DW_CFA_nop
  DW_CFA_nop
  DW_CFA_nop
  DW_CFA_nop
  DW_CFA_nop
  DW_CFA_nop
  DW_CFA_nop

000023b0 00000014 000023b4 FDE cie=00000000 pc=00081124..000811f8
  DW_CFA_nop
  DW_CFA_nop
  DW_CFA_nop
  DW_CFA_nop
  DW_CFA_nop
  DW_CFA_nop
  DW_CFA_nop

000023c8 0000003c 000023cc FDE cie=00000000 pc=000811f8..00081310
  DW_CFA_advance_loc: 20 to 0008120c
  DW_CFA_def_cfa_offset: 48
  DW_CFA_advance_loc: 12 to 00081218
  DW_CFA_def_cfa: r29 ofs 32
  DW_CFA_offset: r15 at cfa-16
  DW_CFA_offset: r30 at cfa-24
  DW_CFA_offset: r29 at cfa-32
  DW_CFA_remember_state
  DW_CFA_advance_loc1: 84 to 0008126c
  DW_CFA_def_cfa: r31 ofs 48
  DW_CFA_advance_loc: 12 to 00081278
  DW_CFA_def_cfa_offset: 0
  DW_CFA_restore: r15
  DW_CFA_restore: r30
  DW_CFA_restore: r29
  DW_CFA_advance_loc: 4 to 0008127c
  DW_CFA_restore_state
  DW_CFA_advance_loc1: 104 to 000812e4
  DW_CFA_def_cfa: r31 ofs 48
  DW_CFA_advance_loc: 12 to 000812f0
  DW_CFA_def_cfa_offset: 0
  DW_CFA_restore: r15
  DW_CFA_restore: r30
  DW_CFA_restore: r29
  DW_CFA_nop
  DW_CFA_nop
  DW_CFA_nop
  DW_CFA_nop
  DW_CFA_nop
  DW_CFA_nop
  DW_CFA_nop
  DW_CFA_nop
  DW_CFA_nop

00002408 0000003c 0000240c FDE cie=00000000 pc=00081310..00081498
  DW_CFA_advance_loc: 20 to 00081324
  DW_CFA_def_cfa_offset: 80
  DW_CFA_advance_loc: 20 to 00081338
  DW_CFA_def_cfa: r29 ofs 48
  DW_CFA_offset: r15 at cfa-8
  DW_CFA_offset: r19 at cfa-16
  DW_CFA_offset: r20 at cfa-24
  DW_CFA_offset: r21 at cfa-32
  DW_CFA_offset: r30 at cfa-40
  DW_CFA_offset: r29 at cfa-48
  DW_CFA_offset_extended: r72 at cfa-64
  DW_CFA_advance_loc2: 300 to 00081464
  DW_CFA_def_cfa: r31 ofs 80
  DW_CFA_advance_loc: 20 to 00081478
  DW_CFA_def_cfa_offset: 0
  DW_CFA_restore: r15
  DW_CFA_restore: r19
  DW_CFA_restore: r20
  DW_CFA_restore: r21
  DW_CFA_restore: r30
  DW_CFA_restore: r29
  DW_CFA_restore_extended: r72
  DW_CFA_nop
  DW_CFA_nop
  DW_CFA_nop
  DW_CFA_nop
  DW_CFA_nop
  DW_CFA_nop
  DW_CFA_nop
  DW_CFA_nop

00002448 00000014 0000244c FDE cie=00000000 pc=00081498..0008182c
  DW_CFA_nop
  DW_CFA_nop
  DW_CFA_nop
  DW_CFA_nop
  DW_CFA_nop
  DW_CFA_nop
  DW_CFA_nop

00002460 00000014 00002464 FDE cie=00000000 pc=0008182c..000818d0
  DW_CFA_nop
  DW_CFA_nop
  DW_CFA_nop
  DW_CFA_nop
  DW_CFA_nop
  DW_CFA_nop
  DW_CFA_nop

00002478 00000014 0000247c FDE cie=00000000 pc=000818d0..00081b64
  DW_CFA_nop
  DW_CFA_nop
  DW_CFA_nop
  DW_CFA_nop
  DW_CFA_nop
  DW_CFA_nop
  DW_CFA_nop

00002490 00000044 00002494 FDE cie=00000000 pc=00081b64..00081cec
  DW_CFA_advance_loc: 20 to 00081b78
  DW_CFA_def_cfa_offset: 48
  DW_CFA_advance_loc: 12 to 00081b84
  DW_CFA_def_cfa: r29 ofs 32
  DW_CFA_offset: r15 at cfa-8
  DW_CFA_offset: r19 at cfa-16
  DW_CFA_offset: r30 at cfa-24
  DW_CFA_offset: r29 at cfa-32
  DW_CFA_remember_state
  DW_CFA_advance_loc1: 204 to 00081c50
  DW_CFA_def_cfa: r31 ofs 48
  DW_CFA_advance_loc: 12 to 00081c5c
  DW_CFA_def_cfa_offset: 0
  DW_CFA_restore: r15
  DW_CFA_restore: r19
  DW_CFA_restore: r30
  DW_CFA_restore: r29
  DW_CFA_advance_loc: 32 to 00081c7c
  DW_CFA_restore_state
  DW_CFA_remember_state
  DW_CFA_advance_loc1: 80 to 00081ccc
  DW_CFA_def_cfa: r31 ofs 48
  DW_CFA_advance_loc: 12 to 00081cd8
  DW_CFA_def_cfa_offset: 0
  DW_CFA_restore: r15
  DW_CFA_restore: r19
  DW_CFA_restore: r30
  DW_CFA_restore: r29
  DW_CFA_advance_loc: 4 to 00081cdc
  DW_CFA_restore_state
  DW_CFA_def_cfa: r31 ofs 48
  DW_CFA_advance_loc: 12 to 00081ce8
  DW_CFA_def_cfa_offset: 0
  DW_CFA_restore: r15
  DW_CFA_restore: r19
  DW_CFA_restore: r30
  DW_CFA_restore: r29

000024d8 00000014 000024dc FDE cie=00000000 pc=00081cec..00081d40
  DW_CFA_nop
  DW_CFA_nop
  DW_CFA_nop
  DW_CFA_nop
  DW_CFA_nop
  DW_CFA_nop
  DW_CFA_nop

000024f0 00000014 000024f4 FDE cie=00000000 pc=00081d40..00081da8
  DW_CFA_nop
  DW_CFA_nop
  DW_CFA_nop
  DW_CFA_nop
  DW_CFA_nop
  DW_CFA_nop
  DW_CFA_nop

00002508 00000014 0000250c FDE cie=00000000 pc=00081da8..00081fe8
  DW_CFA_nop
  DW_CFA_nop
  DW_CFA_nop
  DW_CFA_nop
  DW_CFA_nop
  DW_CFA_nop
  DW_CFA_nop

00002520 00000044 00002524 FDE cie=00000000 pc=00081fe8..00082170
  DW_CFA_advance_loc: 20 to 00081ffc
  DW_CFA_def_cfa_offset: 48
  DW_CFA_advance_loc: 12 to 00082008
  DW_CFA_def_cfa: r29 ofs 32
  DW_CFA_offset: r15 at cfa-8
  DW_CFA_offset: r19 at cfa-16
  DW_CFA_offset: r30 at cfa-24
  DW_CFA_offset: r29 at cfa-32
  DW_CFA_remember_state
  DW_CFA_advance_loc1: 200 to 000820d0
  DW_CFA_def_cfa: r31 ofs 48
  DW_CFA_advance_loc: 12 to 000820dc
  DW_CFA_def_cfa_offset: 0
  DW_CFA_restore: r15
  DW_CFA_restore: r19
  DW_CFA_restore: r30
  DW_CFA_restore: r29
  DW_CFA_advance_loc: 32 to 000820fc
  DW_CFA_restore_state
  DW_CFA_remember_state
  DW_CFA_advance_loc1: 84 to 00082150
  DW_CFA_def_cfa: r31 ofs 48
  DW_CFA_advance_loc: 12 to 0008215c
  DW_CFA_def_cfa_offset: 0
  DW_CFA_restore: r15
  DW_CFA_restore: r19
  DW_CFA_restore: r30
  DW_CFA_restore: r29
  DW_CFA_advance_loc: 4 to 00082160
  DW_CFA_restore_state
  DW_CFA_def_cfa: r31 ofs 48
  DW_CFA_advance_loc: 12 to 0008216c
  DW_CFA_def_cfa_offset: 0
  DW_CFA_restore: r15
  DW_CFA_restore: r19
  DW_CFA_restore: r30
  DW_CFA_restore: r29

00002568 00000014 0000256c FDE cie=00000000 pc=00082170..000821c4
  DW_CFA_nop
  DW_CFA_nop
  DW_CFA_nop
  DW_CFA_nop
  DW_CFA_nop
  DW_CFA_nop
  DW_CFA_nop

00002580 00000014 00002584 FDE cie=00000000 pc=000821c4..0008222c
  DW_CFA_nop
  DW_CFA_nop
  DW_CFA_nop
  DW_CFA_nop
  DW_CFA_nop
  DW_CFA_nop
  DW_CFA_nop

00002598 00000024 0000259c FDE cie=00000000 pc=0008235c..00082370
  DW_CFA_advance_loc: 4 to 00082360
  DW_CFA_def_cfa_offset: 16
  DW_CFA_advance_loc: 4 to 00082364
  DW_CFA_def_cfa: r29 ofs 16
  DW_CFA_offset: r30 at cfa-8
  DW_CFA_offset: r29 at cfa-16
  DW_CFA_advance_loc: 4 to 00082368
  DW_CFA_def_cfa: r31 ofs 16
  DW_CFA_advance_loc: 4 to 0008236c
  DW_CFA_def_cfa_offset: 0
  DW_CFA_restore: r30
  DW_CFA_restore: r29
  DW_CFA_nop
  DW_CFA_nop
  DW_CFA_nop

000025c0 00000014 000025c4 FDE cie=00000000 pc=000831cc..00083204
  DW_CFA_nop
  DW_CFA_nop
  DW_CFA_nop
  DW_CFA_nop
  DW_CFA_nop
  DW_CFA_nop
  DW_CFA_nop

000025d8 00000014 000025dc FDE cie=00000000 pc=00083204..00083244
  DW_CFA_nop
  DW_CFA_nop
  DW_CFA_nop
  DW_CFA_nop
  DW_CFA_nop
  DW_CFA_nop
  DW_CFA_nop

000025f0 00000014 000025f4 FDE cie=00000000 pc=00083244..00083248
  DW_CFA_nop
  DW_CFA_nop
  DW_CFA_nop
  DW_CFA_nop
  DW_CFA_nop
  DW_CFA_nop
  DW_CFA_nop

00002608 00000044 0000260c FDE cie=00000000 pc=00083248..00083f08
  DW_CFA_advance_loc: 4 to 0008324c
  DW_CFA_def_cfa_offset: 224
  DW_CFA_advance_loc: 28 to 00083268
  DW_CFA_def_cfa: r29 ofs 96
  DW_CFA_offset: r19 at cfa-8
  DW_CFA_offset: r20 at cfa-16
  DW_CFA_offset: r21 at cfa-24
  DW_CFA_offset: r22 at cfa-32
  DW_CFA_offset: r23 at cfa-40
  DW_CFA_offset: r24 at cfa-48
  DW_CFA_offset: r25 at cfa-56
  DW_CFA_offset: r26 at cfa-64
  DW_CFA_offset: r27 at cfa-72
  DW_CFA_offset: r28 at cfa-80
  DW_CFA_offset: r30 at cfa-88
  DW_CFA_offset: r29 at cfa-96
  DW_CFA_advance_loc2: 3200 to 00083ee8
  DW_CFA_def_cfa: r31 ofs 224
  DW_CFA_advance_loc: 28 to 00083f04
  DW_CFA_def_cfa_offset: 0
  DW_CFA_restore: r19
  DW_CFA_restore: r20
  DW_CFA_restore: r21
  DW_CFA_restore: r22
  DW_CFA_restore: r23
  DW_CFA_restore: r24
  DW_CFA_restore: r25
  DW_CFA_restore: r26
  DW_CFA_restore: r27
  DW_CFA_restore: r28
  DW_CFA_restore: r30
  DW_CFA_restore: r29
  DW_CFA_nop

00002650 0000003c 00002654 FDE cie=00000000 pc=00083f08..00084128
  DW_CFA_advance_loc: 4 to 00083f0c
  DW_CFA_def_cfa_offset: 64
  DW_CFA_advance_loc: 16 to 00083f1c
  DW_CFA_def_cfa: r29 ofs 64
  DW_CFA_offset: r19 at cfa-8
  DW_CFA_offset: r20 at cfa-16
  DW_CFA_offset: r21 at cfa-24
  DW_CFA_offset: r22 at cfa-32
  DW_CFA_offset: r23 at cfa-48
  DW_CFA_offset: r30 at cfa-56
  DW_CFA_offset: r29 at cfa-64
  DW_CFA_remember_state
  DW_CFA_advance_loc2: 480 to 000840fc
  DW_CFA_def_cfa: r31 ofs 64
  DW_CFA_advance_loc: 16 to 0008410c
  DW_CFA_def_cfa_offset: 0
  DW_CFA_restore: r19
  DW_CFA_restore: r20
  DW_CFA_restore: r21
  DW_CFA_restore: r22
  DW_CFA_restore: r23
  DW_CFA_restore: r30
  DW_CFA_restore: r29
  DW_CFA_advance_loc: 4 to 00084110
  DW_CFA_restore_state
  DW_CFA_nop
  DW_CFA_nop
  DW_CFA_nop
  DW_CFA_nop
  DW_CFA_nop
  DW_CFA_nop
  DW_CFA_nop

00002690 00000034 00002694 FDE cie=00000000 pc=00084128..0008433c
  DW_CFA_advance_loc: 4 to 0008412c
  DW_CFA_def_cfa_offset: 48
  DW_CFA_advance_loc: 12 to 00084138
  DW_CFA_def_cfa: r29 ofs 48
  DW_CFA_offset: r19 at cfa-8
  DW_CFA_offset: r20 at cfa-16
  DW_CFA_offset: r21 at cfa-24
  DW_CFA_offset: r22 at cfa-32
  DW_CFA_offset: r30 at cfa-40
  DW_CFA_offset: r29 at cfa-48
  DW_CFA_remember_state
  DW_CFA_advance_loc2: 472 to 00084310
  DW_CFA_def_cfa: r31 ofs 48
  DW_CFA_advance_loc: 12 to 0008431c
  DW_CFA_def_cfa_offset: 0
  DW_CFA_restore: r19
  DW_CFA_restore: r20
  DW_CFA_restore: r21
  DW_CFA_restore: r22
  DW_CFA_restore: r30
  DW_CFA_restore: r29
  DW_CFA_advance_loc: 4 to 00084320
  DW_CFA_restore_state
  DW_CFA_nop
  DW_CFA_nop

000026c8 00000034 000026cc FDE cie=00000000 pc=0008433c..00084550
  DW_CFA_advance_loc: 4 to 00084340
  DW_CFA_def_cfa_offset: 48
  DW_CFA_advance_loc: 12 to 0008434c
  DW_CFA_def_cfa: r29 ofs 48
  DW_CFA_offset: r19 at cfa-8
  DW_CFA_offset: r20 at cfa-16
  DW_CFA_offset: r21 at cfa-24
  DW_CFA_offset: r22 at cfa-32
  DW_CFA_offset: r30 at cfa-40
  DW_CFA_offset: r29 at cfa-48
  DW_CFA_remember_state
  DW_CFA_advance_loc2: 472 to 00084524
  DW_CFA_def_cfa: r31 ofs 48
  DW_CFA_advance_loc: 12 to 00084530
  DW_CFA_def_cfa_offset: 0
  DW_CFA_restore: r19
  DW_CFA_restore: r20
  DW_CFA_restore: r21
  DW_CFA_restore: r22
  DW_CFA_restore: r30
  DW_CFA_restore: r29
  DW_CFA_advance_loc: 4 to 00084534
  DW_CFA_restore_state
  DW_CFA_nop
  DW_CFA_nop

00002700 00000014 00002704 FDE cie=00000000 pc=00084550..00084558
  DW_CFA_nop
  DW_CFA_nop
  DW_CFA_nop
  DW_CFA_nop
  DW_CFA_nop
  DW_CFA_nop
  DW_CFA_nop

00002718 00000014 0000271c FDE cie=00000000 pc=00084558..00084560
  DW_CFA_nop
  DW_CFA_nop
  DW_CFA_nop
  DW_CFA_nop
  DW_CFA_nop
  DW_CFA_nop
  DW_CFA_nop

00002730 00000014 00002734 FDE cie=00000000 pc=00084560..00084568
  DW_CFA_nop
  DW_CFA_nop
  DW_CFA_nop
  DW_CFA_nop
  DW_CFA_nop
  DW_CFA_nop
  DW_CFA_nop

00002748 00000014 0000274c FDE cie=00000000 pc=00084568..00084570
  DW_CFA_nop
  DW_CFA_nop
  DW_CFA_nop
  DW_CFA_nop
  DW_CFA_nop
  DW_CFA_nop
  DW_CFA_nop

00002760 00000014 00002764 FDE cie=00000000 pc=00084570..00084578
  DW_CFA_nop
  DW_CFA_nop
  DW_CFA_nop
  DW_CFA_nop
  DW_CFA_nop
  DW_CFA_nop
  DW_CFA_nop

00002778 00000014 0000277c FDE cie=00000000 pc=00084578..00084580
  DW_CFA_nop
  DW_CFA_nop
  DW_CFA_nop
  DW_CFA_nop
  DW_CFA_nop
  DW_CFA_nop
  DW_CFA_nop

00002790 00000014 00002794 FDE cie=00000000 pc=00084580..00084588
  DW_CFA_nop
  DW_CFA_nop
  DW_CFA_nop
  DW_CFA_nop
  DW_CFA_nop
  DW_CFA_nop
  DW_CFA_nop

000027a8 00000014 000027ac FDE cie=00000000 pc=00084588..00084590
  DW_CFA_nop
  DW_CFA_nop
  DW_CFA_nop
  DW_CFA_nop
  DW_CFA_nop
  DW_CFA_nop
  DW_CFA_nop

000027c0 00000014 000027c4 FDE cie=00000000 pc=00084590..00084598
  DW_CFA_nop
  DW_CFA_nop
  DW_CFA_nop
  DW_CFA_nop
  DW_CFA_nop
  DW_CFA_nop
  DW_CFA_nop

000027d8 00000014 000027dc FDE cie=00000000 pc=00084598..000845a0
  DW_CFA_nop
  DW_CFA_nop
  DW_CFA_nop
  DW_CFA_nop
  DW_CFA_nop
  DW_CFA_nop
  DW_CFA_nop

000027f0 00000014 000027f4 FDE cie=00000000 pc=000845a0..000845a8
  DW_CFA_nop
  DW_CFA_nop
  DW_CFA_nop
  DW_CFA_nop
  DW_CFA_nop
  DW_CFA_nop
  DW_CFA_nop

00002808 00000014 0000280c FDE cie=00000000 pc=000845a8..000845b0
  DW_CFA_nop
  DW_CFA_nop
  DW_CFA_nop
  DW_CFA_nop
  DW_CFA_nop
  DW_CFA_nop
  DW_CFA_nop

00002820 00000014 00002824 FDE cie=00000000 pc=000845b0..000845bc
  DW_CFA_nop
  DW_CFA_nop
  DW_CFA_nop
  DW_CFA_nop
  DW_CFA_nop
  DW_CFA_nop
  DW_CFA_nop

00002838 00000014 0000283c FDE cie=00000000 pc=000845bc..000845c8
  DW_CFA_nop
  DW_CFA_nop
  DW_CFA_nop
  DW_CFA_nop
  DW_CFA_nop
  DW_CFA_nop
  DW_CFA_nop

00002850 00000014 00002854 FDE cie=00000000 pc=000845c8..000845d0
  DW_CFA_nop
  DW_CFA_nop
  DW_CFA_nop
  DW_CFA_nop
  DW_CFA_nop
  DW_CFA_nop
  DW_CFA_nop

00002868 00000014 0000286c FDE cie=00000000 pc=000845d0..000845d8
  DW_CFA_nop
  DW_CFA_nop
  DW_CFA_nop
  DW_CFA_nop
  DW_CFA_nop
  DW_CFA_nop
  DW_CFA_nop

00002880 00000014 00002884 FDE cie=00000000 pc=000845d8..000845e4
  DW_CFA_nop
  DW_CFA_nop
  DW_CFA_nop
  DW_CFA_nop
  DW_CFA_nop
  DW_CFA_nop
  DW_CFA_nop

00002898 00000014 0000289c FDE cie=00000000 pc=000845e4..000845f0
  DW_CFA_nop
  DW_CFA_nop
  DW_CFA_nop
  DW_CFA_nop
  DW_CFA_nop
  DW_CFA_nop
  DW_CFA_nop

000028b0 00000014 000028b4 FDE cie=00000000 pc=000845f0..000845f8
  DW_CFA_nop
  DW_CFA_nop
  DW_CFA_nop
  DW_CFA_nop
  DW_CFA_nop
  DW_CFA_nop
  DW_CFA_nop

000028c8 00000014 000028cc FDE cie=00000000 pc=000845f8..00084600
  DW_CFA_nop
  DW_CFA_nop
  DW_CFA_nop
  DW_CFA_nop
  DW_CFA_nop
  DW_CFA_nop
  DW_CFA_nop

000028e0 00000014 000028e4 FDE cie=00000000 pc=00084600..00084608
  DW_CFA_nop
  DW_CFA_nop
  DW_CFA_nop
  DW_CFA_nop
  DW_CFA_nop
  DW_CFA_nop
  DW_CFA_nop

000028f8 00000014 000028fc FDE cie=00000000 pc=00084608..00084610
  DW_CFA_nop
  DW_CFA_nop
  DW_CFA_nop
  DW_CFA_nop
  DW_CFA_nop
  DW_CFA_nop
  DW_CFA_nop

00002910 00000014 00002914 FDE cie=00000000 pc=00084610..00084618
  DW_CFA_nop
  DW_CFA_nop
  DW_CFA_nop
  DW_CFA_nop
  DW_CFA_nop
  DW_CFA_nop
  DW_CFA_nop

00002928 00000014 0000292c FDE cie=00000000 pc=00084618..00084620
  DW_CFA_nop
  DW_CFA_nop
  DW_CFA_nop
  DW_CFA_nop
  DW_CFA_nop
  DW_CFA_nop
  DW_CFA_nop

00002940 00000014 00002944 FDE cie=00000000 pc=00084620..00084628
  DW_CFA_nop
  DW_CFA_nop
  DW_CFA_nop
  DW_CFA_nop
  DW_CFA_nop
  DW_CFA_nop
  DW_CFA_nop

00002958 00000014 0000295c FDE cie=00000000 pc=00084628..00084630
  DW_CFA_nop
  DW_CFA_nop
  DW_CFA_nop
  DW_CFA_nop
  DW_CFA_nop
  DW_CFA_nop
  DW_CFA_nop

00002970 00000014 00002974 FDE cie=00000000 pc=00084630..00084638
  DW_CFA_nop
  DW_CFA_nop
  DW_CFA_nop
  DW_CFA_nop
  DW_CFA_nop
  DW_CFA_nop
  DW_CFA_nop

00002988 00000014 0000298c FDE cie=00000000 pc=00084638..00084640
  DW_CFA_nop
  DW_CFA_nop
  DW_CFA_nop
  DW_CFA_nop
  DW_CFA_nop
  DW_CFA_nop
  DW_CFA_nop

000029a0 00000014 000029a4 FDE cie=00000000 pc=00084640..00084648
  DW_CFA_nop
  DW_CFA_nop
  DW_CFA_nop
  DW_CFA_nop
  DW_CFA_nop
  DW_CFA_nop
  DW_CFA_nop

000029b8 00000014 000029bc FDE cie=00000000 pc=00084648..00084650
  DW_CFA_nop
  DW_CFA_nop
  DW_CFA_nop
  DW_CFA_nop
  DW_CFA_nop
  DW_CFA_nop
  DW_CFA_nop

000029d0 00000014 000029d4 FDE cie=00000000 pc=00084650..00084674
  DW_CFA_nop
  DW_CFA_nop
  DW_CFA_nop
  DW_CFA_nop
  DW_CFA_nop
  DW_CFA_nop
  DW_CFA_nop

000029e8 00000014 000029ec FDE cie=00000000 pc=00084674..0008468c
  DW_CFA_nop
  DW_CFA_nop
  DW_CFA_nop
  DW_CFA_nop
  DW_CFA_nop
  DW_CFA_nop
  DW_CFA_nop

00002a00 00000034 00002a04 FDE cie=00000000 pc=0008468c..00084778
  DW_CFA_advance_loc: 20 to 000846a0
  DW_CFA_def_cfa_offset: 80
  DW_CFA_advance_loc: 20 to 000846b4
  DW_CFA_def_cfa: r29 ofs 64
  DW_CFA_offset: r15 at cfa-8
  DW_CFA_offset: r19 at cfa-16
  DW_CFA_offset: r20 at cfa-24
  DW_CFA_offset: r21 at cfa-32
  DW_CFA_offset: r22 at cfa-48
  DW_CFA_offset: r30 at cfa-56
  DW_CFA_offset: r29 at cfa-64
  DW_CFA_advance_loc1: 144 to 00084744
  DW_CFA_def_cfa: r31 ofs 80
  DW_CFA_advance_loc: 20 to 00084758
  DW_CFA_def_cfa_offset: 0
  DW_CFA_restore: r15
  DW_CFA_restore: r19
  DW_CFA_restore: r20
  DW_CFA_restore: r21
  DW_CFA_restore: r22
  DW_CFA_restore: r30
  DW_CFA_restore: r29
  DW_CFA_nop
  DW_CFA_nop
  DW_CFA_nop

00002a38 00000014 00002a3c FDE cie=00000000 pc=00084778..0008479c
  DW_CFA_nop
  DW_CFA_nop
  DW_CFA_nop
  DW_CFA_nop
  DW_CFA_nop
  DW_CFA_nop
  DW_CFA_nop

00002a50 0000003c 00002a54 FDE cie=00000000 pc=0008479c..000848d0
  DW_CFA_advance_loc: 4 to 000847a0
  DW_CFA_def_cfa_offset: 64
  DW_CFA_advance_loc: 16 to 000847b0
  DW_CFA_def_cfa: r29 ofs 64
  DW_CFA_offset: r19 at cfa-8
  DW_CFA_offset: r20 at cfa-16
  DW_CFA_offset: r21 at cfa-24
  DW_CFA_offset: r22 at cfa-32
  DW_CFA_offset: r23 at cfa-48
  DW_CFA_offset: r30 at cfa-56
  DW_CFA_offset: r29 at cfa-64
  DW_CFA_remember_state
  DW_CFA_advance_loc2: 260 to 000848b4
  DW_CFA_def_cfa: r31 ofs 64
  DW_CFA_advance_loc: 16 to 000848c4
  DW_CFA_def_cfa_offset: 0
  DW_CFA_restore: r19
  DW_CFA_restore: r20
  DW_CFA_restore: r21
  DW_CFA_restore: r22
  DW_CFA_restore: r23
  DW_CFA_restore: r30
  DW_CFA_restore: r29
  DW_CFA_advance_loc: 4 to 000848c8
  DW_CFA_restore_state
  DW_CFA_nop
  DW_CFA_nop
  DW_CFA_nop
  DW_CFA_nop
  DW_CFA_nop
  DW_CFA_nop
  DW_CFA_nop

00002a90 00000014 00002a94 FDE cie=00000000 pc=000848d0..000848e8
  DW_CFA_nop
  DW_CFA_nop
  DW_CFA_nop
  DW_CFA_nop
  DW_CFA_nop
  DW_CFA_nop
  DW_CFA_nop

00002aa8 00000014 00002aac FDE cie=00000000 pc=000848e8..0008490c
  DW_CFA_nop
  DW_CFA_nop
  DW_CFA_nop
  DW_CFA_nop
  DW_CFA_nop
  DW_CFA_nop
  DW_CFA_nop

00002ac0 00000014 00002ac4 FDE cie=00000000 pc=0008490c..00084924
  DW_CFA_nop
  DW_CFA_nop
  DW_CFA_nop
  DW_CFA_nop
  DW_CFA_nop
  DW_CFA_nop
  DW_CFA_nop

00002ad8 00000034 00002adc FDE cie=00000000 pc=00084924..00084a24
  DW_CFA_advance_loc: 4 to 00084928
  DW_CFA_def_cfa_offset: 48
  DW_CFA_advance_loc: 12 to 00084934
  DW_CFA_def_cfa: r29 ofs 48
  DW_CFA_offset: r19 at cfa-8
  DW_CFA_offset: r20 at cfa-16
  DW_CFA_offset: r21 at cfa-24
  DW_CFA_offset: r22 at cfa-32
  DW_CFA_offset: r30 at cfa-40
  DW_CFA_offset: r29 at cfa-48
  DW_CFA_advance_loc1: 224 to 00084a14
  DW_CFA_def_cfa: r31 ofs 48
  DW_CFA_advance_loc: 12 to 00084a20
  DW_CFA_def_cfa_offset: 0
  DW_CFA_restore: r19
  DW_CFA_restore: r20
  DW_CFA_restore: r21
  DW_CFA_restore: r22
  DW_CFA_restore: r30
  DW_CFA_restore: r29
  DW_CFA_nop
  DW_CFA_nop
  DW_CFA_nop
  DW_CFA_nop
  DW_CFA_nop
  DW_CFA_nop

00002b10 00000014 00002b14 FDE cie=00000000 pc=00084a24..00084b28
  DW_CFA_nop
  DW_CFA_nop
  DW_CFA_nop
  DW_CFA_nop
  DW_CFA_nop
  DW_CFA_nop
  DW_CFA_nop

00002b28 00000014 00002b2c FDE cie=00000000 pc=00084b28..00084be4
  DW_CFA_nop
  DW_CFA_nop
  DW_CFA_nop
  DW_CFA_nop
  DW_CFA_nop
  DW_CFA_nop
  DW_CFA_nop

00002b40 00000014 00002b44 FDE cie=00000000 pc=00084be4..00084be8
  DW_CFA_nop
  DW_CFA_nop
  DW_CFA_nop
  DW_CFA_nop
  DW_CFA_nop
  DW_CFA_nop
  DW_CFA_nop

00002b58 0000002c 00002b5c FDE cie=00000000 pc=00084be8..00084c4c
  DW_CFA_advance_loc: 4 to 00084bec
  DW_CFA_def_cfa_offset: 32
  DW_CFA_advance_loc: 8 to 00084bf4
  DW_CFA_def_cfa: r29 ofs 16
  DW_CFA_offset: r30 at cfa-8
  DW_CFA_offset: r29 at cfa-16
  DW_CFA_offset_extended: r72 at cfa-24
  DW_CFA_offset_extended: r73 at cfa-32
  DW_CFA_advance_loc1: 76 to 00084c40
  DW_CFA_def_cfa: r31 ofs 32
  DW_CFA_advance_loc: 8 to 00084c48
  DW_CFA_def_cfa_offset: 0
  DW_CFA_restore: r30
  DW_CFA_restore: r29
  DW_CFA_restore_extended: r72
  DW_CFA_restore_extended: r73

00002b88 00000024 00002b8c FDE cie=00000000 pc=00084c4c..00084c74
  DW_CFA_advance_loc: 4 to 00084c50
  DW_CFA_def_cfa_offset: 16
  DW_CFA_advance_loc: 4 to 00084c54
  DW_CFA_def_cfa: r29 ofs 16
  DW_CFA_offset: r30 at cfa-8
  DW_CFA_offset: r29 at cfa-16
  DW_CFA_advance_loc: 24 to 00084c6c
  DW_CFA_def_cfa: r31 ofs 16
  DW_CFA_advance_loc: 4 to 00084c70
  DW_CFA_def_cfa_offset: 0
  DW_CFA_restore: r30
  DW_CFA_restore: r29
  DW_CFA_nop
  DW_CFA_nop
  DW_CFA_nop

00002bb0 00000034 00002bb4 FDE cie=00000000 pc=00084c74..00084cec
  DW_CFA_advance_loc: 4 to 00084c78
  DW_CFA_def_cfa_offset: 48
  DW_CFA_advance_loc: 12 to 00084c84
  DW_CFA_def_cfa: r29 ofs 32
  DW_CFA_offset: r19 at cfa-16
  DW_CFA_offset: r30 at cfa-24
  DW_CFA_offset: r29 at cfa-32
  DW_CFA_offset_extended: r72 at cfa-40
  DW_CFA_offset_extended: r73 at cfa-48
  DW_CFA_advance_loc1: 88 to 00084cdc
  DW_CFA_def_cfa: r31 ofs 48
  DW_CFA_advance_loc: 12 to 00084ce8
  DW_CFA_def_cfa_offset: 0
  DW_CFA_restore: r19
  DW_CFA_restore: r30
  DW_CFA_restore: r29
  DW_CFA_restore_extended: r72
  DW_CFA_restore_extended: r73
  DW_CFA_nop
  DW_CFA_nop
  DW_CFA_nop
  DW_CFA_nop
  DW_CFA_nop

00002be8 00000024 00002bec FDE cie=00000000 pc=00084cec..00084d30
  DW_CFA_advance_loc: 4 to 00084cf0
  DW_CFA_def_cfa_offset: 32
  DW_CFA_advance_loc: 8 to 00084cf8
  DW_CFA_def_cfa: r29 ofs 32
  DW_CFA_offset: r19 at cfa-16
  DW_CFA_offset: r30 at cfa-24
  DW_CFA_offset: r29 at cfa-32
  DW_CFA_advance_loc: 44 to 00084d24
  DW_CFA_def_cfa: r31 ofs 32
  DW_CFA_advance_loc: 8 to 00084d2c
  DW_CFA_def_cfa_offset: 0
  DW_CFA_restore: r19
  DW_CFA_restore: r30
  DW_CFA_restore: r29

00002c10 0000002c 00002c14 FDE cie=00000000 pc=00084d30..00084db4
  DW_CFA_advance_loc: 4 to 00084d34
  DW_CFA_def_cfa_offset: 96
  DW_CFA_advance_loc: 12 to 00084d40
  DW_CFA_def_cfa: r29 ofs 32
  DW_CFA_offset: r19 at cfa-16
  DW_CFA_offset: r30 at cfa-24
  DW_CFA_offset: r29 at cfa-32
  DW_CFA_advance_loc1: 100 to 00084da4
  DW_CFA_def_cfa: r31 ofs 96
  DW_CFA_advance_loc: 12 to 00084db0
  DW_CFA_def_cfa_offset: 0
  DW_CFA_restore: r19
  DW_CFA_restore: r30
  DW_CFA_restore: r29
  DW_CFA_nop
  DW_CFA_nop
  DW_CFA_nop
  DW_CFA_nop
  DW_CFA_nop
  DW_CFA_nop
  DW_CFA_nop

00002c40 00000024 00002c44 FDE cie=00000000 pc=00084db4..00084e00
  DW_CFA_advance_loc: 4 to 00084db8
  DW_CFA_def_cfa_offset: 48
  DW_CFA_advance_loc: 8 to 00084dc0
  DW_CFA_def_cfa: r29 ofs 16
  DW_CFA_offset: r30 at cfa-8
  DW_CFA_offset: r29 at cfa-16
  DW_CFA_advance_loc: 52 to 00084df4
  DW_CFA_def_cfa: r31 ofs 48
  DW_CFA_advance_loc: 8 to 00084dfc
  DW_CFA_def_cfa_offset: 0
  DW_CFA_restore: r30
  DW_CFA_restore: r29
  DW_CFA_nop
  DW_CFA_nop
  DW_CFA_nop

00002c68 00000014 00002c6c FDE cie=00000000 pc=00084e00..00084e10
  DW_CFA_nop
  DW_CFA_nop
  DW_CFA_nop
  DW_CFA_nop
  DW_CFA_nop
  DW_CFA_nop
  DW_CFA_nop

00002c80 00000014 00002c84 FDE cie=00000000 pc=00084e10..00084e20
  DW_CFA_nop
  DW_CFA_nop
  DW_CFA_nop
  DW_CFA_nop
  DW_CFA_nop
  DW_CFA_nop
  DW_CFA_nop

00002c98 00000014 00002c9c FDE cie=00000000 pc=00084e20..00084e30
  DW_CFA_nop
  DW_CFA_nop
  DW_CFA_nop
  DW_CFA_nop
  DW_CFA_nop
  DW_CFA_nop
  DW_CFA_nop

00002cb0 0000002c 00002cb4 FDE cie=00000000 pc=00084e30..00084e88
  DW_CFA_advance_loc: 4 to 00084e34
  DW_CFA_def_cfa_offset: 32
  DW_CFA_advance_loc: 8 to 00084e3c
  DW_CFA_def_cfa: r29 ofs 16
  DW_CFA_offset: r30 at cfa-8
  DW_CFA_offset: r29 at cfa-16
  DW_CFA_offset_extended: r72 at cfa-24
  DW_CFA_offset_extended: r73 at cfa-32
  DW_CFA_advance_loc1: 64 to 00084e7c
  DW_CFA_def_cfa: r31 ofs 32
  DW_CFA_advance_loc: 8 to 00084e84
  DW_CFA_def_cfa_offset: 0
  DW_CFA_restore: r30
  DW_CFA_restore: r29
  DW_CFA_restore_extended: r72
  DW_CFA_restore_extended: r73

00002ce0 00000034 00002ce4 FDE cie=00000000 pc=00084e88..00084fb4
  DW_CFA_advance_loc: 4 to 00084e8c
  DW_CFA_def_cfa_offset: 32
  DW_CFA_advance_loc: 8 to 00084e94
  DW_CFA_def_cfa: r29 ofs 16
  DW_CFA_offset: r30 at cfa-8
  DW_CFA_offset: r29 at cfa-16
  DW_CFA_offset_extended: r72 at cfa-24
  DW_CFA_offset_extended: r73 at cfa-32
  DW_CFA_advance_loc2: 276 to 00084fa8
  DW_CFA_def_cfa: r31 ofs 32
  DW_CFA_advance_loc: 8 to 00084fb0
  DW_CFA_def_cfa_offset: 0
  DW_CFA_restore: r30
  DW_CFA_restore: r29
  DW_CFA_restore_extended: r72
  DW_CFA_restore_extended: r73
  DW_CFA_nop
  DW_CFA_nop
  DW_CFA_nop
  DW_CFA_nop
  DW_CFA_nop
  DW_CFA_nop
  DW_CFA_nop

00002d18 0000002c 00002d1c FDE cie=00000000 pc=00084fb4..00085008
  DW_CFA_advance_loc: 4 to 00084fb8
  DW_CFA_def_cfa_offset: 32
  DW_CFA_advance_loc: 8 to 00084fc0
  DW_CFA_def_cfa: r29 ofs 16
  DW_CFA_offset: r30 at cfa-8
  DW_CFA_offset: r29 at cfa-16
  DW_CFA_offset_extended: r72 at cfa-24
  DW_CFA_offset_extended: r73 at cfa-32
  DW_CFA_advance_loc: 60 to 00084ffc
  DW_CFA_def_cfa: r31 ofs 32
  DW_CFA_advance_loc: 8 to 00085004
  DW_CFA_def_cfa_offset: 0
  DW_CFA_restore: r30
  DW_CFA_restore: r29
  DW_CFA_restore_extended: r72
  DW_CFA_restore_extended: r73
  DW_CFA_nop

00002d48 00000024 00002d4c FDE cie=00000000 pc=00085008..00085038
  DW_CFA_advance_loc: 4 to 0008500c
  DW_CFA_def_cfa_offset: 16
  DW_CFA_advance_loc: 4 to 00085010
  DW_CFA_def_cfa: r29 ofs 16
  DW_CFA_offset: r30 at cfa-8
  DW_CFA_offset: r29 at cfa-16
  DW_CFA_advance_loc: 32 to 00085030
  DW_CFA_def_cfa: r31 ofs 16
  DW_CFA_advance_loc: 4 to 00085034
  DW_CFA_def_cfa_offset: 0
  DW_CFA_restore: r30
  DW_CFA_restore: r29
  DW_CFA_nop
  DW_CFA_nop
  DW_CFA_nop

00002d70 00000024 00002d74 FDE cie=00000000 pc=00085038..0008508c
  DW_CFA_advance_loc: 4 to 0008503c
  DW_CFA_def_cfa_offset: 48
  DW_CFA_advance_loc: 8 to 00085044
  DW_CFA_def_cfa: r29 ofs 16
  DW_CFA_offset: r30 at cfa-8
  DW_CFA_offset: r29 at cfa-16
  DW_CFA_advance_loc: 60 to 00085080
  DW_CFA_def_cfa: r31 ofs 48
  DW_CFA_advance_loc: 8 to 00085088
  DW_CFA_def_cfa_offset: 0
  DW_CFA_restore: r30
  DW_CFA_restore: r29
  DW_CFA_nop
  DW_CFA_nop
  DW_CFA_nop

00002d98 0000002c 00002d9c FDE cie=00000000 pc=0008508c..000851a0
  DW_CFA_advance_loc: 4 to 00085090
  DW_CFA_def_cfa_offset: 112
  DW_CFA_advance_loc: 12 to 0008509c
  DW_CFA_def_cfa: r29 ofs 16
  DW_CFA_offset: r30 at cfa-8
  DW_CFA_offset: r29 at cfa-16
  DW_CFA_offset_extended: r72 at cfa-32
  DW_CFA_advance_loc1: 244 to 00085190
  DW_CFA_def_cfa: r31 ofs 112
  DW_CFA_advance_loc: 12 to 0008519c
  DW_CFA_def_cfa_offset: 0
  DW_CFA_restore: r30
  DW_CFA_restore: r29
  DW_CFA_restore_extended: r72
  DW_CFA_nop
  DW_CFA_nop
  DW_CFA_nop
  DW_CFA_nop
  DW_CFA_nop

00002dc8 00000034 00002dcc FDE cie=00000000 pc=000851a0..00085254
  DW_CFA_advance_loc: 4 to 000851a4
  DW_CFA_def_cfa_offset: 48
  DW_CFA_advance_loc: 12 to 000851b0
  DW_CFA_def_cfa: r29 ofs 16
  DW_CFA_offset: r30 at cfa-8
  DW_CFA_offset: r29 at cfa-16
  DW_CFA_offset_extended: r72 at cfa-24
  DW_CFA_offset_extended: r73 at cfa-32
  DW_CFA_offset_extended: r74 at cfa-48
  DW_CFA_advance_loc1: 148 to 00085244
  DW_CFA_def_cfa: r31 ofs 48
  DW_CFA_advance_loc: 12 to 00085250
  DW_CFA_def_cfa_offset: 0
  DW_CFA_restore: r30
  DW_CFA_restore: r29
  DW_CFA_restore_extended: r72
  DW_CFA_restore_extended: r73
  DW_CFA_restore_extended: r74
  DW_CFA_nop
  DW_CFA_nop
  DW_CFA_nop

00002e00 00000034 00002e04 FDE cie=00000000 pc=00085254..0008531c
  DW_CFA_advance_loc: 4 to 00085258
  DW_CFA_def_cfa_offset: 48
  DW_CFA_advance_loc: 12 to 00085264
  DW_CFA_def_cfa: r29 ofs 16
  DW_CFA_offset: r30 at cfa-8
  DW_CFA_offset: r29 at cfa-16
  DW_CFA_offset_extended: r72 at cfa-24
  DW_CFA_offset_extended: r73 at cfa-32
  DW_CFA_offset_extended: r74 at cfa-48
  DW_CFA_advance_loc1: 168 to 0008530c
  DW_CFA_def_cfa: r31 ofs 48
  DW_CFA_advance_loc: 12 to 00085318
  DW_CFA_def_cfa_offset: 0
  DW_CFA_restore: r30
  DW_CFA_restore: r29
  DW_CFA_restore_extended: r72
  DW_CFA_restore_extended: r73
  DW_CFA_restore_extended: r74
  DW_CFA_nop
  DW_CFA_nop
  DW_CFA_nop

00002e38 00000034 00002e3c FDE cie=00000000 pc=0008531c..000853d4
  DW_CFA_advance_loc: 4 to 00085320
  DW_CFA_def_cfa_offset: 48
  DW_CFA_advance_loc: 12 to 0008532c
  DW_CFA_def_cfa: r29 ofs 16
  DW_CFA_offset: r30 at cfa-8
  DW_CFA_offset: r29 at cfa-16
  DW_CFA_offset_extended: r72 at cfa-24
  DW_CFA_offset_extended: r73 at cfa-32
  DW_CFA_offset_extended: r74 at cfa-48
  DW_CFA_advance_loc1: 152 to 000853c4
  DW_CFA_def_cfa: r31 ofs 48
  DW_CFA_advance_loc: 12 to 000853d0
  DW_CFA_def_cfa_offset: 0
  DW_CFA_restore: r30
  DW_CFA_restore: r29
  DW_CFA_restore_extended: r72
  DW_CFA_restore_extended: r73
  DW_CFA_restore_extended: r74
  DW_CFA_nop
  DW_CFA_nop
  DW_CFA_nop

00002e70 00000034 00002e74 FDE cie=00000000 pc=000853d4..000854a4
  DW_CFA_advance_loc: 4 to 000853d8
  DW_CFA_def_cfa_offset: 48
  DW_CFA_advance_loc: 12 to 000853e4
  DW_CFA_def_cfa: r29 ofs 16
  DW_CFA_offset: r30 at cfa-8
  DW_CFA_offset: r29 at cfa-16
  DW_CFA_offset_extended: r72 at cfa-24
  DW_CFA_offset_extended: r73 at cfa-32
  DW_CFA_offset_extended: r74 at cfa-48
  DW_CFA_advance_loc1: 176 to 00085494
  DW_CFA_def_cfa: r31 ofs 48
  DW_CFA_advance_loc: 12 to 000854a0
  DW_CFA_def_cfa_offset: 0
  DW_CFA_restore: r30
  DW_CFA_restore: r29
  DW_CFA_restore_extended: r72
  DW_CFA_restore_extended: r73
  DW_CFA_restore_extended: r74
  DW_CFA_nop
  DW_CFA_nop
  DW_CFA_nop

00002ea8 00000024 00002eac FDE cie=00000000 pc=000854a4..000854f8
  DW_CFA_advance_loc: 4 to 000854a8
  DW_CFA_def_cfa_offset: 48
  DW_CFA_advance_loc: 8 to 000854b0
  DW_CFA_def_cfa: r29 ofs 16
  DW_CFA_offset: r30 at cfa-8
  DW_CFA_offset: r29 at cfa-16
  DW_CFA_advance_loc: 60 to 000854ec
  DW_CFA_def_cfa: r31 ofs 48
  DW_CFA_advance_loc: 8 to 000854f4
  DW_CFA_def_cfa_offset: 0
  DW_CFA_restore: r30
  DW_CFA_restore: r29
  DW_CFA_nop
  DW_CFA_nop
  DW_CFA_nop

00002ed0 00000034 00002ed4 FDE cie=00000000 pc=000854f8..000856bc
  DW_CFA_advance_loc: 4 to 000854fc
  DW_CFA_def_cfa_offset: 112
  DW_CFA_advance_loc: 12 to 00085508
  DW_CFA_def_cfa: r29 ofs 16
  DW_CFA_offset: r30 at cfa-8
  DW_CFA_offset: r29 at cfa-16
  DW_CFA_offset_extended: r72 at cfa-24
  DW_CFA_offset_extended: r73 at cfa-32
  DW_CFA_advance_loc2: 420 to 000856ac
  DW_CFA_def_cfa: r31 ofs 112
  DW_CFA_advance_loc: 12 to 000856b8
  DW_CFA_def_cfa_offset: 0
  DW_CFA_restore: r30
  DW_CFA_restore: r29
  DW_CFA_restore_extended: r72
  DW_CFA_restore_extended: r73
  DW_CFA_nop
  DW_CFA_nop
  DW_CFA_nop
  DW_CFA_nop
  DW_CFA_nop
  DW_CFA_nop
  DW_CFA_nop

00002f08 00000014 00002f0c FDE cie=00000000 pc=000856bc..000856d0
  DW_CFA_nop
  DW_CFA_nop
  DW_CFA_nop
  DW_CFA_nop
  DW_CFA_nop
  DW_CFA_nop
  DW_CFA_nop

00002f20 00000014 00002f24 FDE cie=00000000 pc=000856d0..000856e4
  DW_CFA_nop
  DW_CFA_nop
  DW_CFA_nop
  DW_CFA_nop
  DW_CFA_nop
  DW_CFA_nop
  DW_CFA_nop

00002f38 0000004c 00002f3c FDE cie=00000000 pc=000856e4..00085b88
  DW_CFA_advance_loc: 4 to 000856e8
  DW_CFA_def_cfa_offset: 112
  DW_CFA_advance_loc: 28 to 00085704
  DW_CFA_def_cfa: r29 ofs 40
  DW_CFA_offset: r19 at cfa-8
  DW_CFA_offset: r20 at cfa-16
  DW_CFA_offset: r21 at cfa-24
  DW_CFA_offset: r30 at cfa-32
  DW_CFA_offset: r29 at cfa-40
  DW_CFA_offset_extended: r72 at cfa-48
  DW_CFA_offset_extended: r73 at cfa-56
  DW_CFA_offset_extended: r74 at cfa-64
  DW_CFA_offset_extended: r75 at cfa-72
  DW_CFA_offset_extended: r76 at cfa-80
  DW_CFA_remember_state
  DW_CFA_advance_loc2: 1080 to 00085b3c
  DW_CFA_def_cfa: r31 ofs 112
  DW_CFA_advance_loc: 28 to 00085b58
  DW_CFA_def_cfa_offset: 0
  DW_CFA_restore: r19
  DW_CFA_restore: r20
  DW_CFA_restore: r21
  DW_CFA_restore: r30
  DW_CFA_restore: r29
  DW_CFA_restore_extended: r72
  DW_CFA_restore_extended: r73
  DW_CFA_restore_extended: r74
  DW_CFA_restore_extended: r75
  DW_CFA_restore_extended: r76
  DW_CFA_advance_loc: 4 to 00085b5c
  DW_CFA_restore_state
  DW_CFA_nop
  DW_CFA_nop
  DW_CFA_nop
  DW_CFA_nop

00002f88 0000004c 00002f8c FDE cie=00000000 pc=00085b88..00085fac
  DW_CFA_advance_loc: 4 to 00085b8c
  DW_CFA_def_cfa_offset: 112
  DW_CFA_advance_loc: 24 to 00085ba4
  DW_CFA_def_cfa: r29 ofs 32
  DW_CFA_offset: r19 at cfa-8
  DW_CFA_offset: r20 at cfa-16
  DW_CFA_offset: r30 at cfa-24
  DW_CFA_offset: r29 at cfa-32
  DW_CFA_offset_extended: r72 at cfa-40
  DW_CFA_offset_extended: r73 at cfa-48
  DW_CFA_offset_extended: r74 at cfa-56
  DW_CFA_offset_extended: r75 at cfa-64
  DW_CFA_offset_extended: r76 at cfa-80
  DW_CFA_remember_state
  DW_CFA_advance_loc2: 924 to 00085f40
  DW_CFA_def_cfa: r31 ofs 112
  DW_CFA_advance_loc: 24 to 00085f58
  DW_CFA_def_cfa_offset: 0
  DW_CFA_restore: r19
  DW_CFA_restore: r20
  DW_CFA_restore: r30
  DW_CFA_restore: r29
  DW_CFA_restore_extended: r72
  DW_CFA_restore_extended: r73
  DW_CFA_restore_extended: r74
  DW_CFA_restore_extended: r75
  DW_CFA_restore_extended: r76
  DW_CFA_advance_loc: 4 to 00085f5c
  DW_CFA_restore_state
  DW_CFA_nop
  DW_CFA_nop
  DW_CFA_nop
  DW_CFA_nop
  DW_CFA_nop
  DW_CFA_nop
  DW_CFA_nop

00002fd8 0000002c 00002fdc FDE cie=00000000 pc=00085fac..00086008
  DW_CFA_advance_loc: 4 to 00085fb0
  DW_CFA_def_cfa_offset: 48
  DW_CFA_advance_loc: 12 to 00085fbc
  DW_CFA_def_cfa: r29 ofs 16
  DW_CFA_offset: r30 at cfa-8
  DW_CFA_offset: r29 at cfa-16
  DW_CFA_offset_extended: r72 at cfa-32
  DW_CFA_advance_loc: 60 to 00085ff8
  DW_CFA_def_cfa: r31 ofs 48
  DW_CFA_advance_loc: 12 to 00086004
  DW_CFA_def_cfa_offset: 0
  DW_CFA_restore: r30
  DW_CFA_restore: r29
  DW_CFA_restore_extended: r72
  DW_CFA_nop
  DW_CFA_nop
  DW_CFA_nop
  DW_CFA_nop
  DW_CFA_nop
  DW_CFA_nop

00003008 0000002c 0000300c FDE cie=00000000 pc=00086008..00086068
  DW_CFA_advance_loc: 4 to 0008600c
  DW_CFA_def_cfa_offset: 48
  DW_CFA_advance_loc: 12 to 00086018
  DW_CFA_def_cfa: r29 ofs 16
  DW_CFA_offset: r30 at cfa-8
  DW_CFA_offset: r29 at cfa-16
  DW_CFA_offset_extended: r72 at cfa-32
  DW_CFA_advance_loc1: 64 to 00086058
  DW_CFA_def_cfa: r31 ofs 48
  DW_CFA_advance_loc: 12 to 00086064
  DW_CFA_def_cfa_offset: 0
  DW_CFA_restore: r30
  DW_CFA_restore: r29
  DW_CFA_restore_extended: r72
  DW_CFA_nop
  DW_CFA_nop
  DW_CFA_nop
  DW_CFA_nop
  DW_CFA_nop

00003038 0000003c 0000303c FDE cie=00000000 pc=00086068..000861e8
  DW_CFA_advance_loc: 4 to 0008606c
  DW_CFA_def_cfa_offset: 64
  DW_CFA_advance_loc: 16 to 0008607c
  DW_CFA_def_cfa: r29 ofs 16
  DW_CFA_offset: r30 at cfa-8
  DW_CFA_offset: r29 at cfa-16
  DW_CFA_offset_extended: r72 at cfa-24
  DW_CFA_offset_extended: r73 at cfa-32
  DW_CFA_offset_extended: r74 at cfa-40
  DW_CFA_offset_extended: r75 at cfa-48
  DW_CFA_offset_extended: r76 at cfa-64
  DW_CFA_advance_loc2: 344 to 000861d4
  DW_CFA_def_cfa: r31 ofs 64
  DW_CFA_advance_loc: 16 to 000861e4
  DW_CFA_def_cfa_offset: 0
  DW_CFA_restore: r30
  DW_CFA_restore: r29
  DW_CFA_restore_extended: r72
  DW_CFA_restore_extended: r73
  DW_CFA_restore_extended: r74
  DW_CFA_restore_extended: r75
  DW_CFA_restore_extended: r76

00003078 0000003c 0000307c FDE cie=00000000 pc=000861e8..00086354
  DW_CFA_advance_loc: 4 to 000861ec
  DW_CFA_def_cfa_offset: 64
  DW_CFA_advance_loc: 16 to 000861fc
  DW_CFA_def_cfa: r29 ofs 16
  DW_CFA_offset: r30 at cfa-8
  DW_CFA_offset: r29 at cfa-16
  DW_CFA_offset_extended: r72 at cfa-24
  DW_CFA_offset_extended: r73 at cfa-32
  DW_CFA_offset_extended: r74 at cfa-40
  DW_CFA_offset_extended: r75 at cfa-48
  DW_CFA_offset_extended: r76 at cfa-64
  DW_CFA_advance_loc2: 324 to 00086340
  DW_CFA_def_cfa: r31 ofs 64
  DW_CFA_advance_loc: 16 to 00086350
  DW_CFA_def_cfa_offset: 0
  DW_CFA_restore: r30
  DW_CFA_restore: r29
  DW_CFA_restore_extended: r72
  DW_CFA_restore_extended: r73
  DW_CFA_restore_extended: r74
  DW_CFA_restore_extended: r75
  DW_CFA_restore_extended: r76

000030b8 0000002c 000030bc FDE cie=00000000 pc=00086354..000863b0
  DW_CFA_advance_loc: 4 to 00086358
  DW_CFA_def_cfa_offset: 48
  DW_CFA_advance_loc: 12 to 00086364
  DW_CFA_def_cfa: r29 ofs 16
  DW_CFA_offset: r30 at cfa-8
  DW_CFA_offset: r29 at cfa-16
  DW_CFA_offset_extended: r72 at cfa-32
  DW_CFA_advance_loc: 60 to 000863a0
  DW_CFA_def_cfa: r31 ofs 48
  DW_CFA_advance_loc: 12 to 000863ac
  DW_CFA_def_cfa_offset: 0
  DW_CFA_restore: r30
  DW_CFA_restore: r29
  DW_CFA_restore_extended: r72
  DW_CFA_nop
  DW_CFA_nop
  DW_CFA_nop
  DW_CFA_nop
  DW_CFA_nop
  DW_CFA_nop

000030e8 00000014 000030ec FDE cie=00000000 pc=000863b0..000863b8
  DW_CFA_nop
  DW_CFA_nop
  DW_CFA_nop
  DW_CFA_nop
  DW_CFA_nop
  DW_CFA_nop
  DW_CFA_nop

00003100 00000014 00003104 FDE cie=00000000 pc=000863b8..000863c0
  DW_CFA_nop
  DW_CFA_nop
  DW_CFA_nop
  DW_CFA_nop
  DW_CFA_nop
  DW_CFA_nop
  DW_CFA_nop

00003118 00000014 0000311c FDE cie=00000000 pc=000863c0..000863c8
  DW_CFA_nop
  DW_CFA_nop
  DW_CFA_nop
  DW_CFA_nop
  DW_CFA_nop
  DW_CFA_nop
  DW_CFA_nop

00003130 00000034 00003134 FDE cie=00000000 pc=000863c8..00086500
  DW_CFA_advance_loc: 4 to 000863cc
  DW_CFA_def_cfa_offset: 32
  DW_CFA_advance_loc: 8 to 000863d4
  DW_CFA_def_cfa: r29 ofs 16
  DW_CFA_offset: r30 at cfa-8
  DW_CFA_offset: r29 at cfa-16
  DW_CFA_offset_extended: r72 at cfa-24
  DW_CFA_offset_extended: r73 at cfa-32
  DW_CFA_advance_loc2: 288 to 000864f4
  DW_CFA_def_cfa: r31 ofs 32
  DW_CFA_advance_loc: 8 to 000864fc
  DW_CFA_def_cfa_offset: 0
  DW_CFA_restore: r30
  DW_CFA_restore: r29
  DW_CFA_restore_extended: r72
  DW_CFA_restore_extended: r73
  DW_CFA_nop
  DW_CFA_nop
  DW_CFA_nop
  DW_CFA_nop
  DW_CFA_nop
  DW_CFA_nop
  DW_CFA_nop

00003168 0000002c 0000316c FDE cie=00000000 pc=00086500..000865f0
  DW_CFA_advance_loc: 4 to 00086504
  DW_CFA_def_cfa_offset: 32
  DW_CFA_advance_loc: 8 to 0008650c
  DW_CFA_def_cfa: r29 ofs 16
  DW_CFA_offset: r30 at cfa-8
  DW_CFA_offset: r29 at cfa-16
  DW_CFA_offset_extended: r72 at cfa-24
  DW_CFA_offset_extended: r73 at cfa-32
  DW_CFA_advance_loc1: 216 to 000865e4
  DW_CFA_def_cfa: r31 ofs 32
  DW_CFA_advance_loc: 8 to 000865ec
  DW_CFA_def_cfa_offset: 0
  DW_CFA_restore: r30
  DW_CFA_restore: r29
  DW_CFA_restore_extended: r72
  DW_CFA_restore_extended: r73

00003198 00000024 0000319c FDE cie=00000000 pc=000865f0..0008663c
  DW_CFA_advance_loc: 4 to 000865f4
  DW_CFA_def_cfa_offset: 64
  DW_CFA_advance_loc: 8 to 000865fc
  DW_CFA_def_cfa: r29 ofs 16
  DW_CFA_offset: r30 at cfa-8
  DW_CFA_offset: r29 at cfa-16
  DW_CFA_advance_loc: 52 to 00086630
  DW_CFA_def_cfa: r31 ofs 64
  DW_CFA_advance_loc: 8 to 00086638
  DW_CFA_def_cfa_offset: 0
  DW_CFA_restore: r30
  DW_CFA_restore: r29
  DW_CFA_nop
  DW_CFA_nop
  DW_CFA_nop

000031c0 00000014 000031c4 FDE cie=00000000 pc=0008663c..00086644
  DW_CFA_nop
  DW_CFA_nop
  DW_CFA_nop
  DW_CFA_nop
  DW_CFA_nop
  DW_CFA_nop
  DW_CFA_nop

000031d8 00000014 000031dc FDE cie=00000000 pc=00086644..0008664c
  DW_CFA_nop
  DW_CFA_nop
  DW_CFA_nop
  DW_CFA_nop
  DW_CFA_nop
  DW_CFA_nop
  DW_CFA_nop

000031f0 00000014 000031f4 FDE cie=00000000 pc=0008664c..00086664
  DW_CFA_advance_loc: 4 to 00086650
  DW_CFA_def_cfa_offset: 16
  DW_CFA_advance_loc: 16 to 00086660
  DW_CFA_def_cfa_offset: 0
  DW_CFA_nop

00003208 00000034 0000320c FDE cie=00000000 pc=00086664..000866c4
  DW_CFA_advance_loc: 4 to 00086668
  DW_CFA_def_cfa_offset: 32
  DW_CFA_advance_loc: 8 to 00086670
  DW_CFA_def_cfa: r29 ofs 16
  DW_CFA_offset: r30 at cfa-8
  DW_CFA_offset: r29 at cfa-16
  DW_CFA_offset_extended: r72 at cfa-24
  DW_CFA_offset_extended: r73 at cfa-32
  DW_CFA_remember_state
  DW_CFA_advance_loc: 56 to 000866a8
  DW_CFA_def_cfa: r31 ofs 32
  DW_CFA_advance_loc: 8 to 000866b0
  DW_CFA_def_cfa_offset: 0
  DW_CFA_restore: r30
  DW_CFA_restore: r29
  DW_CFA_restore_extended: r72
  DW_CFA_restore_extended: r73
  DW_CFA_advance_loc: 4 to 000866b4
  DW_CFA_restore_state
  DW_CFA_nop
  DW_CFA_nop
  DW_CFA_nop
  DW_CFA_nop
  DW_CFA_nop
  DW_CFA_nop

00003240 0000003c 00003244 FDE cie=00000000 pc=000866c4..000867fc
  DW_CFA_advance_loc: 4 to 000866c8
  DW_CFA_def_cfa_offset: 48
  DW_CFA_advance_loc: 12 to 000866d4
  DW_CFA_def_cfa: r29 ofs 16
  DW_CFA_offset: r30 at cfa-8
  DW_CFA_offset: r29 at cfa-16
  DW_CFA_offset_extended: r72 at cfa-24
  DW_CFA_offset_extended: r73 at cfa-32
  DW_CFA_offset_extended: r74 at cfa-40
  DW_CFA_offset_extended: r75 at cfa-48
  DW_CFA_remember_state
  DW_CFA_advance_loc2: 260 to 000867d8
  DW_CFA_def_cfa: r31 ofs 48
  DW_CFA_advance_loc: 12 to 000867e4
  DW_CFA_def_cfa_offset: 0
  DW_CFA_restore: r30
  DW_CFA_restore: r29
  DW_CFA_restore_extended: r72
  DW_CFA_restore_extended: r73
  DW_CFA_restore_extended: r74
  DW_CFA_restore_extended: r75
  DW_CFA_advance_loc: 4 to 000867e8
  DW_CFA_restore_state
  DW_CFA_nop
  DW_CFA_nop

00003280 0000002c 00003284 FDE cie=00000000 pc=000867fc..0008691c
  DW_CFA_advance_loc: 4 to 00086800
  DW_CFA_def_cfa_offset: 160
  DW_CFA_advance_loc: 12 to 0008680c
  DW_CFA_def_cfa: r29 ofs 16
  DW_CFA_offset: r30 at cfa-8
  DW_CFA_offset: r29 at cfa-16
  DW_CFA_offset_extended: r72 at cfa-32
  DW_CFA_remember_state
  DW_CFA_advance_loc1: 216 to 000868e4
  DW_CFA_def_cfa: r31 ofs 160
  DW_CFA_advance_loc: 12 to 000868f0
  DW_CFA_def_cfa_offset: 0
  DW_CFA_restore: r30
  DW_CFA_restore: r29
  DW_CFA_restore_extended: r72
  DW_CFA_advance_loc: 4 to 000868f4
  DW_CFA_restore_state

000032b0 00000014 000032b4 FDE cie=00000000 pc=0008691c..00086950
  DW_CFA_nop
  DW_CFA_nop
  DW_CFA_nop
  DW_CFA_nop
  DW_CFA_nop
  DW_CFA_nop
  DW_CFA_nop

000032c8 00000014 000032cc FDE cie=00000000 pc=00086950..00086984
  DW_CFA_nop
  DW_CFA_nop
  DW_CFA_nop
  DW_CFA_nop
  DW_CFA_nop
  DW_CFA_nop
  DW_CFA_nop

000032e0 0000001c 000032e4 FDE cie=00000000 pc=00086984..000869fc
  DW_CFA_advance_loc: 4 to 00086988
  DW_CFA_def_cfa_offset: 64
  DW_CFA_remember_state
  DW_CFA_advance_loc1: 76 to 000869d4
  DW_CFA_def_cfa_offset: 0
  DW_CFA_advance_loc: 4 to 000869d8
  DW_CFA_restore_state
  DW_CFA_advance_loc: 32 to 000869f8
  DW_CFA_def_cfa_offset: 0
  DW_CFA_nop
  DW_CFA_nop

00003300 00000014 00003304 FDE cie=00000000 pc=000869fc..00086a00
  DW_CFA_nop
  DW_CFA_nop
  DW_CFA_nop
  DW_CFA_nop
  DW_CFA_nop
  DW_CFA_nop
  DW_CFA_nop

00003318 00000014 0000331c FDE cie=00000000 pc=00086a00..00086a04
  DW_CFA_nop
  DW_CFA_nop
  DW_CFA_nop
  DW_CFA_nop
  DW_CFA_nop
  DW_CFA_nop
  DW_CFA_nop

00003330 00000014 00003334 FDE cie=00000000 pc=00086a04..00086a08
  DW_CFA_nop
  DW_CFA_nop
  DW_CFA_nop
  DW_CFA_nop
  DW_CFA_nop
  DW_CFA_nop
  DW_CFA_nop

00003348 00000024 0000334c FDE cie=00000000 pc=00086a08..00086a38
  DW_CFA_advance_loc: 4 to 00086a0c
  DW_CFA_def_cfa_offset: 16
  DW_CFA_advance_loc: 4 to 00086a10
  DW_CFA_def_cfa: r29 ofs 16
  DW_CFA_offset: r30 at cfa-8
  DW_CFA_offset: r29 at cfa-16
  DW_CFA_advance_loc: 32 to 00086a30
  DW_CFA_def_cfa: r31 ofs 16
  DW_CFA_advance_loc: 4 to 00086a34
  DW_CFA_def_cfa_offset: 0
  DW_CFA_restore: r30
  DW_CFA_restore: r29
  DW_CFA_nop
  DW_CFA_nop
  DW_CFA_nop

00003370 00000024 00003374 FDE cie=00000000 pc=00086a38..00086a68
  DW_CFA_advance_loc: 4 to 00086a3c
  DW_CFA_def_cfa_offset: 16
  DW_CFA_advance_loc: 4 to 00086a40
  DW_CFA_def_cfa: r29 ofs 16
  DW_CFA_offset: r30 at cfa-8
  DW_CFA_offset: r29 at cfa-16
  DW_CFA_advance_loc: 32 to 00086a60
  DW_CFA_def_cfa: r31 ofs 16
  DW_CFA_advance_loc: 4 to 00086a64
  DW_CFA_def_cfa_offset: 0
  DW_CFA_restore: r30
  DW_CFA_restore: r29
  DW_CFA_nop
  DW_CFA_nop
  DW_CFA_nop

00003398 0000004c 0000339c FDE cie=00000000 pc=00086a68..00086f30
  DW_CFA_advance_loc: 4 to 00086a6c
  DW_CFA_def_cfa_offset: 112
  DW_CFA_advance_loc: 28 to 00086a88
  DW_CFA_def_cfa: r29 ofs 40
  DW_CFA_offset: r19 at cfa-8
  DW_CFA_offset: r20 at cfa-16
  DW_CFA_offset: r21 at cfa-24
  DW_CFA_offset: r30 at cfa-32
  DW_CFA_offset: r29 at cfa-40
  DW_CFA_offset_extended: r72 at cfa-48
  DW_CFA_offset_extended: r73 at cfa-56
  DW_CFA_offset_extended: r74 at cfa-64
  DW_CFA_offset_extended: r75 at cfa-72
  DW_CFA_offset_extended: r76 at cfa-80
  DW_CFA_remember_state
  DW_CFA_advance_loc2: 1080 to 00086ec0
  DW_CFA_def_cfa: r31 ofs 112
  DW_CFA_advance_loc: 28 to 00086edc
  DW_CFA_def_cfa_offset: 0
  DW_CFA_restore: r19
  DW_CFA_restore: r20
  DW_CFA_restore: r21
  DW_CFA_restore: r30
  DW_CFA_restore: r29
  DW_CFA_restore_extended: r72
  DW_CFA_restore_extended: r73
  DW_CFA_restore_extended: r74
  DW_CFA_restore_extended: r75
  DW_CFA_restore_extended: r76
  DW_CFA_advance_loc: 4 to 00086ee0
  DW_CFA_restore_state
  DW_CFA_nop
  DW_CFA_nop
  DW_CFA_nop
  DW_CFA_nop

000033e8 0000004c 000033ec FDE cie=00000000 pc=00086f30..00087370
  DW_CFA_advance_loc: 4 to 00086f34
  DW_CFA_def_cfa_offset: 112
  DW_CFA_advance_loc: 24 to 00086f4c
  DW_CFA_def_cfa: r29 ofs 32
  DW_CFA_offset: r19 at cfa-8
  DW_CFA_offset: r20 at cfa-16
  DW_CFA_offset: r30 at cfa-24
  DW_CFA_offset: r29 at cfa-32
  DW_CFA_offset_extended: r72 at cfa-40
  DW_CFA_offset_extended: r73 at cfa-48
  DW_CFA_offset_extended: r74 at cfa-56
  DW_CFA_offset_extended: r75 at cfa-64
  DW_CFA_offset_extended: r76 at cfa-80
  DW_CFA_remember_state
  DW_CFA_advance_loc2: 980 to 00087320
  DW_CFA_def_cfa: r31 ofs 112
  DW_CFA_advance_loc: 24 to 00087338
  DW_CFA_def_cfa_offset: 0
  DW_CFA_restore: r19
  DW_CFA_restore: r20
  DW_CFA_restore: r30
  DW_CFA_restore: r29
  DW_CFA_restore_extended: r72
  DW_CFA_restore_extended: r73
  DW_CFA_restore_extended: r74
  DW_CFA_restore_extended: r75
  DW_CFA_restore_extended: r76
  DW_CFA_advance_loc: 4 to 0008733c
  DW_CFA_restore_state
  DW_CFA_nop
  DW_CFA_nop
  DW_CFA_nop
  DW_CFA_nop
  DW_CFA_nop
  DW_CFA_nop
  DW_CFA_nop

00003438 0000002c 0000343c FDE cie=00000000 pc=00087370..000873cc
  DW_CFA_advance_loc: 4 to 00087374
  DW_CFA_def_cfa_offset: 48
  DW_CFA_advance_loc: 12 to 00087380
  DW_CFA_def_cfa: r29 ofs 16
  DW_CFA_offset: r30 at cfa-8
  DW_CFA_offset: r29 at cfa-16
  DW_CFA_offset_extended: r72 at cfa-32
  DW_CFA_advance_loc: 60 to 000873bc
  DW_CFA_def_cfa: r31 ofs 48
  DW_CFA_advance_loc: 12 to 000873c8
  DW_CFA_def_cfa_offset: 0
  DW_CFA_restore: r30
  DW_CFA_restore: r29
  DW_CFA_restore_extended: r72
  DW_CFA_nop
  DW_CFA_nop
  DW_CFA_nop
  DW_CFA_nop
  DW_CFA_nop
  DW_CFA_nop

00003468 0000002c 0000346c FDE cie=00000000 pc=000873cc..0008743c
  DW_CFA_advance_loc: 4 to 000873d0
  DW_CFA_def_cfa_offset: 64
  DW_CFA_advance_loc: 12 to 000873dc
  DW_CFA_def_cfa: r29 ofs 16
  DW_CFA_offset: r30 at cfa-8
  DW_CFA_offset: r29 at cfa-16
  DW_CFA_offset_extended: r72 at cfa-32
  DW_CFA_advance_loc1: 80 to 0008742c
  DW_CFA_def_cfa: r31 ofs 64
  DW_CFA_advance_loc: 12 to 00087438
  DW_CFA_def_cfa_offset: 0
  DW_CFA_restore: r30
  DW_CFA_restore: r29
  DW_CFA_restore_extended: r72
  DW_CFA_nop
  DW_CFA_nop
  DW_CFA_nop
  DW_CFA_nop
  DW_CFA_nop

00003498 0000006c 0000349c FDE cie=00000000 pc=0008743c..000876c0
  DW_CFA_advance_loc: 4 to 00087440
  DW_CFA_def_cfa_offset: 16
  DW_CFA_advance_loc: 4 to 00087444
  DW_CFA_def_cfa: r29 ofs 16
  DW_CFA_offset: r30 at cfa-8
  DW_CFA_offset: r29 at cfa-16
  DW_CFA_remember_state
  DW_CFA_advance_loc: 20 to 00087458
  DW_CFA_def_cfa: r31 ofs 16
  DW_CFA_advance_loc: 4 to 0008745c
  DW_CFA_def_cfa_offset: 0
  DW_CFA_restore: r30
  DW_CFA_restore: r29
  DW_CFA_advance_loc: 4 to 00087460
  DW_CFA_restore_state
  DW_CFA_remember_state
  DW_CFA_advance_loc: 24 to 00087478
  DW_CFA_def_cfa: r31 ofs 16
  DW_CFA_advance_loc: 4 to 0008747c
  DW_CFA_def_cfa_offset: 0
  DW_CFA_restore: r30
  DW_CFA_restore: r29
  DW_CFA_advance_loc: 4 to 00087480
  DW_CFA_restore_state
  DW_CFA_remember_state
  DW_CFA_advance_loc: 32 to 000874a0
  DW_CFA_def_cfa: r31 ofs 16
  DW_CFA_advance_loc: 4 to 000874a4
  DW_CFA_def_cfa_offset: 0
  DW_CFA_restore: r30
  DW_CFA_restore: r29
  DW_CFA_advance_loc: 4 to 000874a8
  DW_CFA_restore_state
  DW_CFA_remember_state
  DW_CFA_advance_loc1: 188 to 00087564
  DW_CFA_def_cfa: r31 ofs 16
  DW_CFA_advance_loc: 4 to 00087568
  DW_CFA_def_cfa_offset: 0
  DW_CFA_restore: r30
  DW_CFA_restore: r29
  DW_CFA_advance_loc: 4 to 0008756c
  DW_CFA_restore_state
  DW_CFA_remember_state
  DW_CFA_advance_loc2: 256 to 0008766c
  DW_CFA_def_cfa: r31 ofs 16
  DW_CFA_advance_loc: 4 to 00087670
  DW_CFA_def_cfa_offset: 0
  DW_CFA_restore: r30
  DW_CFA_restore: r29
  DW_CFA_advance_loc: 4 to 00087674
  DW_CFA_restore_state
  DW_CFA_remember_state
  DW_CFA_advance_loc: 40 to 0008769c
  DW_CFA_def_cfa: r31 ofs 16
  DW_CFA_advance_loc: 4 to 000876a0
  DW_CFA_def_cfa_offset: 0
  DW_CFA_restore: r30
  DW_CFA_restore: r29
  DW_CFA_advance_loc: 4 to 000876a4
  DW_CFA_restore_state
  DW_CFA_advance_loc: 20 to 000876b8
  DW_CFA_def_cfa: r31 ofs 16
  DW_CFA_advance_loc: 4 to 000876bc
  DW_CFA_def_cfa_offset: 0
  DW_CFA_restore: r30
  DW_CFA_restore: r29

00003508 00000014 0000350c FDE cie=00000000 pc=000876c0..000879cc
  DW_CFA_nop
  DW_CFA_nop
  DW_CFA_nop
  DW_CFA_nop
  DW_CFA_nop
  DW_CFA_nop
  DW_CFA_nop

00003520 0000002c 00003524 FDE cie=00000000 pc=000879cc..00087a28
  DW_CFA_advance_loc: 4 to 000879d0
  DW_CFA_def_cfa_offset: 48
  DW_CFA_advance_loc: 12 to 000879dc
  DW_CFA_def_cfa: r29 ofs 16
  DW_CFA_offset: r30 at cfa-8
  DW_CFA_offset: r29 at cfa-16
  DW_CFA_offset_extended: r72 at cfa-32
  DW_CFA_advance_loc: 60 to 00087a18
  DW_CFA_def_cfa: r31 ofs 48
  DW_CFA_advance_loc: 12 to 00087a24
  DW_CFA_def_cfa_offset: 0
  DW_CFA_restore: r30
  DW_CFA_restore: r29
  DW_CFA_restore_extended: r72
  DW_CFA_nop
  DW_CFA_nop
  DW_CFA_nop
  DW_CFA_nop
  DW_CFA_nop
  DW_CFA_nop

00003550 00000024 00003554 FDE cie=00000000 pc=00087a28..00087a58
  DW_CFA_advance_loc: 4 to 00087a2c
  DW_CFA_def_cfa_offset: 16
  DW_CFA_advance_loc: 4 to 00087a30
  DW_CFA_def_cfa: r29 ofs 16
  DW_CFA_offset: r30 at cfa-8
  DW_CFA_offset: r29 at cfa-16
  DW_CFA_advance_loc: 32 to 00087a50
  DW_CFA_def_cfa: r31 ofs 16
  DW_CFA_advance_loc: 4 to 00087a54
  DW_CFA_def_cfa_offset: 0
  DW_CFA_restore: r30
  DW_CFA_restore: r29
  DW_CFA_nop
  DW_CFA_nop
  DW_CFA_nop

00003578 00000024 0000357c FDE cie=00000000 pc=00087a58..00087a88
  DW_CFA_advance_loc: 4 to 00087a5c
  DW_CFA_def_cfa_offset: 16
  DW_CFA_advance_loc: 4 to 00087a60
  DW_CFA_def_cfa: r29 ofs 16
  DW_CFA_offset: r30 at cfa-8
  DW_CFA_offset: r29 at cfa-16
  DW_CFA_advance_loc: 32 to 00087a80
  DW_CFA_def_cfa: r31 ofs 16
  DW_CFA_advance_loc: 4 to 00087a84
  DW_CFA_def_cfa_offset: 0
  DW_CFA_restore: r30
  DW_CFA_restore: r29
  DW_CFA_nop
  DW_CFA_nop
  DW_CFA_nop

000035a0 0000003c 000035a4 FDE cie=00000000 pc=00087a88..00087cb0
  DW_CFA_advance_loc: 4 to 00087a8c
  DW_CFA_def_cfa_offset: 96
  DW_CFA_advance_loc: 20 to 00087aa0
  DW_CFA_def_cfa: r29 ofs 32
  DW_CFA_offset: r19 at cfa-8
  DW_CFA_offset: r20 at cfa-16
  DW_CFA_offset: r30 at cfa-24
  DW_CFA_offset: r29 at cfa-32
  DW_CFA_offset_extended: r72 at cfa-40
  DW_CFA_offset_extended: r73 at cfa-48
  DW_CFA_offset_extended: r74 at cfa-64
  DW_CFA_advance_loc2: 504 to 00087c98
  DW_CFA_def_cfa: r31 ofs 96
  DW_CFA_advance_loc: 20 to 00087cac
  DW_CFA_def_cfa_offset: 0
  DW_CFA_restore: r19
  DW_CFA_restore: r20
  DW_CFA_restore: r30
  DW_CFA_restore: r29
  DW_CFA_restore_extended: r72
  DW_CFA_restore_extended: r73
  DW_CFA_restore_extended: r74
  DW_CFA_nop
  DW_CFA_nop
  DW_CFA_nop
  DW_CFA_nop

000035e0 0000003c 000035e4 FDE cie=00000000 pc=00087cb0..00087e90
  DW_CFA_advance_loc: 4 to 00087cb4
  DW_CFA_def_cfa_offset: 96
  DW_CFA_advance_loc: 20 to 00087cc8
  DW_CFA_def_cfa: r29 ofs 32
  DW_CFA_offset: r19 at cfa-8
  DW_CFA_offset: r20 at cfa-16
  DW_CFA_offset: r30 at cfa-24
  DW_CFA_offset: r29 at cfa-32
  DW_CFA_offset_extended: r72 at cfa-40
  DW_CFA_offset_extended: r73 at cfa-48
  DW_CFA_offset_extended: r74 at cfa-64
  DW_CFA_advance_loc2: 432 to 00087e78
  DW_CFA_def_cfa: r31 ofs 96
  DW_CFA_advance_loc: 20 to 00087e8c
  DW_CFA_def_cfa_offset: 0
  DW_CFA_restore: r19
  DW_CFA_restore: r20
  DW_CFA_restore: r30
  DW_CFA_restore: r29
  DW_CFA_restore_extended: r72
  DW_CFA_restore_extended: r73
  DW_CFA_restore_extended: r74
  DW_CFA_nop
  DW_CFA_nop
  DW_CFA_nop
  DW_CFA_nop

00003620 0000002c 00003624 FDE cie=00000000 pc=00087e90..00087eec
  DW_CFA_advance_loc: 4 to 00087e94
  DW_CFA_def_cfa_offset: 48
  DW_CFA_advance_loc: 12 to 00087ea0
  DW_CFA_def_cfa: r29 ofs 16
  DW_CFA_offset: r30 at cfa-8
  DW_CFA_offset: r29 at cfa-16
  DW_CFA_offset_extended: r72 at cfa-32
  DW_CFA_advance_loc: 60 to 00087edc
  DW_CFA_def_cfa: r31 ofs 48
  DW_CFA_advance_loc: 12 to 00087ee8
  DW_CFA_def_cfa_offset: 0
  DW_CFA_restore: r30
  DW_CFA_restore: r29
  DW_CFA_restore_extended: r72
  DW_CFA_nop
  DW_CFA_nop
  DW_CFA_nop
  DW_CFA_nop
  DW_CFA_nop
  DW_CFA_nop

00003650 0000002c 00003654 FDE cie=00000000 pc=00087eec..00087f5c
  DW_CFA_advance_loc: 4 to 00087ef0
  DW_CFA_def_cfa_offset: 64
  DW_CFA_advance_loc: 12 to 00087efc
  DW_CFA_def_cfa: r29 ofs 16
  DW_CFA_offset: r30 at cfa-8
  DW_CFA_offset: r29 at cfa-16
  DW_CFA_offset_extended: r72 at cfa-32
  DW_CFA_advance_loc1: 80 to 00087f4c
  DW_CFA_def_cfa: r31 ofs 64
  DW_CFA_advance_loc: 12 to 00087f58
  DW_CFA_def_cfa_offset: 0
  DW_CFA_restore: r30
  DW_CFA_restore: r29
  DW_CFA_restore_extended: r72
  DW_CFA_nop
  DW_CFA_nop
  DW_CFA_nop
  DW_CFA_nop
  DW_CFA_nop

00003680 00000034 00003684 FDE cie=00000000 pc=00087f5c..00087fd4
  DW_CFA_advance_loc: 4 to 00087f60
  DW_CFA_def_cfa_offset: 16
  DW_CFA_advance_loc: 4 to 00087f64
  DW_CFA_def_cfa: r29 ofs 16
  DW_CFA_offset: r30 at cfa-8
  DW_CFA_offset: r29 at cfa-16
  DW_CFA_remember_state
  DW_CFA_advance_loc: 56 to 00087f9c
  DW_CFA_def_cfa: r31 ofs 16
  DW_CFA_advance_loc: 4 to 00087fa0
  DW_CFA_def_cfa_offset: 0
  DW_CFA_restore: r30
  DW_CFA_restore: r29
  DW_CFA_advance_loc: 4 to 00087fa4
  DW_CFA_restore_state
  DW_CFA_advance_loc: 40 to 00087fcc
  DW_CFA_def_cfa: r31 ofs 16
  DW_CFA_advance_loc: 4 to 00087fd0
  DW_CFA_def_cfa_offset: 0
  DW_CFA_restore: r30
  DW_CFA_restore: r29
  DW_CFA_nop
  DW_CFA_nop
  DW_CFA_nop
  DW_CFA_nop
  DW_CFA_nop
  DW_CFA_nop
  DW_CFA_nop

000036b8 00000034 000036bc FDE cie=00000000 pc=00087fd4..00088014
  DW_CFA_advance_loc: 4 to 00087fd8
  DW_CFA_def_cfa_offset: 16
  DW_CFA_advance_loc: 4 to 00087fdc
  DW_CFA_def_cfa: r29 ofs 16
  DW_CFA_offset: r30 at cfa-8
  DW_CFA_offset: r29 at cfa-16
  DW_CFA_remember_state
  DW_CFA_advance_loc: 28 to 00087ff8
  DW_CFA_def_cfa: r31 ofs 16
  DW_CFA_advance_loc: 4 to 00087ffc
  DW_CFA_def_cfa_offset: 0
  DW_CFA_restore: r30
  DW_CFA_restore: r29
  DW_CFA_advance_loc: 4 to 00088000
  DW_CFA_restore_state
  DW_CFA_advance_loc: 12 to 0008800c
  DW_CFA_def_cfa: r31 ofs 16
  DW_CFA_advance_loc: 4 to 00088010
  DW_CFA_def_cfa_offset: 0
  DW_CFA_restore: r30
  DW_CFA_restore: r29
  DW_CFA_nop
  DW_CFA_nop
  DW_CFA_nop
  DW_CFA_nop
  DW_CFA_nop
  DW_CFA_nop
  DW_CFA_nop

000036f0 0000003c 000036f4 FDE cie=00000000 pc=00088014..000882a4
  DW_CFA_advance_loc: 20 to 00088028
  DW_CFA_def_cfa_offset: 192
  DW_CFA_advance_loc: 20 to 0008803c
  DW_CFA_def_cfa: r29 ofs 64
  DW_CFA_offset: r15 at cfa-8
  DW_CFA_offset: r19 at cfa-16
  DW_CFA_offset: r20 at cfa-24
  DW_CFA_offset: r21 at cfa-32
  DW_CFA_offset: r22 at cfa-40
  DW_CFA_offset: r23 at cfa-48
  DW_CFA_offset: r30 at cfa-56
  DW_CFA_offset: r29 at cfa-64
  DW_CFA_remember_state
  DW_CFA_advance_loc2: 300 to 00088168
  DW_CFA_def_cfa: r31 ofs 192
  DW_CFA_advance_loc: 20 to 0008817c
  DW_CFA_def_cfa_offset: 0
  DW_CFA_restore: r15
  DW_CFA_restore: r19
  DW_CFA_restore: r20
  DW_CFA_restore: r21
  DW_CFA_restore: r22
  DW_CFA_restore: r23
  DW_CFA_restore: r30
  DW_CFA_restore: r29
  DW_CFA_advance_loc: 32 to 0008819c
  DW_CFA_restore_state
  DW_CFA_nop
  DW_CFA_nop

00003730 00000044 00003734 FDE cie=00000000 pc=000882a4..00088628
  DW_CFA_advance_loc: 20 to 000882b8
  DW_CFA_def_cfa_offset: 208
  DW_CFA_advance_loc: 24 to 000882d0
  DW_CFA_def_cfa: r29 ofs 80
  DW_CFA_offset: r15 at cfa-8
  DW_CFA_offset: r19 at cfa-16
  DW_CFA_offset: r20 at cfa-24
  DW_CFA_offset: r21 at cfa-32
  DW_CFA_offset: r22 at cfa-40
  DW_CFA_offset: r23 at cfa-48
  DW_CFA_offset: r24 at cfa-64
  DW_CFA_offset: r30 at cfa-72
  DW_CFA_offset: r29 at cfa-80
  DW_CFA_remember_state
  DW_CFA_advance_loc2: 408 to 00088468
  DW_CFA_def_cfa: r31 ofs 208
  DW_CFA_advance_loc: 24 to 00088480
  DW_CFA_def_cfa_offset: 0
  DW_CFA_restore: r15
  DW_CFA_restore: r19
  DW_CFA_restore: r20
  DW_CFA_restore: r21
  DW_CFA_restore: r22
  DW_CFA_restore: r23
  DW_CFA_restore: r24
  DW_CFA_restore: r30
  DW_CFA_restore: r29
  DW_CFA_advance_loc: 32 to 000884a0
  DW_CFA_restore_state
  DW_CFA_nop
  DW_CFA_nop
  DW_CFA_nop
  DW_CFA_nop
  DW_CFA_nop
  DW_CFA_nop
  DW_CFA_nop

00003778 00000014 0000377c FDE cie=00000000 pc=00088628..00088630
  DW_CFA_nop
  DW_CFA_nop
  DW_CFA_nop
  DW_CFA_nop
  DW_CFA_nop
  DW_CFA_nop
  DW_CFA_nop

00003790 00000014 00003794 FDE cie=00000000 pc=00088630..00088638
  DW_CFA_nop
  DW_CFA_nop
  DW_CFA_nop
  DW_CFA_nop
  DW_CFA_nop
  DW_CFA_nop
  DW_CFA_nop

000037a8 00000034 000037ac FDE cie=00000000 pc=00088638..00088678
  DW_CFA_advance_loc: 4 to 0008863c
  DW_CFA_def_cfa_offset: 16
  DW_CFA_advance_loc: 4 to 00088640
  DW_CFA_def_cfa: r29 ofs 16
  DW_CFA_offset: r30 at cfa-8
  DW_CFA_offset: r29 at cfa-16
  DW_CFA_remember_state
  DW_CFA_advance_loc: 28 to 0008865c
  DW_CFA_def_cfa: r31 ofs 16
  DW_CFA_advance_loc: 4 to 00088660
  DW_CFA_def_cfa_offset: 0
  DW_CFA_restore: r30
  DW_CFA_restore: r29
  DW_CFA_advance_loc: 4 to 00088664
  DW_CFA_restore_state
  DW_CFA_advance_loc: 12 to 00088670
  DW_CFA_def_cfa: r31 ofs 16
  DW_CFA_advance_loc: 4 to 00088674
  DW_CFA_def_cfa_offset: 0
  DW_CFA_restore: r30
  DW_CFA_restore: r29
  DW_CFA_nop
  DW_CFA_nop
  DW_CFA_nop
  DW_CFA_nop
  DW_CFA_nop
  DW_CFA_nop
  DW_CFA_nop

000037e0 00000034 000037e4 FDE cie=00000000 pc=00088678..000888d0
  DW_CFA_advance_loc: 20 to 0008868c
  DW_CFA_def_cfa_offset: 448
  DW_CFA_advance_loc: 16 to 0008869c
  DW_CFA_def_cfa: r29 ofs 48
  DW_CFA_offset: r15 at cfa-8
  DW_CFA_offset: r19 at cfa-16
  DW_CFA_offset: r20 at cfa-24
  DW_CFA_offset: r28 at cfa-32
  DW_CFA_offset: r30 at cfa-40
  DW_CFA_offset: r29 at cfa-48
  DW_CFA_remember_state
  DW_CFA_advance_loc1: 144 to 0008872c
  DW_CFA_def_cfa: r31 ofs 448
  DW_CFA_advance_loc: 16 to 0008873c
  DW_CFA_def_cfa_offset: 0
  DW_CFA_restore: r15
  DW_CFA_restore: r19
  DW_CFA_restore: r20
  DW_CFA_restore: r28
  DW_CFA_restore: r30
  DW_CFA_restore: r29
  DW_CFA_advance_loc: 32 to 0008875c
  DW_CFA_restore_state
  DW_CFA_nop

00003818 0000003c 0000381c FDE cie=00000000 pc=000888d0..00088cc0
  DW_CFA_advance_loc: 20 to 000888e4
  DW_CFA_def_cfa_offset: 480
  DW_CFA_advance_loc: 20 to 000888f8
  DW_CFA_def_cfa: r29 ofs 64
  DW_CFA_offset: r15 at cfa-8
  DW_CFA_offset: r19 at cfa-16
  DW_CFA_offset: r20 at cfa-24
  DW_CFA_offset: r21 at cfa-32
  DW_CFA_offset: r22 at cfa-40
  DW_CFA_offset: r28 at cfa-48
  DW_CFA_offset: r30 at cfa-56
  DW_CFA_offset: r29 at cfa-64
  DW_CFA_remember_state
  DW_CFA_advance_loc2: 712 to 00088bc0
  DW_CFA_def_cfa: r31 ofs 480
  DW_CFA_advance_loc: 20 to 00088bd4
  DW_CFA_def_cfa_offset: 0
  DW_CFA_restore: r15
  DW_CFA_restore: r19
  DW_CFA_restore: r20
  DW_CFA_restore: r21
  DW_CFA_restore: r22
  DW_CFA_restore: r28
  DW_CFA_restore: r30
  DW_CFA_restore: r29
  DW_CFA_advance_loc: 32 to 00088bf4
  DW_CFA_restore_state
  DW_CFA_nop
  DW_CFA_nop

00003858 00000044 0000385c FDE cie=00000000 pc=00088cc0..000890c0
  DW_CFA_advance_loc: 20 to 00088cd4
  DW_CFA_def_cfa_offset: 96
  DW_CFA_advance_loc: 24 to 00088cec
  DW_CFA_def_cfa: r29 ofs 96
  DW_CFA_offset: r15 at cfa-8
  DW_CFA_offset: r19 at cfa-16
  DW_CFA_offset: r20 at cfa-24
  DW_CFA_offset: r21 at cfa-32
  DW_CFA_offset: r22 at cfa-40
  DW_CFA_offset: r23 at cfa-48
  DW_CFA_offset: r24 at cfa-56
  DW_CFA_offset: r25 at cfa-64
  DW_CFA_offset: r28 at cfa-80
  DW_CFA_offset: r30 at cfa-88
  DW_CFA_offset: r29 at cfa-96
  DW_CFA_remember_state
  DW_CFA_advance_loc1: 200 to 00088db4
  DW_CFA_def_cfa: r31 ofs 96
  DW_CFA_advance_loc: 24 to 00088dcc
  DW_CFA_def_cfa_offset: 0
  DW_CFA_restore: r15
  DW_CFA_restore: r19
  DW_CFA_restore: r20
  DW_CFA_restore: r21
  DW_CFA_restore: r22
  DW_CFA_restore: r23
  DW_CFA_restore: r24
  DW_CFA_restore: r25
  DW_CFA_restore: r28
  DW_CFA_restore: r30
  DW_CFA_restore: r29
  DW_CFA_advance_loc: 32 to 00088dec
  DW_CFA_restore_state
  DW_CFA_nop
  DW_CFA_nop
  DW_CFA_nop
  DW_CFA_nop

000038a0 0000001c 000038a4 FDE cie=00000000 pc=000890c0..00089234
  DW_CFA_advance_loc: 20 to 000890d4
  DW_CFA_def_cfa_offset: 32
  DW_CFA_advance_loc: 4 to 000890d8
  DW_CFA_offset: r15 at cfa-16
  DW_CFA_advance_loc2: 316 to 00089214
  DW_CFA_def_cfa_offset: 0
  DW_CFA_restore: r15
  DW_CFA_nop
  DW_CFA_nop
  DW_CFA_nop

000038c0 00000014 000038c4 FDE cie=00000000 pc=00089234..000896b8
  DW_CFA_nop
  DW_CFA_nop
  DW_CFA_nop
  DW_CFA_nop
  DW_CFA_nop
  DW_CFA_nop
  DW_CFA_nop

000038d8 00000014 000038dc FDE cie=00000000 pc=000896b8..00089a48
  DW_CFA_nop
  DW_CFA_nop
  DW_CFA_nop
  DW_CFA_nop
  DW_CFA_nop
  DW_CFA_nop
  DW_CFA_nop

000038f0 00000014 000038f4 FDE cie=00000000 pc=00089a48..00089ca0
  DW_CFA_nop
  DW_CFA_nop
  DW_CFA_nop
  DW_CFA_nop
  DW_CFA_nop
  DW_CFA_nop
  DW_CFA_nop

00003908 00000024 0000390c FDE cie=00000000 pc=00089ca0..00089f7c
  DW_CFA_advance_loc: 4 to 00089ca4
  DW_CFA_def_cfa_offset: 32
  DW_CFA_advance_loc: 4 to 00089ca8
  DW_CFA_offset: r19 at cfa-8
  DW_CFA_offset: r20 at cfa-16
  DW_CFA_offset: r21 at cfa-32
  DW_CFA_advance_loc2: 720 to 00089f78
  DW_CFA_def_cfa_offset: 0
  DW_CFA_restore: r19
  DW_CFA_restore: r20
  DW_CFA_restore: r21
  DW_CFA_nop
  DW_CFA_nop
  DW_CFA_nop
  DW_CFA_nop
  DW_CFA_nop

00003930 0000001c 00003934 FDE cie=00000000 pc=00089f7c..0008a394
  DW_CFA_advance_loc: 4 to 00089f80
  DW_CFA_def_cfa_offset: 16
  DW_CFA_offset: r19 at cfa-16
  DW_CFA_advance_loc2: 1040 to 0008a390
  DW_CFA_def_cfa_offset: 0
  DW_CFA_restore: r19
  DW_CFA_nop
  DW_CFA_nop
  DW_CFA_nop
  DW_CFA_nop

00003950 00000044 00003954 FDE cie=00000000 pc=0008a394..0008a934
  DW_CFA_advance_loc: 20 to 0008a3a8
  DW_CFA_def_cfa_offset: 224
  DW_CFA_advance_loc: 24 to 0008a3c0
  DW_CFA_def_cfa: r29 ofs 80
  DW_CFA_offset: r15 at cfa-8
  DW_CFA_offset: r19 at cfa-16
  DW_CFA_offset: r20 at cfa-24
  DW_CFA_offset: r21 at cfa-32
  DW_CFA_offset: r22 at cfa-40
  DW_CFA_offset: r23 at cfa-48
  DW_CFA_offset: r24 at cfa-64
  DW_CFA_offset: r30 at cfa-72
  DW_CFA_offset: r29 at cfa-80
  DW_CFA_remember_state
  DW_CFA_advance_loc2: 256 to 0008a4c0
  DW_CFA_def_cfa: r31 ofs 224
  DW_CFA_advance_loc: 24 to 0008a4d8
  DW_CFA_def_cfa_offset: 0
  DW_CFA_restore: r15
  DW_CFA_restore: r19
  DW_CFA_restore: r20
  DW_CFA_restore: r21
  DW_CFA_restore: r22
  DW_CFA_restore: r23
  DW_CFA_restore: r24
  DW_CFA_restore: r30
  DW_CFA_restore: r29
  DW_CFA_advance_loc: 32 to 0008a4f8
  DW_CFA_restore_state
  DW_CFA_nop
  DW_CFA_nop
  DW_CFA_nop
  DW_CFA_nop
  DW_CFA_nop
  DW_CFA_nop
  DW_CFA_nop

00003998 0000004c 0000399c FDE cie=00000000 pc=0008a934..0008b430
  DW_CFA_advance_loc: 20 to 0008a948
  DW_CFA_def_cfa_offset: 272
  DW_CFA_advance_loc: 32 to 0008a968
  DW_CFA_def_cfa: r29 ofs 112
  DW_CFA_offset: r15 at cfa-8
  DW_CFA_offset: r19 at cfa-16
  DW_CFA_offset: r20 at cfa-24
  DW_CFA_offset: r21 at cfa-32
  DW_CFA_offset: r22 at cfa-40
  DW_CFA_offset: r23 at cfa-48
  DW_CFA_offset: r24 at cfa-56
  DW_CFA_offset: r25 at cfa-64
  DW_CFA_offset: r26 at cfa-72
  DW_CFA_offset: r27 at cfa-80
  DW_CFA_offset: r28 at cfa-96
  DW_CFA_offset: r30 at cfa-104
  DW_CFA_offset: r29 at cfa-112
  DW_CFA_remember_state
  DW_CFA_advance_loc1: 68 to 0008a9ac
  DW_CFA_def_cfa: r31 ofs 272
  DW_CFA_advance_loc: 32 to 0008a9cc
  DW_CFA_def_cfa_offset: 0
  DW_CFA_restore: r15
  DW_CFA_restore: r19
  DW_CFA_restore: r20
  DW_CFA_restore: r21
  DW_CFA_restore: r22
  DW_CFA_restore: r23
  DW_CFA_restore: r24
  DW_CFA_restore: r25
  DW_CFA_restore: r26
  DW_CFA_restore: r27
  DW_CFA_restore: r28
  DW_CFA_restore: r30
  DW_CFA_restore: r29
  DW_CFA_advance_loc: 32 to 0008a9ec
  DW_CFA_restore_state
  DW_CFA_nop
  DW_CFA_nop
  DW_CFA_nop
  DW_CFA_nop

000039e8 00000034 000039ec FDE cie=00000000 pc=0008b430..0008bf44
  DW_CFA_advance_loc: 4 to 0008b434
  DW_CFA_def_cfa_offset: 80
  DW_CFA_advance_loc: 16 to 0008b444
  DW_CFA_offset: r19 at cfa-8
  DW_CFA_offset: r20 at cfa-16
  DW_CFA_offset: r21 at cfa-24
  DW_CFA_offset: r22 at cfa-32
  DW_CFA_offset: r23 at cfa-40
  DW_CFA_offset: r24 at cfa-48
  DW_CFA_offset: r25 at cfa-56
  DW_CFA_offset: r26 at cfa-64
  DW_CFA_offset: r27 at cfa-80
  DW_CFA_advance_loc2: 2812 to 0008bf40
  DW_CFA_def_cfa_offset: 0
  DW_CFA_restore: r19
  DW_CFA_restore: r20
  DW_CFA_restore: r21
  DW_CFA_restore: r22
  DW_CFA_restore: r23
  DW_CFA_restore: r24
  DW_CFA_restore: r25
  DW_CFA_restore: r26
  DW_CFA_restore: r27
  DW_CFA_nop
  DW_CFA_nop
  DW_CFA_nop

00003a20 0000002c 00003a24 FDE cie=00000000 pc=0008bf44..0008c0e0
  DW_CFA_advance_loc: 4 to 0008bf48
  DW_CFA_def_cfa_offset: 48
  DW_CFA_advance_loc: 12 to 0008bf54
  DW_CFA_def_cfa: r29 ofs 48
  DW_CFA_offset: r19 at cfa-8
  DW_CFA_offset: r20 at cfa-16
  DW_CFA_offset: r21 at cfa-32
  DW_CFA_offset: r30 at cfa-40
  DW_CFA_offset: r29 at cfa-48
  DW_CFA_advance_loc2: 380 to 0008c0d0
  DW_CFA_def_cfa: r31 ofs 48
  DW_CFA_advance_loc: 12 to 0008c0dc
  DW_CFA_def_cfa_offset: 0
  DW_CFA_restore: r19
  DW_CFA_restore: r20
  DW_CFA_restore: r21
  DW_CFA_restore: r30
  DW_CFA_restore: r29

00003a50 0000004c 00003a54 FDE cie=00000000 pc=0008c0e0..0008f6f4
  DW_CFA_advance_loc: 20 to 0008c0f4
  DW_CFA_def_cfa_offset: 112
  DW_CFA_advance_loc: 28 to 0008c110
  DW_CFA_def_cfa: r29 ofs 112
  DW_CFA_offset: r15 at cfa-8
  DW_CFA_offset: r19 at cfa-16
  DW_CFA_offset: r20 at cfa-24
  DW_CFA_offset: r21 at cfa-32
  DW_CFA_offset: r22 at cfa-40
  DW_CFA_offset: r23 at cfa-48
  DW_CFA_offset: r24 at cfa-56
  DW_CFA_offset: r25 at cfa-64
  DW_CFA_offset: r26 at cfa-72
  DW_CFA_offset: r27 at cfa-80
  DW_CFA_offset: r28 at cfa-96
  DW_CFA_offset: r30 at cfa-104
  DW_CFA_offset: r29 at cfa-112
  DW_CFA_remember_state
  DW_CFA_advance_loc1: 80 to 0008c160
  DW_CFA_def_cfa: r31 ofs 112
  DW_CFA_advance_loc: 28 to 0008c17c
  DW_CFA_def_cfa_offset: 0
  DW_CFA_restore: r15
  DW_CFA_restore: r19
  DW_CFA_restore: r20
  DW_CFA_restore: r21
  DW_CFA_restore: r22
  DW_CFA_restore: r23
  DW_CFA_restore: r24
  DW_CFA_restore: r25
  DW_CFA_restore: r26
  DW_CFA_restore: r27
  DW_CFA_restore: r28
  DW_CFA_restore: r30
  DW_CFA_restore: r29
  DW_CFA_advance_loc: 32 to 0008c19c
  DW_CFA_restore_state
  DW_CFA_nop
  DW_CFA_nop
  DW_CFA_nop
  DW_CFA_nop
  DW_CFA_nop
  DW_CFA_nop

00003aa0 0000003c 00003aa4 FDE cie=00000000 pc=0008f6f4..0008f9d4
  DW_CFA_advance_loc: 20 to 0008f708
  DW_CFA_def_cfa_offset: 336
  DW_CFA_advance_loc: 20 to 0008f71c
  DW_CFA_offset: r15 at cfa-8
  DW_CFA_offset: r19 at cfa-16
  DW_CFA_offset: r20 at cfa-24
  DW_CFA_offset: r21 at cfa-32
  DW_CFA_offset: r22 at cfa-40
  DW_CFA_offset: r23 at cfa-48
  DW_CFA_offset: r24 at cfa-56
  DW_CFA_offset: r25 at cfa-64
  DW_CFA_offset: r26 at cfa-72
  DW_CFA_offset: r29 at cfa-80
  DW_CFA_advance_loc2: 664 to 0008f9b4
  DW_CFA_def_cfa_offset: 0
  DW_CFA_restore: r15
  DW_CFA_restore: r19
  DW_CFA_restore: r20
  DW_CFA_restore: r21
  DW_CFA_restore: r22
  DW_CFA_restore: r23
  DW_CFA_restore: r24
  DW_CFA_restore: r25
  DW_CFA_restore: r26
  DW_CFA_restore: r29
  DW_CFA_nop
  DW_CFA_nop
  DW_CFA_nop
  DW_CFA_nop
  DW_CFA_nop
  DW_CFA_nop
  DW_CFA_nop

00003ae0 0000002c 00003ae4 FDE cie=00000000 pc=0008f9d4..0008fc00
  DW_CFA_advance_loc: 4 to 0008f9d8
  DW_CFA_def_cfa_offset: 48
  DW_CFA_advance_loc: 12 to 0008f9e4
  DW_CFA_def_cfa: r29 ofs 48
  DW_CFA_offset: r19 at cfa-8
  DW_CFA_offset: r20 at cfa-16
  DW_CFA_offset: r21 at cfa-32
  DW_CFA_offset: r30 at cfa-40
  DW_CFA_offset: r29 at cfa-48
  DW_CFA_advance_loc2: 524 to 0008fbf0
  DW_CFA_def_cfa: r31 ofs 48
  DW_CFA_advance_loc: 12 to 0008fbfc
  DW_CFA_def_cfa_offset: 0
  DW_CFA_restore: r19
  DW_CFA_restore: r20
  DW_CFA_restore: r21
  DW_CFA_restore: r30
  DW_CFA_restore: r29

00003b10 0000003c 00003b14 FDE cie=00000000 pc=0008fc00..0008fd64
  DW_CFA_advance_loc: 4 to 0008fc04
  DW_CFA_def_cfa_offset: 80
  DW_CFA_advance_loc: 20 to 0008fc18
  DW_CFA_def_cfa: r29 ofs 80
  DW_CFA_offset: r19 at cfa-8
  DW_CFA_offset: r20 at cfa-16
  DW_CFA_offset: r21 at cfa-24
  DW_CFA_offset: r22 at cfa-32
  DW_CFA_offset: r23 at cfa-40
  DW_CFA_offset: r24 at cfa-48
  DW_CFA_offset: r25 at cfa-56
  DW_CFA_offset: r26 at cfa-64
  DW_CFA_offset: r30 at cfa-72
  DW_CFA_offset: r29 at cfa-80
  DW_CFA_advance_loc2: 308 to 0008fd4c
  DW_CFA_def_cfa: r31 ofs 80
  DW_CFA_advance_loc: 20 to 0008fd60
  DW_CFA_def_cfa_offset: 0
  DW_CFA_restore: r19
  DW_CFA_restore: r20
  DW_CFA_restore: r21
  DW_CFA_restore: r22
  DW_CFA_restore: r23
  DW_CFA_restore: r24
  DW_CFA_restore: r25
  DW_CFA_restore: r26
  DW_CFA_restore: r30
  DW_CFA_restore: r29
  DW_CFA_nop

00003b50 0000004c 00003b54 FDE cie=00000000 pc=0008fd64..00090c68
  DW_CFA_advance_loc: 20 to 0008fd78
  DW_CFA_def_cfa_offset: 112
  DW_CFA_advance_loc: 28 to 0008fd94
  DW_CFA_def_cfa: r29 ofs 112
  DW_CFA_offset: r15 at cfa-8
  DW_CFA_offset: r19 at cfa-16
  DW_CFA_offset: r20 at cfa-24
  DW_CFA_offset: r21 at cfa-32
  DW_CFA_offset: r22 at cfa-40
  DW_CFA_offset: r23 at cfa-48
  DW_CFA_offset: r24 at cfa-56
  DW_CFA_offset: r25 at cfa-64
  DW_CFA_offset: r26 at cfa-72
  DW_CFA_offset: r27 at cfa-80
  DW_CFA_offset: r28 at cfa-96
  DW_CFA_offset: r30 at cfa-104
  DW_CFA_offset: r29 at cfa-112
  DW_CFA_remember_state
  DW_CFA_advance_loc1: 84 to 0008fde8
  DW_CFA_def_cfa: r31 ofs 112
  DW_CFA_advance_loc: 28 to 0008fe04
  DW_CFA_def_cfa_offset: 0
  DW_CFA_restore: r15
  DW_CFA_restore: r19
  DW_CFA_restore: r20
  DW_CFA_restore: r21
  DW_CFA_restore: r22
  DW_CFA_restore: r23
  DW_CFA_restore: r24
  DW_CFA_restore: r25
  DW_CFA_restore: r26
  DW_CFA_restore: r27
  DW_CFA_restore: r28
  DW_CFA_restore: r30
  DW_CFA_restore: r29
  DW_CFA_advance_loc: 32 to 0008fe24
  DW_CFA_restore_state
  DW_CFA_nop
  DW_CFA_nop
  DW_CFA_nop
  DW_CFA_nop
  DW_CFA_nop
  DW_CFA_nop

00003ba0 0000003c 00003ba4 FDE cie=00000000 pc=00090c68..00090e48
  DW_CFA_advance_loc: 20 to 00090c7c
  DW_CFA_def_cfa_offset: 80
  DW_CFA_advance_loc: 16 to 00090c8c
  DW_CFA_offset: r15 at cfa-8
  DW_CFA_offset: r19 at cfa-16
  DW_CFA_offset: r20 at cfa-24
  DW_CFA_offset: r21 at cfa-32
  DW_CFA_offset: r22 at cfa-40
  DW_CFA_offset: r23 at cfa-48
  DW_CFA_offset: r24 at cfa-56
  DW_CFA_offset: r25 at cfa-64
  DW_CFA_offset: r26 at cfa-72
  DW_CFA_offset: r29 at cfa-80
  DW_CFA_advance_loc: 4 to 00090c90
  DW_CFA_def_cfa_offset: 720
  DW_CFA_advance_loc2: 388 to 00090e14
  DW_CFA_def_cfa_offset: 80
  DW_CFA_advance_loc: 20 to 00090e28
  DW_CFA_def_cfa_offset: 0
  DW_CFA_restore: r15
  DW_CFA_restore: r19
  DW_CFA_restore: r20
  DW_CFA_restore: r21
  DW_CFA_restore: r22
  DW_CFA_restore: r23
  DW_CFA_restore: r24
  DW_CFA_restore: r25
  DW_CFA_restore: r26
  DW_CFA_restore: r29
  DW_CFA_nop

00003be0 0000002c 00003be4 FDE cie=00000000 pc=00090e48..000911bc
  DW_CFA_advance_loc: 4 to 00090e4c
  DW_CFA_def_cfa_offset: 48
  DW_CFA_advance_loc: 12 to 00090e58
  DW_CFA_def_cfa: r29 ofs 48
  DW_CFA_offset: r19 at cfa-8
  DW_CFA_offset: r20 at cfa-16
  DW_CFA_offset: r21 at cfa-32
  DW_CFA_offset: r30 at cfa-40
  DW_CFA_offset: r29 at cfa-48
  DW_CFA_advance_loc2: 852 to 000911ac
  DW_CFA_def_cfa: r31 ofs 48
  DW_CFA_advance_loc: 12 to 000911b8
  DW_CFA_def_cfa_offset: 0
  DW_CFA_restore: r19
  DW_CFA_restore: r20
  DW_CFA_restore: r21
  DW_CFA_restore: r30
  DW_CFA_restore: r29

00003c10 0000003c 00003c14 FDE cie=00000000 pc=000911bc..00091308
  DW_CFA_advance_loc: 4 to 000911c0
  DW_CFA_def_cfa_offset: 80
  DW_CFA_advance_loc: 20 to 000911d4
  DW_CFA_def_cfa: r29 ofs 80
  DW_CFA_offset: r19 at cfa-8
  DW_CFA_offset: r20 at cfa-16
  DW_CFA_offset: r21 at cfa-24
  DW_CFA_offset: r22 at cfa-32
  DW_CFA_offset: r23 at cfa-40
  DW_CFA_offset: r24 at cfa-48
  DW_CFA_offset: r25 at cfa-56
  DW_CFA_offset: r26 at cfa-64
  DW_CFA_offset: r30 at cfa-72
  DW_CFA_offset: r29 at cfa-80
  DW_CFA_advance_loc2: 284 to 000912f0
  DW_CFA_def_cfa: r31 ofs 80
  DW_CFA_advance_loc: 20 to 00091304
  DW_CFA_def_cfa_offset: 0
  DW_CFA_restore: r19
  DW_CFA_restore: r20
  DW_CFA_restore: r21
  DW_CFA_restore: r22
  DW_CFA_restore: r23
  DW_CFA_restore: r24
  DW_CFA_restore: r25
  DW_CFA_restore: r26
  DW_CFA_restore: r30
  DW_CFA_restore: r29
  DW_CFA_nop

00003c50 00000014 00003c54 FDE cie=00000000 pc=00091308..00091314
  DW_CFA_nop
  DW_CFA_nop
  DW_CFA_nop
  DW_CFA_nop
  DW_CFA_nop
  DW_CFA_nop
  DW_CFA_nop

00003c68 00000014 00003c6c FDE cie=00000000 pc=00091314..00091330
  DW_CFA_nop
  DW_CFA_nop
  DW_CFA_nop
  DW_CFA_nop
  DW_CFA_nop
  DW_CFA_nop
  DW_CFA_nop

00003c80 00000014 00003c84 FDE cie=00000000 pc=00091330..0009133c
  DW_CFA_nop
  DW_CFA_nop
  DW_CFA_nop
  DW_CFA_nop
  DW_CFA_nop
  DW_CFA_nop
  DW_CFA_nop

00003c98 00000014 00003c9c FDE cie=00000000 pc=0009133c..00091348
  DW_CFA_nop
  DW_CFA_nop
  DW_CFA_nop
  DW_CFA_nop
  DW_CFA_nop
  DW_CFA_nop
  DW_CFA_nop

00003cb0 00000014 00003cb4 FDE cie=00000000 pc=00091348..00091364
  DW_CFA_nop
  DW_CFA_nop
  DW_CFA_nop
  DW_CFA_nop
  DW_CFA_nop
  DW_CFA_nop
  DW_CFA_nop

00003cc8 00000014 00003ccc FDE cie=00000000 pc=00091364..00091380
  DW_CFA_nop
  DW_CFA_nop
  DW_CFA_nop
  DW_CFA_nop
  DW_CFA_nop
  DW_CFA_nop
  DW_CFA_nop

00003ce0 00000014 00003ce4 FDE cie=00000000 pc=00091380..00091394
  DW_CFA_nop
  DW_CFA_nop
  DW_CFA_nop
  DW_CFA_nop
  DW_CFA_nop
  DW_CFA_nop
  DW_CFA_nop

00003cf8 00000014 00003cfc FDE cie=00000000 pc=00091394..000913a8
  DW_CFA_nop
  DW_CFA_nop
  DW_CFA_nop
  DW_CFA_nop
  DW_CFA_nop
  DW_CFA_nop
  DW_CFA_nop

00003d10 00000014 00003d14 FDE cie=00000000 pc=000913a8..000913b4
  DW_CFA_nop
  DW_CFA_nop
  DW_CFA_nop
  DW_CFA_nop
  DW_CFA_nop
  DW_CFA_nop
  DW_CFA_nop

00003d28 00000014 00003d2c FDE cie=00000000 pc=000913b4..000913c4
  DW_CFA_nop
  DW_CFA_nop
  DW_CFA_nop
  DW_CFA_nop
  DW_CFA_nop
  DW_CFA_nop
  DW_CFA_nop

00003d40 00000014 00003d44 FDE cie=00000000 pc=000913c4..000913d4
  DW_CFA_nop
  DW_CFA_nop
  DW_CFA_nop
  DW_CFA_nop
  DW_CFA_nop
  DW_CFA_nop
  DW_CFA_nop

00003d58 00000014 00003d5c FDE cie=00000000 pc=000913d4..000913e8
  DW_CFA_nop
  DW_CFA_nop
  DW_CFA_nop
  DW_CFA_nop
  DW_CFA_nop
  DW_CFA_nop
  DW_CFA_nop

00003d70 00000014 00003d74 FDE cie=00000000 pc=000913e8..000913fc
  DW_CFA_nop
  DW_CFA_nop
  DW_CFA_nop
  DW_CFA_nop
  DW_CFA_nop
  DW_CFA_nop
  DW_CFA_nop

00003d88 00000014 00003d8c FDE cie=00000000 pc=000913fc..0009140c
  DW_CFA_nop
  DW_CFA_nop
  DW_CFA_nop
  DW_CFA_nop
  DW_CFA_nop
  DW_CFA_nop
  DW_CFA_nop

00003da0 00000014 00003da4 FDE cie=00000000 pc=0009140c..0009141c
  DW_CFA_nop
  DW_CFA_nop
  DW_CFA_nop
  DW_CFA_nop
  DW_CFA_nop
  DW_CFA_nop
  DW_CFA_nop

00003db8 00000014 00003dbc FDE cie=00000000 pc=0009141c..0009142c
  DW_CFA_nop
  DW_CFA_nop
  DW_CFA_nop
  DW_CFA_nop
  DW_CFA_nop
  DW_CFA_nop
  DW_CFA_nop

00003dd0 00000014 00003dd4 FDE cie=00000000 pc=0009142c..0009143c
  DW_CFA_nop
  DW_CFA_nop
  DW_CFA_nop
  DW_CFA_nop
  DW_CFA_nop
  DW_CFA_nop
  DW_CFA_nop

00003de8 00000014 00003dec FDE cie=00000000 pc=0009143c..0009144c
  DW_CFA_nop
  DW_CFA_nop
  DW_CFA_nop
  DW_CFA_nop
  DW_CFA_nop
  DW_CFA_nop
  DW_CFA_nop

00003e00 00000014 00003e04 FDE cie=00000000 pc=0009144c..0009145c
  DW_CFA_nop
  DW_CFA_nop
  DW_CFA_nop
  DW_CFA_nop
  DW_CFA_nop
  DW_CFA_nop
  DW_CFA_nop

00003e18 00000014 00003e1c FDE cie=00000000 pc=0009145c..0009146c
  DW_CFA_nop
  DW_CFA_nop
  DW_CFA_nop
  DW_CFA_nop
  DW_CFA_nop
  DW_CFA_nop
  DW_CFA_nop

00003e30 00000014 00003e34 FDE cie=00000000 pc=0009146c..0009147c
  DW_CFA_nop
  DW_CFA_nop
  DW_CFA_nop
  DW_CFA_nop
  DW_CFA_nop
  DW_CFA_nop
  DW_CFA_nop

00003e48 00000014 00003e4c FDE cie=00000000 pc=0009147c..000914b0
  DW_CFA_nop
  DW_CFA_nop
  DW_CFA_nop
  DW_CFA_nop
  DW_CFA_nop
  DW_CFA_nop
  DW_CFA_nop

00003e60 00000014 00003e64 FDE cie=00000000 pc=000914b0..000914e4
  DW_CFA_nop
  DW_CFA_nop
  DW_CFA_nop
  DW_CFA_nop
  DW_CFA_nop
  DW_CFA_nop
  DW_CFA_nop

00003e78 00000014 00003e7c FDE cie=00000000 pc=000914e4..000914f8
  DW_CFA_nop
  DW_CFA_nop
  DW_CFA_nop
  DW_CFA_nop
  DW_CFA_nop
  DW_CFA_nop
  DW_CFA_nop

00003e90 00000014 00003e94 FDE cie=00000000 pc=000914f8..0009150c
  DW_CFA_nop
  DW_CFA_nop
  DW_CFA_nop
  DW_CFA_nop
  DW_CFA_nop
  DW_CFA_nop
  DW_CFA_nop

00003ea8 00000014 00003eac FDE cie=00000000 pc=0009150c..0009151c
  DW_CFA_nop
  DW_CFA_nop
  DW_CFA_nop
  DW_CFA_nop
  DW_CFA_nop
  DW_CFA_nop
  DW_CFA_nop

00003ec0 00000014 00003ec4 FDE cie=00000000 pc=0009151c..0009152c
  DW_CFA_nop
  DW_CFA_nop
  DW_CFA_nop
  DW_CFA_nop
  DW_CFA_nop
  DW_CFA_nop
  DW_CFA_nop

00003ed8 00000014 00003edc FDE cie=00000000 pc=0009152c..0009158c
  DW_CFA_nop
  DW_CFA_nop
  DW_CFA_nop
  DW_CFA_nop
  DW_CFA_nop
  DW_CFA_nop
  DW_CFA_nop

00003ef0 00000014 00003ef4 FDE cie=00000000 pc=0009158c..000915ec
  DW_CFA_nop
  DW_CFA_nop
  DW_CFA_nop
  DW_CFA_nop
  DW_CFA_nop
  DW_CFA_nop
  DW_CFA_nop

00003f08 00000014 00003f0c FDE cie=00000000 pc=000915ec..00091638
  DW_CFA_nop
  DW_CFA_nop
  DW_CFA_nop
  DW_CFA_nop
  DW_CFA_nop
  DW_CFA_nop
  DW_CFA_nop

00003f20 00000014 00003f24 FDE cie=00000000 pc=00091638..00091684
  DW_CFA_nop
  DW_CFA_nop
  DW_CFA_nop
  DW_CFA_nop
  DW_CFA_nop
  DW_CFA_nop
  DW_CFA_nop

00003f38 00000014 00003f3c FDE cie=00000000 pc=00091684..00091694
  DW_CFA_nop
  DW_CFA_nop
  DW_CFA_nop
  DW_CFA_nop
  DW_CFA_nop
  DW_CFA_nop
  DW_CFA_nop

00003f50 00000014 00003f54 FDE cie=00000000 pc=00091694..000916a4
  DW_CFA_nop
  DW_CFA_nop
  DW_CFA_nop
  DW_CFA_nop
  DW_CFA_nop
  DW_CFA_nop
  DW_CFA_nop

00003f68 00000014 00003f6c FDE cie=00000000 pc=000916a4..000916d4
  DW_CFA_nop
  DW_CFA_nop
  DW_CFA_nop
  DW_CFA_nop
  DW_CFA_nop
  DW_CFA_nop
  DW_CFA_nop

00003f80 00000014 00003f84 FDE cie=00000000 pc=000916d4..00091704
  DW_CFA_nop
  DW_CFA_nop
  DW_CFA_nop
  DW_CFA_nop
  DW_CFA_nop
  DW_CFA_nop
  DW_CFA_nop

00003f98 0000002c 00003f9c FDE cie=00000000 pc=00091704..000918f8
  DW_CFA_advance_loc: 4 to 00091708
  DW_CFA_def_cfa_offset: 32
  DW_CFA_advance_loc: 8 to 00091710
  DW_CFA_def_cfa: r29 ofs 32
  DW_CFA_offset: r19 at cfa-16
  DW_CFA_offset: r30 at cfa-24
  DW_CFA_offset: r29 at cfa-32
  DW_CFA_advance_loc2: 476 to 000918ec
  DW_CFA_def_cfa: r31 ofs 32
  DW_CFA_advance_loc: 8 to 000918f4
  DW_CFA_def_cfa_offset: 0
  DW_CFA_restore: r19
  DW_CFA_restore: r30
  DW_CFA_restore: r29
  DW_CFA_nop
  DW_CFA_nop
  DW_CFA_nop
  DW_CFA_nop
  DW_CFA_nop
  DW_CFA_nop

00003fc8 0000002c 00003fcc FDE cie=00000000 pc=000918f8..00091af8
  DW_CFA_advance_loc: 4 to 000918fc
  DW_CFA_def_cfa_offset: 32
  DW_CFA_advance_loc: 8 to 00091904
  DW_CFA_def_cfa: r29 ofs 32
  DW_CFA_offset: r19 at cfa-16
  DW_CFA_offset: r30 at cfa-24
  DW_CFA_offset: r29 at cfa-32
  DW_CFA_advance_loc2: 488 to 00091aec
  DW_CFA_def_cfa: r31 ofs 32
  DW_CFA_advance_loc: 8 to 00091af4
  DW_CFA_def_cfa_offset: 0
  DW_CFA_restore: r19
  DW_CFA_restore: r30
  DW_CFA_restore: r29
  DW_CFA_nop
  DW_CFA_nop
  DW_CFA_nop
  DW_CFA_nop
  DW_CFA_nop
  DW_CFA_nop

00003ff8 00000014 00003ffc FDE cie=00000000 pc=00091af8..00091afc
  DW_CFA_nop
  DW_CFA_nop
  DW_CFA_nop
  DW_CFA_nop
  DW_CFA_nop
  DW_CFA_nop
  DW_CFA_nop

00004010 00000014 00004014 FDE cie=00000000 pc=00091afc..00091b00
  DW_CFA_nop
  DW_CFA_nop
  DW_CFA_nop
  DW_CFA_nop
  DW_CFA_nop
  DW_CFA_nop
  DW_CFA_nop

00004028 00000014 0000402c FDE cie=00000000 pc=00091b00..00091b10
  DW_CFA_nop
  DW_CFA_nop
  DW_CFA_nop
  DW_CFA_nop
  DW_CFA_nop
  DW_CFA_nop
  DW_CFA_nop

00004040 00000014 00004044 FDE cie=00000000 pc=00091b10..00091b20
  DW_CFA_nop
  DW_CFA_nop
  DW_CFA_nop
  DW_CFA_nop
  DW_CFA_nop
  DW_CFA_nop
  DW_CFA_nop

00004058 00000014 0000405c FDE cie=00000000 pc=00091b20..00091bc0
  DW_CFA_nop
  DW_CFA_nop
  DW_CFA_nop
  DW_CFA_nop
  DW_CFA_nop
  DW_CFA_nop
  DW_CFA_nop

00004070 00000014 00004074 FDE cie=00000000 pc=00091bc0..00091c60
  DW_CFA_nop
  DW_CFA_nop
  DW_CFA_nop
  DW_CFA_nop
  DW_CFA_nop
  DW_CFA_nop
  DW_CFA_nop

00004088 00000024 0000408c FDE cie=00000000 pc=00091c60..00091c88
  DW_CFA_advance_loc: 4 to 00091c64
  DW_CFA_def_cfa_offset: 32
  DW_CFA_advance_loc: 8 to 00091c6c
  DW_CFA_def_cfa: r29 ofs 32
  DW_CFA_offset: r19 at cfa-16
  DW_CFA_offset: r30 at cfa-24
  DW_CFA_offset: r29 at cfa-32
  DW_CFA_advance_loc: 16 to 00091c7c
  DW_CFA_def_cfa: r31 ofs 32
  DW_CFA_advance_loc: 8 to 00091c84
  DW_CFA_def_cfa_offset: 0
  DW_CFA_restore: r19
  DW_CFA_restore: r30
  DW_CFA_restore: r29

000040b0 00000024 000040b4 FDE cie=00000000 pc=00091c88..00091cb0
  DW_CFA_advance_loc: 4 to 00091c8c
  DW_CFA_def_cfa_offset: 32
  DW_CFA_advance_loc: 8 to 00091c94
  DW_CFA_def_cfa: r29 ofs 32
  DW_CFA_offset: r19 at cfa-16
  DW_CFA_offset: r30 at cfa-24
  DW_CFA_offset: r29 at cfa-32
  DW_CFA_advance_loc: 16 to 00091ca4
  DW_CFA_def_cfa: r31 ofs 32
  DW_CFA_advance_loc: 8 to 00091cac
  DW_CFA_def_cfa_offset: 0
  DW_CFA_restore: r19
  DW_CFA_restore: r30
  DW_CFA_restore: r29

000040d8 00000014 000040dc FDE cie=00000000 pc=00091cb0..00091d28
  DW_CFA_nop
  DW_CFA_nop
  DW_CFA_nop
  DW_CFA_nop
  DW_CFA_nop
  DW_CFA_nop
  DW_CFA_nop

000040f0 00000014 000040f4 FDE cie=00000000 pc=00091d28..00091da0
  DW_CFA_nop
  DW_CFA_nop
  DW_CFA_nop
  DW_CFA_nop
  DW_CFA_nop
  DW_CFA_nop
  DW_CFA_nop

00004108 00000014 0000410c FDE cie=00000000 pc=00091da0..00091de0
  DW_CFA_nop
  DW_CFA_nop
  DW_CFA_nop
  DW_CFA_nop
  DW_CFA_nop
  DW_CFA_nop
  DW_CFA_nop

00004120 00000014 00004124 FDE cie=00000000 pc=00091de0..00091e20
  DW_CFA_nop
  DW_CFA_nop
  DW_CFA_nop
  DW_CFA_nop
  DW_CFA_nop
  DW_CFA_nop
  DW_CFA_nop

00004138 00000014 0000413c FDE cie=00000000 pc=00091e20..00091e48
  DW_CFA_nop
  DW_CFA_nop
  DW_CFA_nop
  DW_CFA_nop
  DW_CFA_nop
  DW_CFA_nop
  DW_CFA_nop

00004150 00000014 00004154 FDE cie=00000000 pc=00091e48..00091e70
  DW_CFA_nop
  DW_CFA_nop
  DW_CFA_nop
  DW_CFA_nop
  DW_CFA_nop
  DW_CFA_nop
  DW_CFA_nop

00004168 00000024 0000416c FDE cie=00000000 pc=00091e70..00091e98
  DW_CFA_advance_loc: 4 to 00091e74
  DW_CFA_def_cfa_offset: 32
  DW_CFA_advance_loc: 8 to 00091e7c
  DW_CFA_def_cfa: r29 ofs 32
  DW_CFA_offset: r19 at cfa-16
  DW_CFA_offset: r30 at cfa-24
  DW_CFA_offset: r29 at cfa-32
  DW_CFA_advance_loc: 16 to 00091e8c
  DW_CFA_def_cfa: r31 ofs 32
  DW_CFA_advance_loc: 8 to 00091e94
  DW_CFA_def_cfa_offset: 0
  DW_CFA_restore: r19
  DW_CFA_restore: r30
  DW_CFA_restore: r29

00004190 00000024 00004194 FDE cie=00000000 pc=00091e98..00091ec0
  DW_CFA_advance_loc: 4 to 00091e9c
  DW_CFA_def_cfa_offset: 32
  DW_CFA_advance_loc: 8 to 00091ea4
  DW_CFA_def_cfa: r29 ofs 32
  DW_CFA_offset: r19 at cfa-16
  DW_CFA_offset: r30 at cfa-24
  DW_CFA_offset: r29 at cfa-32
  DW_CFA_advance_loc: 16 to 00091eb4
  DW_CFA_def_cfa: r31 ofs 32
  DW_CFA_advance_loc: 8 to 00091ebc
  DW_CFA_def_cfa_offset: 0
  DW_CFA_restore: r19
  DW_CFA_restore: r30
  DW_CFA_restore: r29

000041b8 00000014 000041bc FDE cie=00000000 pc=00091ec0..00091edc
  DW_CFA_nop
  DW_CFA_nop
  DW_CFA_nop
  DW_CFA_nop
  DW_CFA_nop
  DW_CFA_nop
  DW_CFA_nop

000041d0 00000014 000041d4 FDE cie=00000000 pc=00091edc..00091ef8
  DW_CFA_nop
  DW_CFA_nop
  DW_CFA_nop
  DW_CFA_nop
  DW_CFA_nop
  DW_CFA_nop
  DW_CFA_nop

000041e8 00000014 000041ec FDE cie=00000000 pc=00091ef8..00091f14
  DW_CFA_nop
  DW_CFA_nop
  DW_CFA_nop
  DW_CFA_nop
  DW_CFA_nop
  DW_CFA_nop
  DW_CFA_nop

00004200 00000014 00004204 FDE cie=00000000 pc=00091f14..00091f30
  DW_CFA_nop
  DW_CFA_nop
  DW_CFA_nop
  DW_CFA_nop
  DW_CFA_nop
  DW_CFA_nop
  DW_CFA_nop

00004218 00000014 0000421c FDE cie=00000000 pc=00091f30..00091f38
  DW_CFA_nop
  DW_CFA_nop
  DW_CFA_nop
  DW_CFA_nop
  DW_CFA_nop
  DW_CFA_nop
  DW_CFA_nop

00004230 00000014 00004234 FDE cie=00000000 pc=00091f38..00091f4c
  DW_CFA_nop
  DW_CFA_nop
  DW_CFA_nop
  DW_CFA_nop
  DW_CFA_nop
  DW_CFA_nop
  DW_CFA_nop

00004248 00000014 0000424c FDE cie=00000000 pc=00091f4c..00091f60
  DW_CFA_nop
  DW_CFA_nop
  DW_CFA_nop
  DW_CFA_nop
  DW_CFA_nop
  DW_CFA_nop
  DW_CFA_nop

00004260 00000014 00004264 FDE cie=00000000 pc=00091f60..00091f78
  DW_CFA_nop
  DW_CFA_nop
  DW_CFA_nop
  DW_CFA_nop
  DW_CFA_nop
  DW_CFA_nop
  DW_CFA_nop

00004278 00000014 0000427c FDE cie=00000000 pc=00091f78..00091f90
  DW_CFA_nop
  DW_CFA_nop
  DW_CFA_nop
  DW_CFA_nop
  DW_CFA_nop
  DW_CFA_nop
  DW_CFA_nop

00004290 00000014 00004294 FDE cie=00000000 pc=00091f90..000920b4
  DW_CFA_nop
  DW_CFA_nop
  DW_CFA_nop
  DW_CFA_nop
  DW_CFA_nop
  DW_CFA_nop
  DW_CFA_nop

000042a8 00000014 000042ac FDE cie=00000000 pc=000920b4..000921e0
  DW_CFA_nop
  DW_CFA_nop
  DW_CFA_nop
  DW_CFA_nop
  DW_CFA_nop
  DW_CFA_nop
  DW_CFA_nop

000042c0 00000014 000042c4 FDE cie=00000000 pc=000921e0..000921e4
  DW_CFA_nop
  DW_CFA_nop
  DW_CFA_nop
  DW_CFA_nop
  DW_CFA_nop
  DW_CFA_nop
  DW_CFA_nop

000042d8 00000014 000042dc FDE cie=00000000 pc=000921e4..000921e8
  DW_CFA_nop
  DW_CFA_nop
  DW_CFA_nop
  DW_CFA_nop
  DW_CFA_nop
  DW_CFA_nop
  DW_CFA_nop

000042f0 00000014 000042f4 FDE cie=00000000 pc=000921e8..00092304
  DW_CFA_nop
  DW_CFA_nop
  DW_CFA_nop
  DW_CFA_nop
  DW_CFA_nop
  DW_CFA_nop
  DW_CFA_nop

00004308 00000024 0000430c FDE cie=00000000 pc=00092304..00092354
  DW_CFA_advance_loc: 4 to 00092308
  DW_CFA_def_cfa_offset: 32
  DW_CFA_advance_loc: 8 to 00092310
  DW_CFA_def_cfa: r29 ofs 32
  DW_CFA_offset: r19 at cfa-16
  DW_CFA_offset: r30 at cfa-24
  DW_CFA_offset: r29 at cfa-32
  DW_CFA_advance_loc: 56 to 00092348
  DW_CFA_def_cfa: r31 ofs 32
  DW_CFA_advance_loc: 8 to 00092350
  DW_CFA_def_cfa_offset: 0
  DW_CFA_restore: r19
  DW_CFA_restore: r30
  DW_CFA_restore: r29

00004330 00000014 00004334 FDE cie=00000000 pc=00092354..00092370
  DW_CFA_nop
  DW_CFA_nop
  DW_CFA_nop
  DW_CFA_nop
  DW_CFA_nop
  DW_CFA_nop
  DW_CFA_nop

00004348 00000024 0000434c FDE cie=00000000 pc=00092370..000923c0
  DW_CFA_advance_loc: 4 to 00092374
  DW_CFA_def_cfa_offset: 32
  DW_CFA_advance_loc: 8 to 0009237c
  DW_CFA_def_cfa: r29 ofs 32
  DW_CFA_offset: r19 at cfa-16
  DW_CFA_offset: r30 at cfa-24
  DW_CFA_offset: r29 at cfa-32
  DW_CFA_advance_loc: 56 to 000923b4
  DW_CFA_def_cfa: r31 ofs 32
  DW_CFA_advance_loc: 8 to 000923bc
  DW_CFA_def_cfa_offset: 0
  DW_CFA_restore: r19
  DW_CFA_restore: r30
  DW_CFA_restore: r29

00004370 00000014 00004374 FDE cie=00000000 pc=000923c0..000923dc
  DW_CFA_nop
  DW_CFA_nop
  DW_CFA_nop
  DW_CFA_nop
  DW_CFA_nop
  DW_CFA_nop
  DW_CFA_nop

00004388 00000014 0000438c FDE cie=00000000 pc=000923dc..000924cc
  DW_CFA_nop
  DW_CFA_nop
  DW_CFA_nop
  DW_CFA_nop
  DW_CFA_nop
  DW_CFA_nop
  DW_CFA_nop

000043a0 00000014 000043a4 FDE cie=00000000 pc=000924cc..000924e0
  DW_CFA_nop
  DW_CFA_nop
  DW_CFA_nop
  DW_CFA_nop
  DW_CFA_nop
  DW_CFA_nop
  DW_CFA_nop

000043b8 00000034 000043bc FDE cie=00000000 pc=000924e0..000925ec
  DW_CFA_advance_loc: 20 to 000924f4
  DW_CFA_def_cfa_offset: 320
  DW_CFA_advance_loc: 20 to 00092508
  DW_CFA_def_cfa: r29 ofs 64
  DW_CFA_offset: r15 at cfa-8
  DW_CFA_offset: r19 at cfa-16
  DW_CFA_offset: r20 at cfa-24
  DW_CFA_offset: r21 at cfa-32
  DW_CFA_offset: r28 at cfa-48
  DW_CFA_offset: r30 at cfa-56
  DW_CFA_offset: r29 at cfa-64
  DW_CFA_advance_loc1: 176 to 000925b8
  DW_CFA_def_cfa: r31 ofs 320
  DW_CFA_advance_loc: 20 to 000925cc
  DW_CFA_def_cfa_offset: 0
  DW_CFA_restore: r15
  DW_CFA_restore: r19
  DW_CFA_restore: r20
  DW_CFA_restore: r21
  DW_CFA_restore: r28
  DW_CFA_restore: r30
  DW_CFA_restore: r29
  DW_CFA_nop

000043f0 00000014 000043f4 FDE cie=00000000 pc=000925ec..000925f4
  DW_CFA_nop
  DW_CFA_nop
  DW_CFA_nop
  DW_CFA_nop
  DW_CFA_nop
  DW_CFA_nop
  DW_CFA_nop

00004408 00000034 0000440c FDE cie=00000000 pc=000925f4..000926cc
  DW_CFA_advance_loc: 20 to 00092608
  DW_CFA_def_cfa_offset: 176
  DW_CFA_advance_loc: 16 to 00092618
  DW_CFA_def_cfa: r29 ofs 48
  DW_CFA_offset: r15 at cfa-8
  DW_CFA_offset: r19 at cfa-16
  DW_CFA_offset: r20 at cfa-32
  DW_CFA_offset: r30 at cfa-40
  DW_CFA_offset: r29 at cfa-48
  DW_CFA_advance_loc1: 132 to 0009269c
  DW_CFA_def_cfa: r31 ofs 176
  DW_CFA_advance_loc: 16 to 000926ac
  DW_CFA_def_cfa_offset: 0
  DW_CFA_restore: r15
  DW_CFA_restore: r19
  DW_CFA_restore: r20
  DW_CFA_restore: r30
  DW_CFA_restore: r29
  DW_CFA_nop
  DW_CFA_nop
  DW_CFA_nop
  DW_CFA_nop
  DW_CFA_nop
  DW_CFA_nop
  DW_CFA_nop

00004440 0000002c 00004444 FDE cie=00000000 pc=000926cc..00092758
  DW_CFA_advance_loc: 4 to 000926d0
  DW_CFA_def_cfa_offset: 32
  DW_CFA_advance_loc: 8 to 000926d8
  DW_CFA_def_cfa: r29 ofs 32
  DW_CFA_offset: r19 at cfa-16
  DW_CFA_offset: r30 at cfa-24
  DW_CFA_offset: r29 at cfa-32
  DW_CFA_advance_loc1: 116 to 0009274c
  DW_CFA_def_cfa: r31 ofs 32
  DW_CFA_advance_loc: 8 to 00092754
  DW_CFA_def_cfa_offset: 0
  DW_CFA_restore: r19
  DW_CFA_restore: r30
  DW_CFA_restore: r29
  DW_CFA_nop
  DW_CFA_nop
  DW_CFA_nop
  DW_CFA_nop
  DW_CFA_nop
  DW_CFA_nop
  DW_CFA_nop

00004470 0000002c 00004474 FDE cie=00000000 pc=00092758..000927ec
  DW_CFA_advance_loc: 4 to 0009275c
  DW_CFA_def_cfa_offset: 32
  DW_CFA_advance_loc: 8 to 00092764
  DW_CFA_def_cfa: r29 ofs 32
  DW_CFA_offset: r19 at cfa-16
  DW_CFA_offset: r30 at cfa-24
  DW_CFA_offset: r29 at cfa-32
  DW_CFA_remember_state
  DW_CFA_advance_loc1: 84 to 000927b8
  DW_CFA_def_cfa: r31 ofs 32
  DW_CFA_advance_loc: 8 to 000927c0
  DW_CFA_def_cfa_offset: 0
  DW_CFA_restore: r19
  DW_CFA_restore: r30
  DW_CFA_restore: r29
  DW_CFA_advance_loc: 4 to 000927c4
  DW_CFA_restore_state
  DW_CFA_nop
  DW_CFA_nop
  DW_CFA_nop
  DW_CFA_nop

000044a0 0000003c 000044a4 FDE cie=00000000 pc=000927ec..00092994
  DW_CFA_advance_loc: 4 to 000927f0
  DW_CFA_def_cfa_offset: 64
  DW_CFA_advance_loc: 16 to 00092800
  DW_CFA_def_cfa: r29 ofs 64
  DW_CFA_offset: r19 at cfa-8
  DW_CFA_offset: r20 at cfa-16
  DW_CFA_offset: r21 at cfa-24
  DW_CFA_offset: r22 at cfa-32
  DW_CFA_offset: r23 at cfa-40
  DW_CFA_offset: r24 at cfa-48
  DW_CFA_offset: r30 at cfa-56
  DW_CFA_offset: r29 at cfa-64
  DW_CFA_advance_loc2: 384 to 00092980
  DW_CFA_def_cfa: r31 ofs 64
  DW_CFA_advance_loc: 16 to 00092990
  DW_CFA_def_cfa_offset: 0
  DW_CFA_restore: r19
  DW_CFA_restore: r20
  DW_CFA_restore: r21
  DW_CFA_restore: r22
  DW_CFA_restore: r23
  DW_CFA_restore: r24
  DW_CFA_restore: r30
  DW_CFA_restore: r29
  DW_CFA_nop
  DW_CFA_nop
  DW_CFA_nop
  DW_CFA_nop
  DW_CFA_nop
  DW_CFA_nop
  DW_CFA_nop

000044e0 00000034 000044e4 FDE cie=00000000 pc=00092994..00092a30
  DW_CFA_advance_loc: 4 to 00092998
  DW_CFA_def_cfa_offset: 32
  DW_CFA_advance_loc: 8 to 000929a0
  DW_CFA_def_cfa: r29 ofs 32
  DW_CFA_offset: r19 at cfa-8
  DW_CFA_offset: r20 at cfa-16
  DW_CFA_offset: r30 at cfa-24
  DW_CFA_offset: r29 at cfa-32
  DW_CFA_remember_state
  DW_CFA_advance_loc1: 128 to 00092a20
  DW_CFA_def_cfa: r31 ofs 32
  DW_CFA_advance_loc: 4 to 00092a24
  DW_CFA_restore_state
  DW_CFA_def_cfa: r31 ofs 32
  DW_CFA_advance_loc: 8 to 00092a2c
  DW_CFA_def_cfa_offset: 0
  DW_CFA_restore: r19
  DW_CFA_restore: r20
  DW_CFA_restore: r30
  DW_CFA_restore: r29
  DW_CFA_nop
  DW_CFA_nop
  DW_CFA_nop
  DW_CFA_nop
  DW_CFA_nop
  DW_CFA_nop

00004518 00000044 0000451c FDE cie=00000000 pc=00092a30..00092d28
  DW_CFA_advance_loc: 4 to 00092a34
  DW_CFA_def_cfa_offset: 112
  DW_CFA_advance_loc: 28 to 00092a50
  DW_CFA_def_cfa: r29 ofs 96
  DW_CFA_offset: r19 at cfa-8
  DW_CFA_offset: r20 at cfa-16
  DW_CFA_offset: r21 at cfa-24
  DW_CFA_offset: r22 at cfa-32
  DW_CFA_offset: r23 at cfa-40
  DW_CFA_offset: r24 at cfa-48
  DW_CFA_offset: r25 at cfa-56
  DW_CFA_offset: r26 at cfa-64
  DW_CFA_offset: r27 at cfa-72
  DW_CFA_offset: r28 at cfa-80
  DW_CFA_offset: r30 at cfa-88
  DW_CFA_offset: r29 at cfa-96
  DW_CFA_remember_state
  DW_CFA_advance_loc2: 680 to 00092cf8
  DW_CFA_def_cfa: r31 ofs 112
  DW_CFA_advance_loc: 28 to 00092d14
  DW_CFA_def_cfa_offset: 0
  DW_CFA_restore: r19
  DW_CFA_restore: r20
  DW_CFA_restore: r21
  DW_CFA_restore: r22
  DW_CFA_restore: r23
  DW_CFA_restore: r24
  DW_CFA_restore: r25
  DW_CFA_restore: r26
  DW_CFA_restore: r27
  DW_CFA_restore: r28
  DW_CFA_restore: r30
  DW_CFA_restore: r29
  DW_CFA_advance_loc: 4 to 00092d18
  DW_CFA_restore_state

00004560 00000034 00004564 FDE cie=00000000 pc=00092d28..00092dd0
  DW_CFA_advance_loc: 4 to 00092d2c
  DW_CFA_def_cfa_offset: 48
  DW_CFA_advance_loc: 12 to 00092d38
  DW_CFA_def_cfa: r29 ofs 48
  DW_CFA_offset: r19 at cfa-8
  DW_CFA_offset: r20 at cfa-16
  DW_CFA_offset: r21 at cfa-32
  DW_CFA_offset: r30 at cfa-40
  DW_CFA_offset: r29 at cfa-48
  DW_CFA_remember_state
  DW_CFA_advance_loc1: 132 to 00092dbc
  DW_CFA_def_cfa: r31 ofs 48
  DW_CFA_advance_loc: 4 to 00092dc0
  DW_CFA_restore_state
  DW_CFA_def_cfa: r31 ofs 48
  DW_CFA_advance_loc: 12 to 00092dcc
  DW_CFA_def_cfa_offset: 0
  DW_CFA_restore: r19
  DW_CFA_restore: r20
  DW_CFA_restore: r21
  DW_CFA_restore: r30
  DW_CFA_restore: r29
  DW_CFA_nop
  DW_CFA_nop
  DW_CFA_nop

00004598 00000014 0000459c FDE cie=00000000 pc=00092dd0..00092dd8
  DW_CFA_nop
  DW_CFA_nop
  DW_CFA_nop
  DW_CFA_nop
  DW_CFA_nop
  DW_CFA_nop
  DW_CFA_nop

000045b0 00000014 000045b4 FDE cie=00000000 pc=00092dd8..00092dec
  DW_CFA_nop
  DW_CFA_nop
  DW_CFA_nop
  DW_CFA_nop
  DW_CFA_nop
  DW_CFA_nop
  DW_CFA_nop

000045c8 00000034 000045cc FDE cie=00000000 pc=00092dec..00092e68
  DW_CFA_advance_loc: 4 to 00092df0
  DW_CFA_def_cfa_offset: 64
  DW_CFA_advance_loc: 16 to 00092e00
  DW_CFA_def_cfa: r29 ofs 64
  DW_CFA_offset: r19 at cfa-8
  DW_CFA_offset: r20 at cfa-16
  DW_CFA_offset: r21 at cfa-24
  DW_CFA_offset: r22 at cfa-32
  DW_CFA_offset: r23 at cfa-48
  DW_CFA_offset: r30 at cfa-56
  DW_CFA_offset: r29 at cfa-64
  DW_CFA_advance_loc1: 84 to 00092e54
  DW_CFA_def_cfa: r31 ofs 64
  DW_CFA_advance_loc: 16 to 00092e64
  DW_CFA_def_cfa_offset: 0
  DW_CFA_restore: r19
  DW_CFA_restore: r20
  DW_CFA_restore: r21
  DW_CFA_restore: r22
  DW_CFA_restore: r23
  DW_CFA_restore: r30
  DW_CFA_restore: r29
  DW_CFA_nop
  DW_CFA_nop
  DW_CFA_nop

00004600 0000002c 00004604 FDE cie=00000000 pc=00092e68..00092ef4
  DW_CFA_advance_loc: 4 to 00092e6c
  DW_CFA_def_cfa_offset: 48
  DW_CFA_advance_loc: 12 to 00092e78
  DW_CFA_def_cfa: r29 ofs 48
  DW_CFA_offset: r19 at cfa-8
  DW_CFA_offset: r20 at cfa-16
  DW_CFA_offset: r21 at cfa-32
  DW_CFA_offset: r30 at cfa-40
  DW_CFA_offset: r29 at cfa-48
  DW_CFA_advance_loc1: 108 to 00092ee4
  DW_CFA_def_cfa: r31 ofs 48
  DW_CFA_advance_loc: 12 to 00092ef0
  DW_CFA_def_cfa_offset: 0
  DW_CFA_restore: r19
  DW_CFA_restore: r20
  DW_CFA_restore: r21
  DW_CFA_restore: r30
  DW_CFA_restore: r29
  DW_CFA_nop

00004630 00000014 00004634 FDE cie=00000000 pc=00092ef4..00092f9c
  DW_CFA_nop
  DW_CFA_nop
  DW_CFA_nop
  DW_CFA_nop
  DW_CFA_nop
  DW_CFA_nop
  DW_CFA_nop

00004648 0000003c 0000464c FDE cie=00000000 pc=00092f9c..000931a4
  DW_CFA_advance_loc: 4 to 00092fa0
  DW_CFA_def_cfa_offset: 80
  DW_CFA_advance_loc: 20 to 00092fb4
  DW_CFA_def_cfa: r29 ofs 80
  DW_CFA_offset: r19 at cfa-8
  DW_CFA_offset: r20 at cfa-16
  DW_CFA_offset: r21 at cfa-24
  DW_CFA_offset: r22 at cfa-32
  DW_CFA_offset: r23 at cfa-40
  DW_CFA_offset: r24 at cfa-48
  DW_CFA_offset: r25 at cfa-64
  DW_CFA_offset: r30 at cfa-72
  DW_CFA_offset: r29 at cfa-80
  DW_CFA_advance_loc2: 472 to 0009318c
  DW_CFA_def_cfa: r31 ofs 80
  DW_CFA_advance_loc: 20 to 000931a0
  DW_CFA_def_cfa_offset: 0
  DW_CFA_restore: r19
  DW_CFA_restore: r20
  DW_CFA_restore: r21
  DW_CFA_restore: r22
  DW_CFA_restore: r23
  DW_CFA_restore: r24
  DW_CFA_restore: r25
  DW_CFA_restore: r30
  DW_CFA_restore: r29
  DW_CFA_nop
  DW_CFA_nop
  DW_CFA_nop
  DW_CFA_nop

00004688 00000034 0000468c FDE cie=00000000 pc=000931a4..000931f0
  DW_CFA_advance_loc: 4 to 000931a8
  DW_CFA_def_cfa_offset: 32
  DW_CFA_advance_loc: 8 to 000931b0
  DW_CFA_def_cfa: r29 ofs 32
  DW_CFA_offset: r19 at cfa-16
  DW_CFA_offset: r30 at cfa-24
  DW_CFA_offset: r29 at cfa-32
  DW_CFA_remember_state
  DW_CFA_advance_loc: 36 to 000931d4
  DW_CFA_def_cfa: r31 ofs 32
  DW_CFA_advance_loc: 8 to 000931dc
  DW_CFA_def_cfa_offset: 0
  DW_CFA_restore: r19
  DW_CFA_restore: r30
  DW_CFA_restore: r29
  DW_CFA_advance_loc: 4 to 000931e0
  DW_CFA_restore_state
  DW_CFA_advance_loc: 4 to 000931e4
  DW_CFA_def_cfa: r31 ofs 32
  DW_CFA_advance_loc: 8 to 000931ec
  DW_CFA_def_cfa_offset: 0
  DW_CFA_restore: r19
  DW_CFA_restore: r30
  DW_CFA_restore: r29
  DW_CFA_nop
  DW_CFA_nop
  DW_CFA_nop

000046c0 00000014 000046c4 FDE cie=00000000 pc=000931f0..000932b0
  DW_CFA_nop
  DW_CFA_nop
  DW_CFA_nop
  DW_CFA_nop
  DW_CFA_nop
  DW_CFA_nop
  DW_CFA_nop

000046d8 0000004c 000046dc FDE cie=00000000 pc=000932b0..0009341c
  DW_CFA_advance_loc: 4 to 000932b4
  DW_CFA_def_cfa_offset: 64
  DW_CFA_advance_loc: 16 to 000932c4
  DW_CFA_def_cfa: r29 ofs 64
  DW_CFA_offset: r19 at cfa-8
  DW_CFA_offset: r20 at cfa-16
  DW_CFA_offset: r21 at cfa-24
  DW_CFA_offset: r22 at cfa-32
  DW_CFA_offset: r23 at cfa-48
  DW_CFA_offset: r30 at cfa-56
  DW_CFA_offset: r29 at cfa-64
  DW_CFA_remember_state
  DW_CFA_advance_loc: 60 to 00093300
  DW_CFA_def_cfa: r31 ofs 64
  DW_CFA_advance_loc: 16 to 00093310
  DW_CFA_def_cfa_offset: 0
  DW_CFA_restore: r19
  DW_CFA_restore: r20
  DW_CFA_restore: r21
  DW_CFA_restore: r22
  DW_CFA_restore: r23
  DW_CFA_restore: r30
  DW_CFA_restore: r29
  DW_CFA_advance_loc: 4 to 00093314
  DW_CFA_restore_state
  DW_CFA_remember_state
  DW_CFA_advance_loc1: 84 to 00093368
  DW_CFA_def_cfa: r31 ofs 64
  DW_CFA_advance_loc: 16 to 00093378
  DW_CFA_def_cfa_offset: 0
  DW_CFA_restore: r19
  DW_CFA_restore: r20
  DW_CFA_restore: r21
  DW_CFA_restore: r22
  DW_CFA_restore: r23
  DW_CFA_restore: r30
  DW_CFA_restore: r29
  DW_CFA_advance_loc: 4 to 0009337c
  DW_CFA_restore_state
  DW_CFA_nop
  DW_CFA_nop
  DW_CFA_nop
  DW_CFA_nop
  DW_CFA_nop
  DW_CFA_nop
  DW_CFA_nop

00004728 0000003c 0000472c FDE cie=00000000 pc=0009341c..0009352c
  DW_CFA_advance_loc: 4 to 00093420
  DW_CFA_def_cfa_offset: 64
  DW_CFA_advance_loc: 16 to 00093430
  DW_CFA_def_cfa: r29 ofs 64
  DW_CFA_offset: r19 at cfa-8
  DW_CFA_offset: r20 at cfa-16
  DW_CFA_offset: r21 at cfa-24
  DW_CFA_offset: r22 at cfa-32
  DW_CFA_offset: r23 at cfa-40
  DW_CFA_offset: r24 at cfa-48
  DW_CFA_offset: r30 at cfa-56
  DW_CFA_offset: r29 at cfa-64
  DW_CFA_remember_state
  DW_CFA_advance_loc: 48 to 00093460
  DW_CFA_def_cfa: r31 ofs 64
  DW_CFA_advance_loc: 16 to 00093470
  DW_CFA_def_cfa_offset: 0
  DW_CFA_restore: r19
  DW_CFA_restore: r20
  DW_CFA_restore: r21
  DW_CFA_restore: r22
  DW_CFA_restore: r23
  DW_CFA_restore: r24
  DW_CFA_restore: r30
  DW_CFA_restore: r29
  DW_CFA_advance_loc: 4 to 00093474
  DW_CFA_restore_state
  DW_CFA_nop
  DW_CFA_nop
  DW_CFA_nop
  DW_CFA_nop
  DW_CFA_nop
  DW_CFA_nop

00004768 00000014 0000476c FDE cie=00000000 pc=0009352c..00093538
  DW_CFA_nop
  DW_CFA_nop
  DW_CFA_nop
  DW_CFA_nop
  DW_CFA_nop
  DW_CFA_nop
  DW_CFA_nop

00004780 0000002c 00004784 FDE cie=00000000 pc=00093538..00093594
  DW_CFA_advance_loc: 4 to 0009353c
  DW_CFA_def_cfa_offset: 32
  DW_CFA_advance_loc: 8 to 00093544
  DW_CFA_def_cfa: r29 ofs 32
  DW_CFA_offset: r19 at cfa-16
  DW_CFA_offset: r30 at cfa-24
  DW_CFA_offset: r29 at cfa-32
  DW_CFA_advance_loc1: 68 to 00093588
  DW_CFA_def_cfa: r31 ofs 32
  DW_CFA_advance_loc: 8 to 00093590
  DW_CFA_def_cfa_offset: 0
  DW_CFA_restore: r19
  DW_CFA_restore: r30
  DW_CFA_restore: r29
  DW_CFA_nop
  DW_CFA_nop
  DW_CFA_nop
  DW_CFA_nop
  DW_CFA_nop
  DW_CFA_nop
  DW_CFA_nop

000047b0 0000002c 000047b4 FDE cie=00000000 pc=00093594..000935f8
  DW_CFA_advance_loc: 4 to 00093598
  DW_CFA_def_cfa_offset: 32
  DW_CFA_advance_loc: 8 to 000935a0
  DW_CFA_def_cfa: r29 ofs 32
  DW_CFA_offset: r19 at cfa-16
  DW_CFA_offset: r30 at cfa-24
  DW_CFA_offset: r29 at cfa-32
  DW_CFA_advance_loc1: 76 to 000935ec
  DW_CFA_def_cfa: r31 ofs 32
  DW_CFA_advance_loc: 8 to 000935f4
  DW_CFA_def_cfa_offset: 0
  DW_CFA_restore: r19
  DW_CFA_restore: r30
  DW_CFA_restore: r29
  DW_CFA_nop
  DW_CFA_nop
  DW_CFA_nop
  DW_CFA_nop
  DW_CFA_nop
  DW_CFA_nop
  DW_CFA_nop

000047e0 00000014 000047e4 FDE cie=00000000 pc=000935f8..00093618
  DW_CFA_nop
  DW_CFA_nop
  DW_CFA_nop
  DW_CFA_nop
  DW_CFA_nop
  DW_CFA_nop
  DW_CFA_nop

000047f8 0000001c 000047fc FDE cie=00000000 pc=00093618..000936d8
  DW_CFA_advance_loc: 4 to 0009361c
  DW_CFA_def_cfa_offset: 80
  DW_CFA_advance_loc: 12 to 00093628
  DW_CFA_def_cfa: r29 ofs 32
  DW_CFA_offset: r19 at cfa-16
  DW_CFA_offset: r30 at cfa-24
  DW_CFA_offset: r29 at cfa-32
  DW_CFA_nop
  DW_CFA_nop

00004818 0000001c 0000481c FDE cie=00000000 pc=000936d8..00093708
  DW_CFA_advance_loc: 4 to 000936dc
  DW_CFA_def_cfa_offset: 16
  DW_CFA_advance_loc: 4 to 000936e0
  DW_CFA_def_cfa: r29 ofs 16
  DW_CFA_offset: r30 at cfa-8
  DW_CFA_offset: r29 at cfa-16
  DW_CFA_nop
  DW_CFA_nop
  DW_CFA_nop
  DW_CFA_nop

00004838 00000034 0000483c FDE cie=00000000 pc=00093708..000937e4
  DW_CFA_advance_loc: 4 to 0009370c
  DW_CFA_def_cfa_offset: 64
  DW_CFA_advance_loc: 16 to 0009371c
  DW_CFA_def_cfa: r29 ofs 64
  DW_CFA_offset: r19 at cfa-8
  DW_CFA_offset: r20 at cfa-16
  DW_CFA_offset: r21 at cfa-24
  DW_CFA_offset: r22 at cfa-32
  DW_CFA_offset: r23 at cfa-40
  DW_CFA_offset: r24 at cfa-48
  DW_CFA_offset: r30 at cfa-56
  DW_CFA_offset: r29 at cfa-64
  DW_CFA_advance_loc1: 180 to 000937d0
  DW_CFA_def_cfa: r31 ofs 64
  DW_CFA_advance_loc: 16 to 000937e0
  DW_CFA_def_cfa_offset: 0
  DW_CFA_restore: r19
  DW_CFA_restore: r20
  DW_CFA_restore: r21
  DW_CFA_restore: r22
  DW_CFA_restore: r23
  DW_CFA_restore: r24
  DW_CFA_restore: r30
  DW_CFA_restore: r29

00004870 0000002c 00004874 FDE cie=00000000 pc=000937e4..000938ac
  DW_CFA_advance_loc: 4 to 000937e8
  DW_CFA_def_cfa_offset: 32
  DW_CFA_advance_loc: 8 to 000937f0
  DW_CFA_def_cfa: r29 ofs 32
  DW_CFA_offset: r19 at cfa-16
  DW_CFA_offset: r30 at cfa-24
  DW_CFA_offset: r29 at cfa-32
  DW_CFA_advance_loc1: 176 to 000938a0
  DW_CFA_def_cfa: r31 ofs 32
  DW_CFA_advance_loc: 8 to 000938a8
  DW_CFA_def_cfa_offset: 0
  DW_CFA_restore: r19
  DW_CFA_restore: r30
  DW_CFA_restore: r29
  DW_CFA_nop
  DW_CFA_nop
  DW_CFA_nop
  DW_CFA_nop
  DW_CFA_nop
  DW_CFA_nop
  DW_CFA_nop

000048a0 0000003c 000048a4 FDE cie=00000000 pc=000938ac..00093a34
  DW_CFA_advance_loc: 4 to 000938b0
  DW_CFA_def_cfa_offset: 64
  DW_CFA_advance_loc: 16 to 000938c0
  DW_CFA_def_cfa: r29 ofs 64
  DW_CFA_offset: r19 at cfa-8
  DW_CFA_offset: r20 at cfa-16
  DW_CFA_offset: r21 at cfa-24
  DW_CFA_offset: r22 at cfa-32
  DW_CFA_offset: r23 at cfa-40
  DW_CFA_offset: r24 at cfa-48
  DW_CFA_offset: r30 at cfa-56
  DW_CFA_offset: r29 at cfa-64
  DW_CFA_remember_state
  DW_CFA_advance_loc2: 348 to 00093a1c
  DW_CFA_def_cfa: r31 ofs 64
  DW_CFA_advance_loc: 4 to 00093a20
  DW_CFA_restore_state
  DW_CFA_def_cfa: r31 ofs 64
  DW_CFA_advance_loc: 16 to 00093a30
  DW_CFA_def_cfa_offset: 0
  DW_CFA_restore: r19
  DW_CFA_restore: r20
  DW_CFA_restore: r21
  DW_CFA_restore: r22
  DW_CFA_restore: r23
  DW_CFA_restore: r24
  DW_CFA_restore: r30
  DW_CFA_restore: r29
  DW_CFA_nop

000048e0 0000004c 000048e4 FDE cie=00000000 pc=00093a34..00093bd0
  DW_CFA_advance_loc: 4 to 00093a38
  DW_CFA_def_cfa_offset: 96
  DW_CFA_advance_loc: 24 to 00093a50
  DW_CFA_def_cfa: r29 ofs 96
  DW_CFA_offset: r19 at cfa-8
  DW_CFA_offset: r20 at cfa-16
  DW_CFA_offset: r21 at cfa-24
  DW_CFA_offset: r22 at cfa-32
  DW_CFA_offset: r23 at cfa-40
  DW_CFA_offset: r24 at cfa-48
  DW_CFA_offset: r25 at cfa-56
  DW_CFA_offset: r26 at cfa-64
  DW_CFA_offset: r27 at cfa-72
  DW_CFA_offset: r28 at cfa-80
  DW_CFA_offset: r30 at cfa-88
  DW_CFA_offset: r29 at cfa-96
  DW_CFA_remember_state
  DW_CFA_advance_loc2: 352 to 00093bb0
  DW_CFA_def_cfa: r31 ofs 96
  DW_CFA_advance_loc: 4 to 00093bb4
  DW_CFA_restore_state
  DW_CFA_def_cfa: r31 ofs 96
  DW_CFA_advance_loc: 24 to 00093bcc
  DW_CFA_def_cfa_offset: 0
  DW_CFA_restore: r19
  DW_CFA_restore: r20
  DW_CFA_restore: r21
  DW_CFA_restore: r22
  DW_CFA_restore: r23
  DW_CFA_restore: r24
  DW_CFA_restore: r25
  DW_CFA_restore: r26
  DW_CFA_restore: r27
  DW_CFA_restore: r28
  DW_CFA_restore: r30
  DW_CFA_restore: r29
  DW_CFA_nop
  DW_CFA_nop
  DW_CFA_nop
  DW_CFA_nop
  DW_CFA_nop

00004930 0000003c 00004934 FDE cie=00000000 pc=00093bd0..00093e5c
  DW_CFA_advance_loc: 4 to 00093bd4
  DW_CFA_def_cfa_offset: 80
  DW_CFA_advance_loc: 20 to 00093be8
  DW_CFA_def_cfa: r29 ofs 80
  DW_CFA_offset: r19 at cfa-8
  DW_CFA_offset: r20 at cfa-16
  DW_CFA_offset: r21 at cfa-24
  DW_CFA_offset: r22 at cfa-32
  DW_CFA_offset: r23 at cfa-40
  DW_CFA_offset: r24 at cfa-48
  DW_CFA_offset: r25 at cfa-64
  DW_CFA_offset: r30 at cfa-72
  DW_CFA_offset: r29 at cfa-80
  DW_CFA_advance_loc2: 604 to 00093e44
  DW_CFA_def_cfa: r31 ofs 80
  DW_CFA_advance_loc: 20 to 00093e58
  DW_CFA_def_cfa_offset: 0
  DW_CFA_restore: r19
  DW_CFA_restore: r20
  DW_CFA_restore: r21
  DW_CFA_restore: r22
  DW_CFA_restore: r23
  DW_CFA_restore: r24
  DW_CFA_restore: r25
  DW_CFA_restore: r30
  DW_CFA_restore: r29
  DW_CFA_nop
  DW_CFA_nop
  DW_CFA_nop
  DW_CFA_nop

00004970 00000014 00004974 FDE cie=00000000 pc=00093e5c..00093e68
  DW_CFA_nop
  DW_CFA_nop
  DW_CFA_nop
  DW_CFA_nop
  DW_CFA_nop
  DW_CFA_nop
  DW_CFA_nop

00004988 00000014 0000498c FDE cie=00000000 pc=00093e68..00093e7c
  DW_CFA_nop
  DW_CFA_nop
  DW_CFA_nop
  DW_CFA_nop
  DW_CFA_nop
  DW_CFA_nop
  DW_CFA_nop

000049a0 0000003c 000049a4 FDE cie=00000000 pc=00093e7c..00093fe4
  DW_CFA_advance_loc: 4 to 00093e80
  DW_CFA_def_cfa_offset: 80
  DW_CFA_advance_loc: 20 to 00093e94
  DW_CFA_def_cfa: r29 ofs 80
  DW_CFA_offset: r19 at cfa-8
  DW_CFA_offset: r20 at cfa-16
  DW_CFA_offset: r21 at cfa-24
  DW_CFA_offset: r22 at cfa-32
  DW_CFA_offset: r23 at cfa-40
  DW_CFA_offset: r24 at cfa-48
  DW_CFA_offset: r25 at cfa-64
  DW_CFA_offset: r30 at cfa-72
  DW_CFA_offset: r29 at cfa-80
  DW_CFA_advance_loc2: 312 to 00093fcc
  DW_CFA_def_cfa: r31 ofs 80
  DW_CFA_advance_loc: 20 to 00093fe0
  DW_CFA_def_cfa_offset: 0
  DW_CFA_restore: r19
  DW_CFA_restore: r20
  DW_CFA_restore: r21
  DW_CFA_restore: r22
  DW_CFA_restore: r23
  DW_CFA_restore: r24
  DW_CFA_restore: r25
  DW_CFA_restore: r30
  DW_CFA_restore: r29
  DW_CFA_nop
  DW_CFA_nop
  DW_CFA_nop
  DW_CFA_nop

000049e0 0000001c 000049e4 FDE cie=00000000 pc=00093fe4..00094008
  DW_CFA_advance_loc: 4 to 00093fe8
  DW_CFA_def_cfa_offset: 32
  DW_CFA_advance_loc: 8 to 00093ff0
  DW_CFA_def_cfa: r29 ofs 32
  DW_CFA_offset: r19 at cfa-16
  DW_CFA_offset: r30 at cfa-24
  DW_CFA_offset: r29 at cfa-32
  DW_CFA_nop
  DW_CFA_nop

00004a00 0000001c 00004a04 FDE cie=00000000 pc=00094008..00094024
  DW_CFA_advance_loc: 4 to 0009400c
  DW_CFA_def_cfa_offset: 32
  DW_CFA_advance_loc: 8 to 00094014
  DW_CFA_def_cfa: r29 ofs 32
  DW_CFA_offset: r19 at cfa-16
  DW_CFA_offset: r30 at cfa-24
  DW_CFA_offset: r29 at cfa-32
  DW_CFA_nop
  DW_CFA_nop

00004a20 00000014 00004a24 FDE cie=00000000 pc=00094024..00094030
  DW_CFA_nop
  DW_CFA_nop
  DW_CFA_nop
  DW_CFA_nop
  DW_CFA_nop
  DW_CFA_nop
  DW_CFA_nop

00004a38 00000034 00004a3c FDE cie=00000000 pc=00094030..000942e8
  DW_CFA_advance_loc: 20 to 00094044
  DW_CFA_def_cfa_offset: 256
  DW_CFA_advance_loc: 12 to 00094050
  DW_CFA_def_cfa: r29 ofs 32
  DW_CFA_offset: r15 at cfa-8
  DW_CFA_offset: r19 at cfa-16
  DW_CFA_offset: r30 at cfa-24
  DW_CFA_offset: r29 at cfa-32
  DW_CFA_remember_state
  DW_CFA_advance_loc2: 496 to 00094240
  DW_CFA_def_cfa: r31 ofs 256
  DW_CFA_advance_loc: 12 to 0009424c
  DW_CFA_def_cfa_offset: 0
  DW_CFA_restore: r15
  DW_CFA_restore: r19
  DW_CFA_restore: r30
  DW_CFA_restore: r29
  DW_CFA_advance_loc: 32 to 0009426c
  DW_CFA_restore_state
  DW_CFA_nop
  DW_CFA_nop
  DW_CFA_nop
  DW_CFA_nop
  DW_CFA_nop
  DW_CFA_nop

00004a70 0000002c 00004a74 FDE cie=00000000 pc=000942e8..00094418
  DW_CFA_advance_loc: 20 to 000942fc
  DW_CFA_def_cfa_offset: 240
  DW_CFA_advance_loc: 12 to 00094308
  DW_CFA_def_cfa: r29 ofs 32
  DW_CFA_offset: r15 at cfa-8
  DW_CFA_offset: r19 at cfa-16
  DW_CFA_offset: r30 at cfa-24
  DW_CFA_offset: r29 at cfa-32
  DW_CFA_advance_loc1: 228 to 000943ec
  DW_CFA_def_cfa: r31 ofs 240
  DW_CFA_advance_loc: 12 to 000943f8
  DW_CFA_def_cfa_offset: 0
  DW_CFA_restore: r15
  DW_CFA_restore: r19
  DW_CFA_restore: r30
  DW_CFA_restore: r29
  DW_CFA_nop
  DW_CFA_nop

00004aa0 0000002c 00004aa4 FDE cie=00000000 pc=00094418..00094528
  DW_CFA_advance_loc: 20 to 0009442c
  DW_CFA_def_cfa_offset: 240
  DW_CFA_advance_loc: 12 to 00094438
  DW_CFA_def_cfa: r29 ofs 32
  DW_CFA_offset: r15 at cfa-8
  DW_CFA_offset: r19 at cfa-16
  DW_CFA_offset: r30 at cfa-24
  DW_CFA_offset: r29 at cfa-32
  DW_CFA_advance_loc1: 196 to 000944fc
  DW_CFA_def_cfa: r31 ofs 240
  DW_CFA_advance_loc: 12 to 00094508
  DW_CFA_def_cfa_offset: 0
  DW_CFA_restore: r15
  DW_CFA_restore: r19
  DW_CFA_restore: r30
  DW_CFA_restore: r29
  DW_CFA_nop
  DW_CFA_nop

00004ad0 00000014 00004ad4 FDE cie=00000000 pc=00094528..00094540
  DW_CFA_nop
  DW_CFA_nop
  DW_CFA_nop
  DW_CFA_nop
  DW_CFA_nop
  DW_CFA_nop
  DW_CFA_nop

00004ae8 00000014 00004aec FDE cie=00000000 pc=00094540..00094560
  DW_CFA_nop
  DW_CFA_nop
  DW_CFA_nop
  DW_CFA_nop
  DW_CFA_nop
  DW_CFA_nop
  DW_CFA_nop

00004b00 00000034 00004b04 FDE cie=00000000 pc=00094560..00094598
  DW_CFA_advance_loc: 4 to 00094564
  DW_CFA_def_cfa_offset: 16
  DW_CFA_advance_loc: 4 to 00094568
  DW_CFA_def_cfa: r29 ofs 16
  DW_CFA_offset: r30 at cfa-8
  DW_CFA_offset: r29 at cfa-16
  DW_CFA_remember_state
  DW_CFA_advance_loc: 28 to 00094584
  DW_CFA_def_cfa: r31 ofs 16
  DW_CFA_advance_loc: 4 to 00094588
  DW_CFA_def_cfa_offset: 0
  DW_CFA_restore: r30
  DW_CFA_restore: r29
  DW_CFA_advance_loc: 4 to 0009458c
  DW_CFA_restore_state
  DW_CFA_advance_loc: 4 to 00094590
  DW_CFA_def_cfa: r31 ofs 16
  DW_CFA_advance_loc: 4 to 00094594
  DW_CFA_def_cfa_offset: 0
  DW_CFA_restore: r30
  DW_CFA_restore: r29
  DW_CFA_nop
  DW_CFA_nop
  DW_CFA_nop
  DW_CFA_nop
  DW_CFA_nop
  DW_CFA_nop
  DW_CFA_nop

00004b38 00000024 00004b3c FDE cie=00000000 pc=00094598..000945c8
  DW_CFA_advance_loc: 4 to 0009459c
  DW_CFA_def_cfa_offset: 32
  DW_CFA_advance_loc: 8 to 000945a4
  DW_CFA_def_cfa: r29 ofs 32
  DW_CFA_offset: r19 at cfa-16
  DW_CFA_offset: r30 at cfa-24
  DW_CFA_offset: r29 at cfa-32
  DW_CFA_advance_loc: 24 to 000945bc
  DW_CFA_def_cfa: r31 ofs 32
  DW_CFA_advance_loc: 8 to 000945c4
  DW_CFA_def_cfa_offset: 0
  DW_CFA_restore: r19
  DW_CFA_restore: r30
  DW_CFA_restore: r29

00004b60 00000024 00004b64 FDE cie=00000000 pc=000945c8..000945e8
  DW_CFA_advance_loc: 4 to 000945cc
  DW_CFA_def_cfa_offset: 16
  DW_CFA_advance_loc: 4 to 000945d0
  DW_CFA_def_cfa: r29 ofs 16
  DW_CFA_offset: r30 at cfa-8
  DW_CFA_offset: r29 at cfa-16
  DW_CFA_advance_loc: 16 to 000945e0
  DW_CFA_def_cfa: r31 ofs 16
  DW_CFA_advance_loc: 4 to 000945e4
  DW_CFA_def_cfa_offset: 0
  DW_CFA_restore: r30
  DW_CFA_restore: r29
  DW_CFA_nop
  DW_CFA_nop
  DW_CFA_nop

00004b88 0000002c 00004b8c FDE cie=00000000 pc=000945e8..00094624
  DW_CFA_advance_loc: 4 to 000945ec
  DW_CFA_def_cfa_offset: 32
  DW_CFA_advance_loc: 8 to 000945f4
  DW_CFA_def_cfa: r29 ofs 32
  DW_CFA_offset: r19 at cfa-8
  DW_CFA_offset: r20 at cfa-16
  DW_CFA_offset: r30 at cfa-24
  DW_CFA_offset: r29 at cfa-32
  DW_CFA_advance_loc: 36 to 00094618
  DW_CFA_def_cfa: r31 ofs 32
  DW_CFA_advance_loc: 8 to 00094620
  DW_CFA_def_cfa_offset: 0
  DW_CFA_restore: r19
  DW_CFA_restore: r20
  DW_CFA_restore: r30
  DW_CFA_restore: r29
  DW_CFA_nop
  DW_CFA_nop
  DW_CFA_nop
  DW_CFA_nop
  DW_CFA_nop

00004bb8 00000014 00004bbc FDE cie=00000000 pc=00094624..0009463c
  DW_CFA_nop
  DW_CFA_nop
  DW_CFA_nop
  DW_CFA_nop
  DW_CFA_nop
  DW_CFA_nop
  DW_CFA_nop

00004bd0 0000002c 00004bd4 FDE cie=00000000 pc=0009463c..00094678
  DW_CFA_advance_loc: 4 to 00094640
  DW_CFA_def_cfa_offset: 32
  DW_CFA_advance_loc: 8 to 00094648
  DW_CFA_def_cfa: r29 ofs 32
  DW_CFA_offset: r19 at cfa-8
  DW_CFA_offset: r20 at cfa-16
  DW_CFA_offset: r30 at cfa-24
  DW_CFA_offset: r29 at cfa-32
  DW_CFA_advance_loc: 36 to 0009466c
  DW_CFA_def_cfa: r31 ofs 32
  DW_CFA_advance_loc: 8 to 00094674
  DW_CFA_def_cfa_offset: 0
  DW_CFA_restore: r19
  DW_CFA_restore: r20
  DW_CFA_restore: r30
  DW_CFA_restore: r29
  DW_CFA_nop
  DW_CFA_nop
  DW_CFA_nop
  DW_CFA_nop
  DW_CFA_nop

00004c00 00000024 00004c04 FDE cie=00000000 pc=00094678..00094708
  DW_CFA_advance_loc: 4 to 0009467c
  DW_CFA_def_cfa_offset: 304
  DW_CFA_advance_loc: 16 to 0009468c
  DW_CFA_def_cfa: r29 ofs 48
  DW_CFA_offset: r19 at cfa-8
  DW_CFA_offset: r20 at cfa-16
  DW_CFA_offset: r28 at cfa-32
  DW_CFA_offset: r30 at cfa-40
  DW_CFA_offset: r29 at cfa-48
  DW_CFA_nop
  DW_CFA_nop
  DW_CFA_nop
  DW_CFA_nop
  DW_CFA_nop

00004c28 0000001c 00004c2c FDE cie=00000000 pc=00094708..0009473c
  DW_CFA_advance_loc: 36 to 0009472c
  DW_CFA_def_cfa_offset: 16
  DW_CFA_advance_loc: 4 to 00094730
  DW_CFA_def_cfa: r29 ofs 16
  DW_CFA_offset: r30 at cfa-8
  DW_CFA_offset: r29 at cfa-16
  DW_CFA_nop
  DW_CFA_nop
  DW_CFA_nop
  DW_CFA_nop

00004c48 0000001c 00004c4c FDE cie=00000000 pc=0009473c..00094770
  DW_CFA_advance_loc: 36 to 00094760
  DW_CFA_def_cfa_offset: 16
  DW_CFA_advance_loc: 4 to 00094764
  DW_CFA_def_cfa: r29 ofs 16
  DW_CFA_offset: r30 at cfa-8
  DW_CFA_offset: r29 at cfa-16
  DW_CFA_nop
  DW_CFA_nop
  DW_CFA_nop
  DW_CFA_nop

00004c68 0000001c 00004c6c FDE cie=00000000 pc=00094770..000947a4
  DW_CFA_advance_loc: 36 to 00094794
  DW_CFA_def_cfa_offset: 16
  DW_CFA_advance_loc: 4 to 00094798
  DW_CFA_def_cfa: r29 ofs 16
  DW_CFA_offset: r30 at cfa-8
  DW_CFA_offset: r29 at cfa-16
  DW_CFA_nop
  DW_CFA_nop
  DW_CFA_nop
  DW_CFA_nop

00004c88 0000001c 00004c8c FDE cie=00000000 pc=000947a4..000947d8
  DW_CFA_advance_loc: 36 to 000947c8
  DW_CFA_def_cfa_offset: 16
  DW_CFA_advance_loc: 4 to 000947cc
  DW_CFA_def_cfa: r29 ofs 16
  DW_CFA_offset: r30 at cfa-8
  DW_CFA_offset: r29 at cfa-16
  DW_CFA_nop
  DW_CFA_nop
  DW_CFA_nop
  DW_CFA_nop

00004ca8 0000002c 00004cac FDE cie=00000000 pc=000947d8..000948b8
  DW_CFA_advance_loc: 20 to 000947ec
  DW_CFA_def_cfa_offset: 48
  DW_CFA_advance_loc: 12 to 000947f8
  DW_CFA_def_cfa: r29 ofs 32
  DW_CFA_offset: r15 at cfa-8
  DW_CFA_offset: r19 at cfa-16
  DW_CFA_offset: r30 at cfa-24
  DW_CFA_offset: r29 at cfa-32
  DW_CFA_remember_state
  DW_CFA_advance_loc1: 120 to 00094870
  DW_CFA_def_cfa: r31 ofs 48
  DW_CFA_advance_loc: 12 to 0009487c
  DW_CFA_def_cfa_offset: 0
  DW_CFA_restore: r15
  DW_CFA_restore: r19
  DW_CFA_restore: r30
  DW_CFA_restore: r29
  DW_CFA_advance_loc: 32 to 0009489c
  DW_CFA_restore_state
  DW_CFA_nop

00004cd8 0000002c 00004cdc FDE cie=00000000 pc=000948b8..00094974
  DW_CFA_advance_loc: 20 to 000948cc
  DW_CFA_def_cfa_offset: 48
  DW_CFA_advance_loc: 12 to 000948d8
  DW_CFA_def_cfa: r29 ofs 32
  DW_CFA_offset: r15 at cfa-8
  DW_CFA_offset: r19 at cfa-16
  DW_CFA_offset: r30 at cfa-24
  DW_CFA_offset: r29 at cfa-32
  DW_CFA_remember_state
  DW_CFA_advance_loc1: 88 to 00094930
  DW_CFA_def_cfa: r31 ofs 48
  DW_CFA_advance_loc: 12 to 0009493c
  DW_CFA_def_cfa_offset: 0
  DW_CFA_restore: r15
  DW_CFA_restore: r19
  DW_CFA_restore: r30
  DW_CFA_restore: r29
  DW_CFA_advance_loc: 32 to 0009495c
  DW_CFA_restore_state
  DW_CFA_nop

00004d08 0000002c 00004d0c FDE cie=00000000 pc=00094974..000949ec
  DW_CFA_advance_loc: 4 to 00094978
  DW_CFA_def_cfa_offset: 32
  DW_CFA_advance_loc: 8 to 00094980
  DW_CFA_def_cfa: r29 ofs 32
  DW_CFA_offset: r19 at cfa-16
  DW_CFA_offset: r30 at cfa-24
  DW_CFA_offset: r29 at cfa-32
  DW_CFA_remember_state
  DW_CFA_advance_loc: 60 to 000949bc
  DW_CFA_def_cfa: r31 ofs 32
  DW_CFA_advance_loc: 8 to 000949c4
  DW_CFA_def_cfa_offset: 0
  DW_CFA_restore: r19
  DW_CFA_restore: r30
  DW_CFA_restore: r29
  DW_CFA_advance_loc: 4 to 000949c8
  DW_CFA_restore_state
  DW_CFA_nop
  DW_CFA_nop
  DW_CFA_nop
  DW_CFA_nop
  DW_CFA_nop

00004d38 0000002c 00004d3c FDE cie=00000000 pc=000949ec..00094a68
  DW_CFA_advance_loc: 4 to 000949f0
  DW_CFA_def_cfa_offset: 32
  DW_CFA_advance_loc: 8 to 000949f8
  DW_CFA_def_cfa: r29 ofs 32
  DW_CFA_offset: r19 at cfa-16
  DW_CFA_offset: r30 at cfa-24
  DW_CFA_offset: r29 at cfa-32
  DW_CFA_remember_state
  DW_CFA_advance_loc1: 64 to 00094a38
  DW_CFA_def_cfa: r31 ofs 32
  DW_CFA_advance_loc: 8 to 00094a40
  DW_CFA_def_cfa_offset: 0
  DW_CFA_restore: r19
  DW_CFA_restore: r30
  DW_CFA_restore: r29
  DW_CFA_advance_loc: 4 to 00094a44
  DW_CFA_restore_state
  DW_CFA_nop
  DW_CFA_nop
  DW_CFA_nop
  DW_CFA_nop

00004d68 0000002c 00004d6c FDE cie=00000000 pc=00094a68..00094ae0
  DW_CFA_advance_loc: 4 to 00094a6c
  DW_CFA_def_cfa_offset: 32
  DW_CFA_advance_loc: 8 to 00094a74
  DW_CFA_def_cfa: r29 ofs 32
  DW_CFA_offset: r19 at cfa-16
  DW_CFA_offset: r30 at cfa-24
  DW_CFA_offset: r29 at cfa-32
  DW_CFA_remember_state
  DW_CFA_advance_loc: 60 to 00094ab0
  DW_CFA_def_cfa: r31 ofs 32
  DW_CFA_advance_loc: 8 to 00094ab8
  DW_CFA_def_cfa_offset: 0
  DW_CFA_restore: r19
  DW_CFA_restore: r30
  DW_CFA_restore: r29
  DW_CFA_advance_loc: 4 to 00094abc
  DW_CFA_restore_state
  DW_CFA_nop
  DW_CFA_nop
  DW_CFA_nop
  DW_CFA_nop
  DW_CFA_nop

00004d98 0000002c 00004d9c FDE cie=00000000 pc=00094ae0..00094b58
  DW_CFA_advance_loc: 4 to 00094ae4
  DW_CFA_def_cfa_offset: 32
  DW_CFA_advance_loc: 8 to 00094aec
  DW_CFA_def_cfa: r29 ofs 32
  DW_CFA_offset: r19 at cfa-16
  DW_CFA_offset: r30 at cfa-24
  DW_CFA_offset: r29 at cfa-32
  DW_CFA_remember_state
  DW_CFA_advance_loc: 60 to 00094b28
  DW_CFA_def_cfa: r31 ofs 32
  DW_CFA_advance_loc: 8 to 00094b30
  DW_CFA_def_cfa_offset: 0
  DW_CFA_restore: r19
  DW_CFA_restore: r30
  DW_CFA_restore: r29
  DW_CFA_advance_loc: 4 to 00094b34
  DW_CFA_restore_state
  DW_CFA_nop
  DW_CFA_nop
  DW_CFA_nop
  DW_CFA_nop
  DW_CFA_nop

00004dc8 0000002c 00004dcc FDE cie=00000000 pc=00094b58..00094bb0
  DW_CFA_advance_loc: 4 to 00094b5c
  DW_CFA_def_cfa_offset: 32
  DW_CFA_advance_loc: 8 to 00094b64
  DW_CFA_def_cfa: r29 ofs 32
  DW_CFA_offset: r19 at cfa-16
  DW_CFA_offset: r30 at cfa-24
  DW_CFA_offset: r29 at cfa-32
  DW_CFA_remember_state
  DW_CFA_advance_loc: 52 to 00094b98
  DW_CFA_def_cfa: r31 ofs 32
  DW_CFA_advance_loc: 8 to 00094ba0
  DW_CFA_def_cfa_offset: 0
  DW_CFA_restore: r19
  DW_CFA_restore: r30
  DW_CFA_restore: r29
  DW_CFA_advance_loc: 4 to 00094ba4
  DW_CFA_restore_state
  DW_CFA_nop
  DW_CFA_nop
  DW_CFA_nop
  DW_CFA_nop
  DW_CFA_nop

00004df8 0000002c 00004dfc FDE cie=00000000 pc=00094bb0..00094be4
  DW_CFA_advance_loc: 4 to 00094bb4
  DW_CFA_def_cfa_offset: 32
  DW_CFA_advance_loc: 8 to 00094bbc
  DW_CFA_def_cfa: r29 ofs 32
  DW_CFA_offset: r19 at cfa-16
  DW_CFA_offset: r30 at cfa-24
  DW_CFA_offset: r29 at cfa-32
  DW_CFA_remember_state
  DW_CFA_advance_loc: 16 to 00094bcc
  DW_CFA_def_cfa: r31 ofs 32
  DW_CFA_advance_loc: 8 to 00094bd4
  DW_CFA_def_cfa_offset: 0
  DW_CFA_restore: r19
  DW_CFA_restore: r30
  DW_CFA_restore: r29
  DW_CFA_advance_loc: 4 to 00094bd8
  DW_CFA_restore_state
  DW_CFA_nop
  DW_CFA_nop
  DW_CFA_nop
  DW_CFA_nop
  DW_CFA_nop

00004e28 00000034 00004e2c FDE cie=00000000 pc=00094be4..00094c94
  DW_CFA_advance_loc: 4 to 00094be8
  DW_CFA_def_cfa_offset: 64
  DW_CFA_advance_loc: 16 to 00094bf8
  DW_CFA_def_cfa: r29 ofs 64
  DW_CFA_offset: r19 at cfa-8
  DW_CFA_offset: r20 at cfa-16
  DW_CFA_offset: r21 at cfa-24
  DW_CFA_offset: r22 at cfa-32
  DW_CFA_offset: r23 at cfa-48
  DW_CFA_offset: r30 at cfa-56
  DW_CFA_offset: r29 at cfa-64
  DW_CFA_remember_state
  DW_CFA_advance_loc1: 104 to 00094c60
  DW_CFA_def_cfa: r31 ofs 64
  DW_CFA_advance_loc: 16 to 00094c70
  DW_CFA_def_cfa_offset: 0
  DW_CFA_restore: r19
  DW_CFA_restore: r20
  DW_CFA_restore: r21
  DW_CFA_restore: r22
  DW_CFA_restore: r23
  DW_CFA_restore: r30
  DW_CFA_restore: r29
  DW_CFA_advance_loc: 4 to 00094c74
  DW_CFA_restore_state

00004e60 00000034 00004e64 FDE cie=00000000 pc=00094c94..00094d18
  DW_CFA_advance_loc: 4 to 00094c98
  DW_CFA_def_cfa_offset: 48
  DW_CFA_advance_loc: 12 to 00094ca4
  DW_CFA_def_cfa: r29 ofs 48
  DW_CFA_offset: r19 at cfa-8
  DW_CFA_offset: r20 at cfa-16
  DW_CFA_offset: r21 at cfa-24
  DW_CFA_offset: r22 at cfa-32
  DW_CFA_offset: r30 at cfa-40
  DW_CFA_offset: r29 at cfa-48
  DW_CFA_remember_state
  DW_CFA_advance_loc1: 68 to 00094ce8
  DW_CFA_def_cfa: r31 ofs 48
  DW_CFA_advance_loc: 12 to 00094cf4
  DW_CFA_def_cfa_offset: 0
  DW_CFA_restore: r19
  DW_CFA_restore: r20
  DW_CFA_restore: r21
  DW_CFA_restore: r22
  DW_CFA_restore: r30
  DW_CFA_restore: r29
  DW_CFA_advance_loc: 4 to 00094cf8
  DW_CFA_restore_state
  DW_CFA_nop
  DW_CFA_nop
  DW_CFA_nop

00004e98 00000034 00004e9c FDE cie=00000000 pc=00094d18..00094d80
  DW_CFA_advance_loc: 4 to 00094d1c
  DW_CFA_def_cfa_offset: 48
  DW_CFA_advance_loc: 12 to 00094d28
  DW_CFA_def_cfa: r29 ofs 48
  DW_CFA_offset: r19 at cfa-8
  DW_CFA_offset: r20 at cfa-16
  DW_CFA_offset: r21 at cfa-32
  DW_CFA_offset: r30 at cfa-40
  DW_CFA_offset: r29 at cfa-48
  DW_CFA_remember_state
  DW_CFA_advance_loc: 40 to 00094d50
  DW_CFA_def_cfa: r31 ofs 48
  DW_CFA_advance_loc: 12 to 00094d5c
  DW_CFA_def_cfa_offset: 0
  DW_CFA_restore: r19
  DW_CFA_restore: r20
  DW_CFA_restore: r21
  DW_CFA_restore: r30
  DW_CFA_restore: r29
  DW_CFA_advance_loc: 4 to 00094d60
  DW_CFA_restore_state
  DW_CFA_nop
  DW_CFA_nop
  DW_CFA_nop
  DW_CFA_nop
  DW_CFA_nop
  DW_CFA_nop
  DW_CFA_nop

00004ed0 0000001c 00004ed4 FDE cie=00000000 pc=00094d80..00094db4
  DW_CFA_advance_loc: 16 to 00094d90
  DW_CFA_def_cfa_offset: 16
  DW_CFA_advance_loc: 4 to 00094d94
  DW_CFA_def_cfa: r29 ofs 16
  DW_CFA_offset: r30 at cfa-8
  DW_CFA_offset: r29 at cfa-16
  DW_CFA_nop
  DW_CFA_nop
  DW_CFA_nop
  DW_CFA_nop

00004ef0 00000024 00004ef4 FDE cie=00000000 pc=00094db4..00094e1c
  DW_CFA_advance_loc: 4 to 00094db8
  DW_CFA_def_cfa_offset: 16
  DW_CFA_advance_loc: 4 to 00094dbc
  DW_CFA_def_cfa: r29 ofs 16
  DW_CFA_offset: r30 at cfa-8
  DW_CFA_offset: r29 at cfa-16
  DW_CFA_remember_state
  DW_CFA_advance_loc: 24 to 00094dd4
  DW_CFA_def_cfa: r31 ofs 16
  DW_CFA_advance_loc: 4 to 00094dd8
  DW_CFA_def_cfa_offset: 0
  DW_CFA_restore: r30
  DW_CFA_restore: r29
  DW_CFA_advance_loc: 4 to 00094ddc
  DW_CFA_restore_state

00004f18 00000024 00004f1c FDE cie=00000000 pc=00094e1c..00094e84
  DW_CFA_advance_loc: 4 to 00094e20
  DW_CFA_def_cfa_offset: 16
  DW_CFA_advance_loc: 4 to 00094e24
  DW_CFA_def_cfa: r29 ofs 16
  DW_CFA_offset: r30 at cfa-8
  DW_CFA_offset: r29 at cfa-16
  DW_CFA_remember_state
  DW_CFA_advance_loc: 24 to 00094e3c
  DW_CFA_def_cfa: r31 ofs 16
  DW_CFA_advance_loc: 4 to 00094e40
  DW_CFA_def_cfa_offset: 0
  DW_CFA_restore: r30
  DW_CFA_restore: r29
  DW_CFA_advance_loc: 4 to 00094e44
  DW_CFA_restore_state

00004f40 00000034 00004f44 FDE cie=00000000 pc=00094e84..00094eec
  DW_CFA_advance_loc: 4 to 00094e88
  DW_CFA_def_cfa_offset: 48
  DW_CFA_advance_loc: 12 to 00094e94
  DW_CFA_def_cfa: r29 ofs 48
  DW_CFA_offset: r19 at cfa-8
  DW_CFA_offset: r20 at cfa-16
  DW_CFA_offset: r21 at cfa-32
  DW_CFA_offset: r30 at cfa-40
  DW_CFA_offset: r29 at cfa-48
  DW_CFA_remember_state
  DW_CFA_advance_loc: 36 to 00094eb8
  DW_CFA_def_cfa: r31 ofs 48
  DW_CFA_advance_loc: 12 to 00094ec4
  DW_CFA_def_cfa_offset: 0
  DW_CFA_restore: r19
  DW_CFA_restore: r20
  DW_CFA_restore: r21
  DW_CFA_restore: r30
  DW_CFA_restore: r29
  DW_CFA_advance_loc: 4 to 00094ec8
  DW_CFA_restore_state
  DW_CFA_nop
  DW_CFA_nop
  DW_CFA_nop
  DW_CFA_nop
  DW_CFA_nop
  DW_CFA_nop
  DW_CFA_nop

00004f78 0000001c 00004f7c FDE cie=00000000 pc=00094eec..00094f20
  DW_CFA_advance_loc: 16 to 00094efc
  DW_CFA_def_cfa_offset: 16
  DW_CFA_advance_loc: 4 to 00094f00
  DW_CFA_def_cfa: r29 ofs 16
  DW_CFA_offset: r30 at cfa-8
  DW_CFA_offset: r29 at cfa-16
  DW_CFA_nop
  DW_CFA_nop
  DW_CFA_nop
  DW_CFA_nop

00004f98 0000001c 00004f9c FDE cie=00000000 pc=00094f20..00094f54
  DW_CFA_advance_loc: 16 to 00094f30
  DW_CFA_def_cfa_offset: 16
  DW_CFA_advance_loc: 4 to 00094f34
  DW_CFA_def_cfa: r29 ofs 16
  DW_CFA_offset: r30 at cfa-8
  DW_CFA_offset: r29 at cfa-16
  DW_CFA_nop
  DW_CFA_nop
  DW_CFA_nop
  DW_CFA_nop

00004fb8 00000024 00004fbc FDE cie=00000000 pc=00094f54..00094fb0
  DW_CFA_advance_loc: 4 to 00094f58
  DW_CFA_def_cfa_offset: 16
  DW_CFA_advance_loc: 4 to 00094f5c
  DW_CFA_def_cfa: r29 ofs 16
  DW_CFA_offset: r30 at cfa-8
  DW_CFA_offset: r29 at cfa-16
  DW_CFA_remember_state
  DW_CFA_advance_loc: 44 to 00094f88
  DW_CFA_def_cfa: r31 ofs 16
  DW_CFA_advance_loc: 4 to 00094f8c
  DW_CFA_def_cfa_offset: 0
  DW_CFA_restore: r30
  DW_CFA_restore: r29
  DW_CFA_advance_loc: 4 to 00094f90
  DW_CFA_restore_state

00004fe0 00000024 00004fe4 FDE cie=00000000 pc=00094fb0..00095018
  DW_CFA_advance_loc: 4 to 00094fb4
  DW_CFA_def_cfa_offset: 16
  DW_CFA_advance_loc: 4 to 00094fb8
  DW_CFA_def_cfa: r29 ofs 16
  DW_CFA_offset: r30 at cfa-8
  DW_CFA_offset: r29 at cfa-16
  DW_CFA_remember_state
  DW_CFA_advance_loc: 24 to 00094fd0
  DW_CFA_def_cfa: r31 ofs 16
  DW_CFA_advance_loc: 4 to 00094fd4
  DW_CFA_def_cfa_offset: 0
  DW_CFA_restore: r30
  DW_CFA_restore: r29
  DW_CFA_advance_loc: 4 to 00094fd8
  DW_CFA_restore_state

00005008 0000001c 0000500c FDE cie=00000000 pc=00095018..0009504c
  DW_CFA_advance_loc: 16 to 00095028
  DW_CFA_def_cfa_offset: 16
  DW_CFA_advance_loc: 4 to 0009502c
  DW_CFA_def_cfa: r29 ofs 16
  DW_CFA_offset: r30 at cfa-8
  DW_CFA_offset: r29 at cfa-16
  DW_CFA_nop
  DW_CFA_nop
  DW_CFA_nop
  DW_CFA_nop

00005028 00000034 0000502c FDE cie=00000000 pc=0009504c..000950d8
  DW_CFA_advance_loc: 4 to 00095050
  DW_CFA_def_cfa_offset: 48
  DW_CFA_advance_loc: 12 to 0009505c
  DW_CFA_def_cfa: r29 ofs 48
  DW_CFA_offset: r19 at cfa-8
  DW_CFA_offset: r20 at cfa-16
  DW_CFA_offset: r21 at cfa-24
  DW_CFA_offset: r22 at cfa-32
  DW_CFA_offset: r30 at cfa-40
  DW_CFA_offset: r29 at cfa-48
  DW_CFA_remember_state
  DW_CFA_advance_loc1: 72 to 000950a4
  DW_CFA_def_cfa: r31 ofs 48
  DW_CFA_advance_loc: 12 to 000950b0
  DW_CFA_def_cfa_offset: 0
  DW_CFA_restore: r19
  DW_CFA_restore: r20
  DW_CFA_restore: r21
  DW_CFA_restore: r22
  DW_CFA_restore: r30
  DW_CFA_restore: r29
  DW_CFA_advance_loc: 4 to 000950b4
  DW_CFA_restore_state
  DW_CFA_nop
  DW_CFA_nop
  DW_CFA_nop

00005060 0000001c 00005064 FDE cie=00000000 pc=000950d8..000950f4
  DW_CFA_advance_loc: 12 to 000950e4
  DW_CFA_def_cfa_offset: 16
  DW_CFA_advance_loc: 4 to 000950e8
  DW_CFA_def_cfa: r29 ofs 16
  DW_CFA_offset: r30 at cfa-8
  DW_CFA_offset: r29 at cfa-16
  DW_CFA_nop
  DW_CFA_nop
  DW_CFA_nop
  DW_CFA_nop

00005080 0000001c 00005084 FDE cie=00000000 pc=000950f4..00095110
  DW_CFA_advance_loc: 12 to 00095100
  DW_CFA_def_cfa_offset: 16
  DW_CFA_advance_loc: 4 to 00095104
  DW_CFA_def_cfa: r29 ofs 16
  DW_CFA_offset: r30 at cfa-8
  DW_CFA_offset: r29 at cfa-16
  DW_CFA_nop
  DW_CFA_nop
  DW_CFA_nop
  DW_CFA_nop

000050a0 0000001c 000050a4 FDE cie=00000000 pc=00095110..00095144
  DW_CFA_advance_loc: 16 to 00095120
  DW_CFA_def_cfa_offset: 16
  DW_CFA_advance_loc: 4 to 00095124
  DW_CFA_def_cfa: r29 ofs 16
  DW_CFA_offset: r30 at cfa-8
  DW_CFA_offset: r29 at cfa-16
  DW_CFA_nop
  DW_CFA_nop
  DW_CFA_nop
  DW_CFA_nop

000050c0 0000001c 000050c4 FDE cie=00000000 pc=00095144..00095180
  DW_CFA_advance_loc: 28 to 00095160
  DW_CFA_def_cfa_offset: 16
  DW_CFA_advance_loc: 4 to 00095164
  DW_CFA_def_cfa: r29 ofs 16
  DW_CFA_offset: r30 at cfa-8
  DW_CFA_offset: r29 at cfa-16
  DW_CFA_nop
  DW_CFA_nop
  DW_CFA_nop
  DW_CFA_nop

000050e0 0000002c 000050e4 FDE cie=00000000 pc=00095180..00095214
  DW_CFA_advance_loc: 4 to 00095184
  DW_CFA_def_cfa_offset: 32
  DW_CFA_advance_loc: 8 to 0009518c
  DW_CFA_def_cfa: r29 ofs 32
  DW_CFA_offset: r19 at cfa-16
  DW_CFA_offset: r30 at cfa-24
  DW_CFA_offset: r29 at cfa-32
  DW_CFA_remember_state
  DW_CFA_advance_loc: 60 to 000951c8
  DW_CFA_def_cfa: r31 ofs 32
  DW_CFA_advance_loc: 8 to 000951d0
  DW_CFA_def_cfa_offset: 0
  DW_CFA_restore: r19
  DW_CFA_restore: r30
  DW_CFA_restore: r29
  DW_CFA_advance_loc: 4 to 000951d4
  DW_CFA_restore_state
  DW_CFA_nop
  DW_CFA_nop
  DW_CFA_nop
  DW_CFA_nop
  DW_CFA_nop

00005110 0000002c 00005114 FDE cie=00000000 pc=00095214..000952a8
  DW_CFA_advance_loc: 4 to 00095218
  DW_CFA_def_cfa_offset: 32
  DW_CFA_advance_loc: 8 to 00095220
  DW_CFA_def_cfa: r29 ofs 32
  DW_CFA_offset: r19 at cfa-16
  DW_CFA_offset: r30 at cfa-24
  DW_CFA_offset: r29 at cfa-32
  DW_CFA_remember_state
  DW_CFA_advance_loc: 60 to 0009525c
  DW_CFA_def_cfa: r31 ofs 32
  DW_CFA_advance_loc: 8 to 00095264
  DW_CFA_def_cfa_offset: 0
  DW_CFA_restore: r19
  DW_CFA_restore: r30
  DW_CFA_restore: r29
  DW_CFA_advance_loc: 4 to 00095268
  DW_CFA_restore_state
  DW_CFA_nop
  DW_CFA_nop
  DW_CFA_nop
  DW_CFA_nop
  DW_CFA_nop

00005140 0000002c 00005144 FDE cie=00000000 pc=000952a8..00095340
  DW_CFA_advance_loc: 4 to 000952ac
  DW_CFA_def_cfa_offset: 32
  DW_CFA_advance_loc: 8 to 000952b4
  DW_CFA_def_cfa: r29 ofs 32
  DW_CFA_offset: r19 at cfa-16
  DW_CFA_offset: r30 at cfa-24
  DW_CFA_offset: r29 at cfa-32
  DW_CFA_remember_state
  DW_CFA_advance_loc1: 64 to 000952f4
  DW_CFA_def_cfa: r31 ofs 32
  DW_CFA_advance_loc: 8 to 000952fc
  DW_CFA_def_cfa_offset: 0
  DW_CFA_restore: r19
  DW_CFA_restore: r30
  DW_CFA_restore: r29
  DW_CFA_advance_loc: 4 to 00095300
  DW_CFA_restore_state
  DW_CFA_nop
  DW_CFA_nop
  DW_CFA_nop
  DW_CFA_nop

00005170 0000002c 00005174 FDE cie=00000000 pc=00095340..000953d8
  DW_CFA_advance_loc: 4 to 00095344
  DW_CFA_def_cfa_offset: 32
  DW_CFA_advance_loc: 8 to 0009534c
  DW_CFA_def_cfa: r29 ofs 32
  DW_CFA_offset: r19 at cfa-16
  DW_CFA_offset: r30 at cfa-24
  DW_CFA_offset: r29 at cfa-32
  DW_CFA_remember_state
  DW_CFA_advance_loc1: 64 to 0009538c
  DW_CFA_def_cfa: r31 ofs 32
  DW_CFA_advance_loc: 8 to 00095394
  DW_CFA_def_cfa_offset: 0
  DW_CFA_restore: r19
  DW_CFA_restore: r30
  DW_CFA_restore: r29
  DW_CFA_advance_loc: 4 to 00095398
  DW_CFA_restore_state
  DW_CFA_nop
  DW_CFA_nop
  DW_CFA_nop
  DW_CFA_nop

000051a0 0000002c 000051a4 FDE cie=00000000 pc=000953d8..000954c8
  DW_CFA_advance_loc: 20 to 000953ec
  DW_CFA_def_cfa_offset: 48
  DW_CFA_advance_loc: 12 to 000953f8
  DW_CFA_def_cfa: r29 ofs 32
  DW_CFA_offset: r15 at cfa-8
  DW_CFA_offset: r19 at cfa-16
  DW_CFA_offset: r30 at cfa-24
  DW_CFA_offset: r29 at cfa-32
  DW_CFA_remember_state
  DW_CFA_advance_loc1: 100 to 0009545c
  DW_CFA_def_cfa: r31 ofs 48
  DW_CFA_advance_loc: 12 to 00095468
  DW_CFA_def_cfa_offset: 0
  DW_CFA_restore: r15
  DW_CFA_restore: r19
  DW_CFA_restore: r30
  DW_CFA_restore: r29
  DW_CFA_advance_loc: 32 to 00095488
  DW_CFA_restore_state
  DW_CFA_nop

000051d0 0000002c 000051d4 FDE cie=00000000 pc=000954c8..000955a8
  DW_CFA_advance_loc: 20 to 000954dc
  DW_CFA_def_cfa_offset: 48
  DW_CFA_advance_loc: 12 to 000954e8
  DW_CFA_def_cfa: r29 ofs 32
  DW_CFA_offset: r15 at cfa-8
  DW_CFA_offset: r19 at cfa-16
  DW_CFA_offset: r30 at cfa-24
  DW_CFA_offset: r29 at cfa-32
  DW_CFA_remember_state
  DW_CFA_advance_loc1: 84 to 0009553c
  DW_CFA_def_cfa: r31 ofs 48
  DW_CFA_advance_loc: 12 to 00095548
  DW_CFA_def_cfa_offset: 0
  DW_CFA_restore: r15
  DW_CFA_restore: r19
  DW_CFA_restore: r30
  DW_CFA_restore: r29
  DW_CFA_advance_loc: 32 to 00095568
  DW_CFA_restore_state
  DW_CFA_nop

00005200 0000001c 00005204 FDE cie=00000000 pc=000955a8..000955ec
  DW_CFA_advance_loc: 32 to 000955c8
  DW_CFA_def_cfa_offset: 16
  DW_CFA_advance_loc: 4 to 000955cc
  DW_CFA_def_cfa: r29 ofs 16
  DW_CFA_offset: r30 at cfa-8
  DW_CFA_offset: r29 at cfa-16
  DW_CFA_nop
  DW_CFA_nop
  DW_CFA_nop
  DW_CFA_nop

00005220 0000001c 00005224 FDE cie=00000000 pc=000955ec..00095630
  DW_CFA_advance_loc: 32 to 0009560c
  DW_CFA_def_cfa_offset: 16
  DW_CFA_advance_loc: 4 to 00095610
  DW_CFA_def_cfa: r29 ofs 16
  DW_CFA_offset: r30 at cfa-8
  DW_CFA_offset: r29 at cfa-16
  DW_CFA_nop
  DW_CFA_nop
  DW_CFA_nop
  DW_CFA_nop

00005240 0000001c 00005244 FDE cie=00000000 pc=00095630..00095670
  DW_CFA_advance_loc: 28 to 0009564c
  DW_CFA_def_cfa_offset: 16
  DW_CFA_advance_loc: 4 to 00095650
  DW_CFA_def_cfa: r29 ofs 16
  DW_CFA_offset: r30 at cfa-8
  DW_CFA_offset: r29 at cfa-16
  DW_CFA_nop
  DW_CFA_nop
  DW_CFA_nop
  DW_CFA_nop

00005260 00000034 00005264 FDE cie=00000000 pc=00095670..00095790
  DW_CFA_advance_loc: 20 to 00095684
  DW_CFA_def_cfa_offset: 336
  DW_CFA_advance_loc: 12 to 00095690
  DW_CFA_def_cfa: r29 ofs 32
  DW_CFA_offset: r15 at cfa-8
  DW_CFA_offset: r28 at cfa-16
  DW_CFA_offset: r30 at cfa-24
  DW_CFA_offset: r29 at cfa-32
  DW_CFA_remember_state
  DW_CFA_advance_loc1: 176 to 00095740
  DW_CFA_def_cfa: r31 ofs 336
  DW_CFA_advance_loc: 12 to 0009574c
  DW_CFA_def_cfa_offset: 0
  DW_CFA_restore: r15
  DW_CFA_restore: r28
  DW_CFA_restore: r30
  DW_CFA_restore: r29
  DW_CFA_advance_loc: 32 to 0009576c
  DW_CFA_restore_state
  DW_CFA_nop
  DW_CFA_nop
  DW_CFA_nop
  DW_CFA_nop
  DW_CFA_nop
  DW_CFA_nop
  DW_CFA_nop

00005298 00000034 0000529c FDE cie=00000000 pc=00095790..000958c8
  DW_CFA_advance_loc: 20 to 000957a4
  DW_CFA_def_cfa_offset: 352
  DW_CFA_advance_loc: 16 to 000957b4
  DW_CFA_def_cfa: r29 ofs 48
  DW_CFA_offset: r15 at cfa-8
  DW_CFA_offset: r19 at cfa-16
  DW_CFA_offset: r28 at cfa-32
  DW_CFA_offset: r30 at cfa-40
  DW_CFA_offset: r29 at cfa-48
  DW_CFA_remember_state
  DW_CFA_advance_loc1: 196 to 00095878
  DW_CFA_def_cfa: r31 ofs 352
  DW_CFA_advance_loc: 16 to 00095888
  DW_CFA_def_cfa_offset: 0
  DW_CFA_restore: r15
  DW_CFA_restore: r19
  DW_CFA_restore: r28
  DW_CFA_restore: r30
  DW_CFA_restore: r29
  DW_CFA_advance_loc: 32 to 000958a8
  DW_CFA_restore_state
  DW_CFA_nop
  DW_CFA_nop
  DW_CFA_nop
  DW_CFA_nop

000052d0 0000002c 000052d4 FDE cie=00000000 pc=000958c8..00095a24
  DW_CFA_advance_loc: 20 to 000958dc
  DW_CFA_def_cfa_offset: 32
  DW_CFA_advance_loc: 8 to 000958e4
  DW_CFA_def_cfa: r29 ofs 32
  DW_CFA_offset: r15 at cfa-8
  DW_CFA_offset: r28 at cfa-16
  DW_CFA_offset: r30 at cfa-24
  DW_CFA_offset: r29 at cfa-32
  DW_CFA_remember_state
  DW_CFA_advance_loc1: 244 to 000959d8
  DW_CFA_def_cfa: r31 ofs 32
  DW_CFA_advance_loc: 8 to 000959e0
  DW_CFA_def_cfa_offset: 0
  DW_CFA_restore: r15
  DW_CFA_restore: r28
  DW_CFA_restore: r30
  DW_CFA_restore: r29
  DW_CFA_advance_loc: 32 to 00095a00
  DW_CFA_restore_state
  DW_CFA_nop

00005300 00000034 00005304 FDE cie=00000000 pc=00095a24..00095b9c
  DW_CFA_advance_loc: 20 to 00095a38
  DW_CFA_def_cfa_offset: 48
  DW_CFA_advance_loc: 12 to 00095a44
  DW_CFA_def_cfa: r29 ofs 48
  DW_CFA_offset: r15 at cfa-8
  DW_CFA_offset: r19 at cfa-16
  DW_CFA_offset: r28 at cfa-32
  DW_CFA_offset: r30 at cfa-40
  DW_CFA_offset: r29 at cfa-48
  DW_CFA_remember_state
  DW_CFA_advance_loc2: 268 to 00095b50
  DW_CFA_def_cfa: r31 ofs 48
  DW_CFA_advance_loc: 12 to 00095b5c
  DW_CFA_def_cfa_offset: 0
  DW_CFA_restore: r15
  DW_CFA_restore: r19
  DW_CFA_restore: r28
  DW_CFA_restore: r30
  DW_CFA_restore: r29
  DW_CFA_advance_loc: 32 to 00095b7c
  DW_CFA_restore_state
  DW_CFA_nop
  DW_CFA_nop
  DW_CFA_nop
  DW_CFA_nop
  DW_CFA_nop

00005338 0000004c 0000533c FDE cie=00000000 pc=00095b9c..00097350
  DW_CFA_advance_loc: 20 to 00095bb0
  DW_CFA_def_cfa_offset: 112
  DW_CFA_advance_loc: 28 to 00095bcc
  DW_CFA_def_cfa: r29 ofs 112
  DW_CFA_offset: r15 at cfa-8
  DW_CFA_offset: r19 at cfa-16
  DW_CFA_offset: r20 at cfa-24
  DW_CFA_offset: r21 at cfa-32
  DW_CFA_offset: r22 at cfa-40
  DW_CFA_offset: r23 at cfa-48
  DW_CFA_offset: r24 at cfa-56
  DW_CFA_offset: r25 at cfa-64
  DW_CFA_offset: r26 at cfa-72
  DW_CFA_offset: r27 at cfa-80
  DW_CFA_offset: r28 at cfa-96
  DW_CFA_offset: r30 at cfa-104
  DW_CFA_offset: r29 at cfa-112
  DW_CFA_remember_state
  DW_CFA_advance_loc2: 5888 to 000972cc
  DW_CFA_def_cfa: r31 ofs 112
  DW_CFA_advance_loc: 28 to 000972e8
  DW_CFA_def_cfa_offset: 0
  DW_CFA_restore: r15
  DW_CFA_restore: r19
  DW_CFA_restore: r20
  DW_CFA_restore: r21
  DW_CFA_restore: r22
  DW_CFA_restore: r23
  DW_CFA_restore: r24
  DW_CFA_restore: r25
  DW_CFA_restore: r26
  DW_CFA_restore: r27
  DW_CFA_restore: r28
  DW_CFA_restore: r30
  DW_CFA_restore: r29
  DW_CFA_advance_loc: 32 to 00097308
  DW_CFA_restore_state
  DW_CFA_nop
  DW_CFA_nop
  DW_CFA_nop
  DW_CFA_nop
  DW_CFA_nop

00005388 0000003c 0000538c FDE cie=00000000 pc=00097350..00097570
  DW_CFA_advance_loc: 4 to 00097354
  DW_CFA_def_cfa_offset: 64
  DW_CFA_advance_loc: 16 to 00097364
  DW_CFA_def_cfa: r29 ofs 64
  DW_CFA_offset: r19 at cfa-8
  DW_CFA_offset: r20 at cfa-16
  DW_CFA_offset: r21 at cfa-24
  DW_CFA_offset: r22 at cfa-32
  DW_CFA_offset: r23 at cfa-40
  DW_CFA_offset: r24 at cfa-48
  DW_CFA_offset: r30 at cfa-56
  DW_CFA_offset: r29 at cfa-64
  DW_CFA_remember_state
  DW_CFA_advance_loc2: 452 to 00097528
  DW_CFA_def_cfa: r31 ofs 64
  DW_CFA_advance_loc: 16 to 00097538
  DW_CFA_def_cfa_offset: 0
  DW_CFA_restore: r19
  DW_CFA_restore: r20
  DW_CFA_restore: r21
  DW_CFA_restore: r22
  DW_CFA_restore: r23
  DW_CFA_restore: r24
  DW_CFA_restore: r30
  DW_CFA_restore: r29
  DW_CFA_advance_loc: 4 to 0009753c
  DW_CFA_restore_state
  DW_CFA_nop
  DW_CFA_nop
  DW_CFA_nop
  DW_CFA_nop

000053c8 00000044 000053cc FDE cie=00000000 pc=00097570..00097b0c
  DW_CFA_advance_loc: 4 to 00097574
  DW_CFA_def_cfa_offset: 96
  DW_CFA_advance_loc: 24 to 0009758c
  DW_CFA_def_cfa: r29 ofs 96
  DW_CFA_offset: r19 at cfa-8
  DW_CFA_offset: r20 at cfa-16
  DW_CFA_offset: r21 at cfa-24
  DW_CFA_offset: r22 at cfa-32
  DW_CFA_offset: r23 at cfa-40
  DW_CFA_offset: r24 at cfa-48
  DW_CFA_offset: r25 at cfa-56
  DW_CFA_offset: r26 at cfa-64
  DW_CFA_offset: r27 at cfa-72
  DW_CFA_offset: r28 at cfa-80
  DW_CFA_offset: r30 at cfa-88
  DW_CFA_offset: r29 at cfa-96
  DW_CFA_advance_loc2: 1380 to 00097af0
  DW_CFA_def_cfa: r31 ofs 96
  DW_CFA_advance_loc: 24 to 00097b08
  DW_CFA_def_cfa_offset: 0
  DW_CFA_restore: r19
  DW_CFA_restore: r20
  DW_CFA_restore: r21
  DW_CFA_restore: r22
  DW_CFA_restore: r23
  DW_CFA_restore: r24
  DW_CFA_restore: r25
  DW_CFA_restore: r26
  DW_CFA_restore: r27
  DW_CFA_restore: r28
  DW_CFA_restore: r30
  DW_CFA_restore: r29
  DW_CFA_nop
  DW_CFA_nop
  DW_CFA_nop

00005410 0000002c 00005414 FDE cie=00000000 pc=00097b0c..00097c1c
  DW_CFA_advance_loc: 20 to 00097b20
  DW_CFA_def_cfa_offset: 64
  DW_CFA_advance_loc: 16 to 00097b30
  DW_CFA_def_cfa: r29 ofs 48
  DW_CFA_offset: r15 at cfa-8
  DW_CFA_offset: r19 at cfa-16
  DW_CFA_offset: r20 at cfa-32
  DW_CFA_offset: r30 at cfa-40
  DW_CFA_offset: r29 at cfa-48
  DW_CFA_advance_loc1: 188 to 00097bec
  DW_CFA_def_cfa: r31 ofs 64
  DW_CFA_advance_loc: 16 to 00097bfc
  DW_CFA_def_cfa_offset: 0
  DW_CFA_restore: r15
  DW_CFA_restore: r19
  DW_CFA_restore: r20
  DW_CFA_restore: r30
  DW_CFA_restore: r29
  DW_CFA_nop

00005440 00000024 00005444 FDE cie=00000000 pc=00097c1c..00097c50
  DW_CFA_advance_loc: 12 to 00097c28
  DW_CFA_def_cfa_offset: 32
  DW_CFA_advance_loc: 8 to 00097c30
  DW_CFA_def_cfa: r29 ofs 32
  DW_CFA_offset: r19 at cfa-16
  DW_CFA_offset: r30 at cfa-24
  DW_CFA_offset: r29 at cfa-32
  DW_CFA_advance_loc: 20 to 00097c44
  DW_CFA_def_cfa: r31 ofs 32
  DW_CFA_advance_loc: 8 to 00097c4c
  DW_CFA_def_cfa_offset: 0
  DW_CFA_restore: r19
  DW_CFA_restore: r30
  DW_CFA_restore: r29

00005468 00000014 0000546c FDE cie=00000000 pc=00097c50..00097db8
  DW_CFA_nop
  DW_CFA_nop
  DW_CFA_nop
  DW_CFA_nop
  DW_CFA_nop
  DW_CFA_nop
  DW_CFA_nop

00005480 00000044 00005484 FDE cie=00000000 pc=00097db8..00097f6c
  DW_CFA_advance_loc: 4 to 00097dbc
  DW_CFA_def_cfa_offset: 112
  DW_CFA_advance_loc: 28 to 00097dd8
  DW_CFA_def_cfa: r29 ofs 96
  DW_CFA_offset: r19 at cfa-8
  DW_CFA_offset: r20 at cfa-16
  DW_CFA_offset: r21 at cfa-24
  DW_CFA_offset: r22 at cfa-32
  DW_CFA_offset: r23 at cfa-40
  DW_CFA_offset: r24 at cfa-48
  DW_CFA_offset: r25 at cfa-56
  DW_CFA_offset: r26 at cfa-64
  DW_CFA_offset: r27 at cfa-72
  DW_CFA_offset: r28 at cfa-80
  DW_CFA_offset: r30 at cfa-88
  DW_CFA_offset: r29 at cfa-96
  DW_CFA_remember_state
  DW_CFA_advance_loc2: 332 to 00097f24
  DW_CFA_def_cfa: r31 ofs 112
  DW_CFA_advance_loc: 28 to 00097f40
  DW_CFA_def_cfa_offset: 0
  DW_CFA_restore: r19
  DW_CFA_restore: r20
  DW_CFA_restore: r21
  DW_CFA_restore: r22
  DW_CFA_restore: r23
  DW_CFA_restore: r24
  DW_CFA_restore: r25
  DW_CFA_restore: r26
  DW_CFA_restore: r27
  DW_CFA_restore: r28
  DW_CFA_restore: r30
  DW_CFA_restore: r29
  DW_CFA_advance_loc: 4 to 00097f44
  DW_CFA_restore_state

000054c8 0000004c 000054cc FDE cie=00000000 pc=00097f6c..00098364
  DW_CFA_advance_loc: 20 to 00097f80
  DW_CFA_def_cfa_offset: 112
  DW_CFA_advance_loc: 28 to 00097f9c
  DW_CFA_def_cfa: r29 ofs 112
  DW_CFA_offset: r15 at cfa-8
  DW_CFA_offset: r19 at cfa-16
  DW_CFA_offset: r20 at cfa-24
  DW_CFA_offset: r21 at cfa-32
  DW_CFA_offset: r22 at cfa-40
  DW_CFA_offset: r23 at cfa-48
  DW_CFA_offset: r24 at cfa-56
  DW_CFA_offset: r25 at cfa-64
  DW_CFA_offset: r26 at cfa-72
  DW_CFA_offset: r27 at cfa-80
  DW_CFA_offset: r28 at cfa-96
  DW_CFA_offset: r30 at cfa-104
  DW_CFA_offset: r29 at cfa-112
  DW_CFA_remember_state
  DW_CFA_advance_loc2: 580 to 000981e0
  DW_CFA_def_cfa: r31 ofs 112
  DW_CFA_advance_loc: 28 to 000981fc
  DW_CFA_def_cfa_offset: 0
  DW_CFA_restore: r15
  DW_CFA_restore: r19
  DW_CFA_restore: r20
  DW_CFA_restore: r21
  DW_CFA_restore: r22
  DW_CFA_restore: r23
  DW_CFA_restore: r24
  DW_CFA_restore: r25
  DW_CFA_restore: r26
  DW_CFA_restore: r27
  DW_CFA_restore: r28
  DW_CFA_restore: r30
  DW_CFA_restore: r29
  DW_CFA_advance_loc: 32 to 0009821c
  DW_CFA_restore_state
  DW_CFA_nop
  DW_CFA_nop
  DW_CFA_nop
  DW_CFA_nop
  DW_CFA_nop

00005518 0000002c 0000551c FDE cie=00000000 pc=00098364..0009844c
  DW_CFA_advance_loc: 20 to 00098378
  DW_CFA_def_cfa_offset: 256
  DW_CFA_advance_loc: 12 to 00098384
  DW_CFA_def_cfa: r29 ofs 32
  DW_CFA_offset: r15 at cfa-16
  DW_CFA_offset: r30 at cfa-24
  DW_CFA_offset: r29 at cfa-32
  DW_CFA_advance_loc1: 156 to 00098420
  DW_CFA_def_cfa: r31 ofs 256
  DW_CFA_advance_loc: 12 to 0009842c
  DW_CFA_def_cfa_offset: 0
  DW_CFA_restore: r15
  DW_CFA_restore: r30
  DW_CFA_restore: r29
  DW_CFA_nop
  DW_CFA_nop
  DW_CFA_nop
  DW_CFA_nop
  DW_CFA_nop

00005548 00000014 0000554c FDE cie=00000000 pc=0009844c..0009847c
  DW_CFA_nop
  DW_CFA_nop
  DW_CFA_nop
  DW_CFA_nop
  DW_CFA_nop
  DW_CFA_nop
  DW_CFA_nop

00005560 0000002c 00005564 FDE cie=00000000 pc=0009847c..00098528
  DW_CFA_advance_loc: 20 to 00098490
  DW_CFA_def_cfa_offset: 48
  DW_CFA_advance_loc: 12 to 0009849c
  DW_CFA_def_cfa: r29 ofs 32
  DW_CFA_offset: r15 at cfa-16
  DW_CFA_offset: r30 at cfa-24
  DW_CFA_offset: r29 at cfa-32
  DW_CFA_remember_state
  DW_CFA_advance_loc1: 88 to 000984f4
  DW_CFA_def_cfa: r31 ofs 48
  DW_CFA_advance_loc: 12 to 00098500
  DW_CFA_def_cfa_offset: 0
  DW_CFA_restore: r15
  DW_CFA_restore: r30
  DW_CFA_restore: r29
  DW_CFA_advance_loc: 32 to 00098520
  DW_CFA_restore_state
  DW_CFA_nop
  DW_CFA_nop
  DW_CFA_nop
  DW_CFA_nop

00005590 0000002c 00005594 FDE cie=00000000 pc=00098528..00098600
  DW_CFA_advance_loc: 20 to 0009853c
  DW_CFA_def_cfa_offset: 48
  DW_CFA_advance_loc: 12 to 00098548
  DW_CFA_def_cfa: r29 ofs 32
  DW_CFA_offset: r15 at cfa-8
  DW_CFA_offset: r19 at cfa-16
  DW_CFA_offset: r30 at cfa-24
  DW_CFA_offset: r29 at cfa-32
  DW_CFA_advance_loc1: 140 to 000985d4
  DW_CFA_def_cfa: r31 ofs 48
  DW_CFA_advance_loc: 12 to 000985e0
  DW_CFA_def_cfa_offset: 0
  DW_CFA_restore: r15
  DW_CFA_restore: r19
  DW_CFA_restore: r30
  DW_CFA_restore: r29
  DW_CFA_nop
  DW_CFA_nop
  DW_CFA_nop
  DW_CFA_nop

000055c0 00000034 000055c4 FDE cie=00000000 pc=00098600..00098744
  DW_CFA_advance_loc: 20 to 00098614
  DW_CFA_def_cfa_offset: 96
  DW_CFA_advance_loc: 16 to 00098624
  DW_CFA_def_cfa: r29 ofs 48
  DW_CFA_offset: r15 at cfa-8
  DW_CFA_offset: r19 at cfa-16
  DW_CFA_offset: r20 at cfa-24
  DW_CFA_offset: r21 at cfa-32
  DW_CFA_offset: r30 at cfa-40
  DW_CFA_offset: r29 at cfa-48
  DW_CFA_advance_loc1: 240 to 00098714
  DW_CFA_def_cfa: r31 ofs 96
  DW_CFA_advance_loc: 16 to 00098724
  DW_CFA_def_cfa_offset: 0
  DW_CFA_restore: r15
  DW_CFA_restore: r19
  DW_CFA_restore: r20
  DW_CFA_restore: r21
  DW_CFA_restore: r30
  DW_CFA_restore: r29
  DW_CFA_nop
  DW_CFA_nop
  DW_CFA_nop
  DW_CFA_nop
  DW_CFA_nop
  DW_CFA_nop

000055f8 0000004c 000055fc FDE cie=00000000 pc=00098744..0009a270
  DW_CFA_advance_loc: 20 to 00098758
  DW_CFA_def_cfa_offset: 112
  DW_CFA_advance_loc: 28 to 00098774
  DW_CFA_def_cfa: r29 ofs 112
  DW_CFA_offset: r15 at cfa-8
  DW_CFA_offset: r19 at cfa-16
  DW_CFA_offset: r20 at cfa-24
  DW_CFA_offset: r21 at cfa-32
  DW_CFA_offset: r22 at cfa-40
  DW_CFA_offset: r23 at cfa-48
  DW_CFA_offset: r24 at cfa-56
  DW_CFA_offset: r25 at cfa-64
  DW_CFA_offset: r26 at cfa-72
  DW_CFA_offset: r27 at cfa-80
  DW_CFA_offset: r28 at cfa-96
  DW_CFA_offset: r30 at cfa-104
  DW_CFA_offset: r29 at cfa-112
  DW_CFA_remember_state
  DW_CFA_advance_loc2: 6816 to 0009a214
  DW_CFA_def_cfa: r31 ofs 112
  DW_CFA_advance_loc: 28 to 0009a230
  DW_CFA_def_cfa_offset: 0
  DW_CFA_restore: r15
  DW_CFA_restore: r19
  DW_CFA_restore: r20
  DW_CFA_restore: r21
  DW_CFA_restore: r22
  DW_CFA_restore: r23
  DW_CFA_restore: r24
  DW_CFA_restore: r25
  DW_CFA_restore: r26
  DW_CFA_restore: r27
  DW_CFA_restore: r28
  DW_CFA_restore: r30
  DW_CFA_restore: r29
  DW_CFA_advance_loc: 32 to 0009a250
  DW_CFA_restore_state
  DW_CFA_nop
  DW_CFA_nop
  DW_CFA_nop
  DW_CFA_nop
  DW_CFA_nop

00005648 0000002c 0000564c FDE cie=00000000 pc=0009a270..0009a370
  DW_CFA_advance_loc: 20 to 0009a284
  DW_CFA_def_cfa_offset: 32
  DW_CFA_advance_loc: 8 to 0009a28c
  DW_CFA_def_cfa: r29 ofs 32
  DW_CFA_offset: r15 at cfa-8
  DW_CFA_offset: r28 at cfa-16
  DW_CFA_offset: r30 at cfa-24
  DW_CFA_offset: r29 at cfa-32
  DW_CFA_advance_loc1: 188 to 0009a348
  DW_CFA_def_cfa: r31 ofs 32
  DW_CFA_advance_loc: 8 to 0009a350
  DW_CFA_def_cfa_offset: 0
  DW_CFA_restore: r15
  DW_CFA_restore: r28
  DW_CFA_restore: r30
  DW_CFA_restore: r29
  DW_CFA_nop
  DW_CFA_nop
  DW_CFA_nop
  DW_CFA_nop

00005678 00000034 0000567c FDE cie=00000000 pc=0009a370..0009a420
  DW_CFA_advance_loc: 20 to 0009a384
  DW_CFA_def_cfa_offset: 160
  DW_CFA_advance_loc: 12 to 0009a390
  DW_CFA_def_cfa: r29 ofs 32
  DW_CFA_offset: r15 at cfa-8
  DW_CFA_offset: r19 at cfa-16
  DW_CFA_offset: r30 at cfa-24
  DW_CFA_offset: r29 at cfa-32
  DW_CFA_remember_state
  DW_CFA_advance_loc1: 92 to 0009a3ec
  DW_CFA_def_cfa: r31 ofs 160
  DW_CFA_advance_loc: 12 to 0009a3f8
  DW_CFA_def_cfa_offset: 0
  DW_CFA_restore: r15
  DW_CFA_restore: r19
  DW_CFA_restore: r30
  DW_CFA_restore: r29
  DW_CFA_advance_loc: 32 to 0009a418
  DW_CFA_restore_state
  DW_CFA_nop
  DW_CFA_nop
  DW_CFA_nop
  DW_CFA_nop
  DW_CFA_nop
  DW_CFA_nop
  DW_CFA_nop

000056b0 00000024 000056b4 FDE cie=00000000 pc=0009a420..0009a470
  DW_CFA_advance_loc: 4 to 0009a424
  DW_CFA_def_cfa_offset: 32
  DW_CFA_advance_loc: 8 to 0009a42c
  DW_CFA_def_cfa: r29 ofs 32
  DW_CFA_offset: r19 at cfa-16
  DW_CFA_offset: r30 at cfa-24
  DW_CFA_offset: r29 at cfa-32
  DW_CFA_advance_loc: 56 to 0009a464
  DW_CFA_def_cfa: r31 ofs 32
  DW_CFA_advance_loc: 8 to 0009a46c
  DW_CFA_def_cfa_offset: 0
  DW_CFA_restore: r19
  DW_CFA_restore: r30
  DW_CFA_restore: r29

000056d8 00000024 000056dc FDE cie=00000000 pc=0009a470..0009a4b4
  DW_CFA_advance_loc: 4 to 0009a474
  DW_CFA_def_cfa_offset: 32
  DW_CFA_advance_loc: 8 to 0009a47c
  DW_CFA_def_cfa: r29 ofs 32
  DW_CFA_offset: r19 at cfa-16
  DW_CFA_offset: r30 at cfa-24
  DW_CFA_offset: r29 at cfa-32
  DW_CFA_advance_loc: 44 to 0009a4a8
  DW_CFA_def_cfa: r31 ofs 32
  DW_CFA_advance_loc: 8 to 0009a4b0
  DW_CFA_def_cfa_offset: 0
  DW_CFA_restore: r19
  DW_CFA_restore: r30
  DW_CFA_restore: r29

00005700 00000024 00005704 FDE cie=00000000 pc=0009a4b4..0009a4f8
  DW_CFA_advance_loc: 4 to 0009a4b8
  DW_CFA_def_cfa_offset: 32
  DW_CFA_advance_loc: 8 to 0009a4c0
  DW_CFA_def_cfa: r29 ofs 32
  DW_CFA_offset: r19 at cfa-16
  DW_CFA_offset: r30 at cfa-24
  DW_CFA_offset: r29 at cfa-32
  DW_CFA_advance_loc: 44 to 0009a4ec
  DW_CFA_def_cfa: r31 ofs 32
  DW_CFA_advance_loc: 8 to 0009a4f4
  DW_CFA_def_cfa_offset: 0
  DW_CFA_restore: r19
  DW_CFA_restore: r30
  DW_CFA_restore: r29

00005728 00000024 0000572c FDE cie=00000000 pc=0009a4f8..0009a53c
  DW_CFA_advance_loc: 4 to 0009a4fc
  DW_CFA_def_cfa_offset: 32
  DW_CFA_advance_loc: 8 to 0009a504
  DW_CFA_def_cfa: r29 ofs 32
  DW_CFA_offset: r19 at cfa-16
  DW_CFA_offset: r30 at cfa-24
  DW_CFA_offset: r29 at cfa-32
  DW_CFA_advance_loc: 44 to 0009a530
  DW_CFA_def_cfa: r31 ofs 32
  DW_CFA_advance_loc: 8 to 0009a538
  DW_CFA_def_cfa_offset: 0
  DW_CFA_restore: r19
  DW_CFA_restore: r30
  DW_CFA_restore: r29

00005750 0000002c 00005754 FDE cie=00000000 pc=0009a53c..0009a660
  DW_CFA_advance_loc: 20 to 0009a550
  DW_CFA_def_cfa_offset: 240
  DW_CFA_advance_loc: 12 to 0009a55c
  DW_CFA_def_cfa: r29 ofs 32
  DW_CFA_offset: r15 at cfa-8
  DW_CFA_offset: r19 at cfa-16
  DW_CFA_offset: r30 at cfa-24
  DW_CFA_offset: r29 at cfa-32
  DW_CFA_advance_loc1: 216 to 0009a634
  DW_CFA_def_cfa: r31 ofs 240
  DW_CFA_advance_loc: 12 to 0009a640
  DW_CFA_def_cfa_offset: 0
  DW_CFA_restore: r15
  DW_CFA_restore: r19
  DW_CFA_restore: r30
  DW_CFA_restore: r29
  DW_CFA_nop
  DW_CFA_nop

00005780 0000002c 00005784 FDE cie=00000000 pc=0009a660..0009a6b8
  DW_CFA_advance_loc: 4 to 0009a664
  DW_CFA_def_cfa_offset: 32
  DW_CFA_advance_loc: 8 to 0009a66c
  DW_CFA_def_cfa: r29 ofs 32
  DW_CFA_offset: r19 at cfa-16
  DW_CFA_offset: r30 at cfa-24
  DW_CFA_offset: r29 at cfa-32
  DW_CFA_advance_loc1: 64 to 0009a6ac
  DW_CFA_def_cfa: r31 ofs 32
  DW_CFA_advance_loc: 8 to 0009a6b4
  DW_CFA_def_cfa_offset: 0
  DW_CFA_restore: r19
  DW_CFA_restore: r30
  DW_CFA_restore: r29
  DW_CFA_nop
  DW_CFA_nop
  DW_CFA_nop
  DW_CFA_nop
  DW_CFA_nop
  DW_CFA_nop
  DW_CFA_nop

000057b0 00000024 000057b4 FDE cie=00000000 pc=0009a6b8..0009a6f8
  DW_CFA_advance_loc: 4 to 0009a6bc
  DW_CFA_def_cfa_offset: 32
  DW_CFA_advance_loc: 8 to 0009a6c4
  DW_CFA_def_cfa: r29 ofs 32
  DW_CFA_offset: r19 at cfa-16
  DW_CFA_offset: r30 at cfa-24
  DW_CFA_offset: r29 at cfa-32
  DW_CFA_advance_loc: 40 to 0009a6ec
  DW_CFA_def_cfa: r31 ofs 32
  DW_CFA_advance_loc: 8 to 0009a6f4
  DW_CFA_def_cfa_offset: 0
  DW_CFA_restore: r19
  DW_CFA_restore: r30
  DW_CFA_restore: r29

000057d8 00000024 000057dc FDE cie=00000000 pc=0009a6f8..0009a738
  DW_CFA_advance_loc: 4 to 0009a6fc
  DW_CFA_def_cfa_offset: 32
  DW_CFA_advance_loc: 8 to 0009a704
  DW_CFA_def_cfa: r29 ofs 32
  DW_CFA_offset: r19 at cfa-16
  DW_CFA_offset: r30 at cfa-24
  DW_CFA_offset: r29 at cfa-32
  DW_CFA_advance_loc: 40 to 0009a72c
  DW_CFA_def_cfa: r31 ofs 32
  DW_CFA_advance_loc: 8 to 0009a734
  DW_CFA_def_cfa_offset: 0
  DW_CFA_restore: r19
  DW_CFA_restore: r30
  DW_CFA_restore: r29

00005800 00000024 00005804 FDE cie=00000000 pc=0009a738..0009a77c
  DW_CFA_advance_loc: 4 to 0009a73c
  DW_CFA_def_cfa_offset: 32
  DW_CFA_advance_loc: 8 to 0009a744
  DW_CFA_def_cfa: r29 ofs 32
  DW_CFA_offset: r19 at cfa-16
  DW_CFA_offset: r30 at cfa-24
  DW_CFA_offset: r29 at cfa-32
  DW_CFA_advance_loc: 44 to 0009a770
  DW_CFA_def_cfa: r31 ofs 32
  DW_CFA_advance_loc: 8 to 0009a778
  DW_CFA_def_cfa_offset: 0
  DW_CFA_restore: r19
  DW_CFA_restore: r30
  DW_CFA_restore: r29

00005828 00000024 0000582c FDE cie=00000000 pc=0009a77c..0009a7cc
  DW_CFA_advance_loc: 4 to 0009a780
  DW_CFA_def_cfa_offset: 32
  DW_CFA_advance_loc: 8 to 0009a788
  DW_CFA_def_cfa: r29 ofs 32
  DW_CFA_offset: r19 at cfa-16
  DW_CFA_offset: r30 at cfa-24
  DW_CFA_offset: r29 at cfa-32
  DW_CFA_advance_loc: 56 to 0009a7c0
  DW_CFA_def_cfa: r31 ofs 32
  DW_CFA_advance_loc: 8 to 0009a7c8
  DW_CFA_def_cfa_offset: 0
  DW_CFA_restore: r19
  DW_CFA_restore: r30
  DW_CFA_restore: r29

00005850 00000024 00005854 FDE cie=00000000 pc=0009a7cc..0009a808
  DW_CFA_advance_loc: 4 to 0009a7d0
  DW_CFA_def_cfa_offset: 32
  DW_CFA_advance_loc: 8 to 0009a7d8
  DW_CFA_def_cfa: r29 ofs 32
  DW_CFA_offset: r19 at cfa-16
  DW_CFA_offset: r30 at cfa-24
  DW_CFA_offset: r29 at cfa-32
  DW_CFA_advance_loc: 36 to 0009a7fc
  DW_CFA_def_cfa: r31 ofs 32
  DW_CFA_advance_loc: 8 to 0009a804
  DW_CFA_def_cfa_offset: 0
  DW_CFA_restore: r19
  DW_CFA_restore: r30
  DW_CFA_restore: r29

00005878 00000024 0000587c FDE cie=00000000 pc=0009a808..0009a854
  DW_CFA_advance_loc: 4 to 0009a80c
  DW_CFA_def_cfa_offset: 32
  DW_CFA_advance_loc: 8 to 0009a814
  DW_CFA_def_cfa: r29 ofs 32
  DW_CFA_offset: r19 at cfa-16
  DW_CFA_offset: r30 at cfa-24
  DW_CFA_offset: r29 at cfa-32
  DW_CFA_advance_loc: 52 to 0009a848
  DW_CFA_def_cfa: r31 ofs 32
  DW_CFA_advance_loc: 8 to 0009a850
  DW_CFA_def_cfa_offset: 0
  DW_CFA_restore: r19
  DW_CFA_restore: r30
  DW_CFA_restore: r29

000058a0 00000014 000058a4 FDE cie=00000000 pc=0009a854..0009a858
  DW_CFA_nop
  DW_CFA_nop
  DW_CFA_nop
  DW_CFA_nop
  DW_CFA_nop
  DW_CFA_nop
  DW_CFA_nop

000058b8 00000014 000058bc FDE cie=00000000 pc=0009a858..0009a890
  DW_CFA_nop
  DW_CFA_nop
  DW_CFA_nop
  DW_CFA_nop
  DW_CFA_nop
  DW_CFA_nop
  DW_CFA_nop

000058d0 0000004c 000058d4 FDE cie=00000000 pc=0009a890..0009aafc
  DW_CFA_advance_loc: 20 to 0009a8a4
  DW_CFA_def_cfa_offset: 464
  DW_CFA_advance_loc: 32 to 0009a8c4
  DW_CFA_def_cfa: r29 ofs 112
  DW_CFA_offset: r15 at cfa-8
  DW_CFA_offset: r19 at cfa-16
  DW_CFA_offset: r20 at cfa-24
  DW_CFA_offset: r21 at cfa-32
  DW_CFA_offset: r22 at cfa-40
  DW_CFA_offset: r23 at cfa-48
  DW_CFA_offset: r24 at cfa-56
  DW_CFA_offset: r25 at cfa-64
  DW_CFA_offset: r26 at cfa-72
  DW_CFA_offset: r27 at cfa-80
  DW_CFA_offset: r28 at cfa-96
  DW_CFA_offset: r30 at cfa-104
  DW_CFA_offset: r29 at cfa-112
  DW_CFA_advance_loc2: 504 to 0009aabc
  DW_CFA_def_cfa: r31 ofs 464
  DW_CFA_advance_loc: 32 to 0009aadc
  DW_CFA_def_cfa_offset: 0
  DW_CFA_restore: r15
  DW_CFA_restore: r19
  DW_CFA_restore: r20
  DW_CFA_restore: r21
  DW_CFA_restore: r22
  DW_CFA_restore: r23
  DW_CFA_restore: r24
  DW_CFA_restore: r25
  DW_CFA_restore: r26
  DW_CFA_restore: r27
  DW_CFA_restore: r28
  DW_CFA_restore: r30
  DW_CFA_restore: r29
  DW_CFA_nop
  DW_CFA_nop
  DW_CFA_nop
  DW_CFA_nop
  DW_CFA_nop
  DW_CFA_nop

00005920 0000002c 00005924 FDE cie=00000000 pc=0009aafc..0009aba4
  DW_CFA_advance_loc: 20 to 0009ab10
  DW_CFA_def_cfa_offset: 288
  DW_CFA_advance_loc: 12 to 0009ab1c
  DW_CFA_def_cfa: r29 ofs 32
  DW_CFA_offset: r15 at cfa-8
  DW_CFA_offset: r28 at cfa-16
  DW_CFA_offset: r30 at cfa-24
  DW_CFA_offset: r29 at cfa-32
  DW_CFA_advance_loc1: 92 to 0009ab78
  DW_CFA_def_cfa: r31 ofs 288
  DW_CFA_advance_loc: 12 to 0009ab84
  DW_CFA_def_cfa_offset: 0
  DW_CFA_restore: r15
  DW_CFA_restore: r28
  DW_CFA_restore: r30
  DW_CFA_restore: r29
  DW_CFA_nop
  DW_CFA_nop

00005950 0000002c 00005954 FDE cie=00000000 pc=0009aba4..0009abf8
  DW_CFA_advance_loc: 4 to 0009aba8
  DW_CFA_def_cfa_offset: 48
  DW_CFA_advance_loc: 12 to 0009abb4
  DW_CFA_def_cfa: r29 ofs 48
  DW_CFA_offset: r19 at cfa-8
  DW_CFA_offset: r20 at cfa-16
  DW_CFA_offset: r21 at cfa-32
  DW_CFA_offset: r30 at cfa-40
  DW_CFA_offset: r29 at cfa-48
  DW_CFA_advance_loc: 52 to 0009abe8
  DW_CFA_def_cfa: r31 ofs 48
  DW_CFA_advance_loc: 12 to 0009abf4
  DW_CFA_def_cfa_offset: 0
  DW_CFA_restore: r19
  DW_CFA_restore: r20
  DW_CFA_restore: r21
  DW_CFA_restore: r30
  DW_CFA_restore: r29
  DW_CFA_nop
  DW_CFA_nop

00005980 0000002c 00005984 FDE cie=00000000 pc=0009abf8..0009acbc
  DW_CFA_advance_loc: 20 to 0009ac0c
  DW_CFA_def_cfa_offset: 48
  DW_CFA_advance_loc: 12 to 0009ac18
  DW_CFA_def_cfa: r29 ofs 48
  DW_CFA_offset: r15 at cfa-8
  DW_CFA_offset: r19 at cfa-16
  DW_CFA_offset: r28 at cfa-32
  DW_CFA_offset: r30 at cfa-40
  DW_CFA_offset: r29 at cfa-48
  DW_CFA_advance_loc1: 120 to 0009ac90
  DW_CFA_def_cfa: r31 ofs 48
  DW_CFA_advance_loc: 12 to 0009ac9c
  DW_CFA_def_cfa_offset: 0
  DW_CFA_restore: r15
  DW_CFA_restore: r19
  DW_CFA_restore: r28
  DW_CFA_restore: r30
  DW_CFA_restore: r29
  DW_CFA_nop

000059b0 00000034 000059b4 FDE cie=00000000 pc=0009acbc..0009af68
  DW_CFA_advance_loc: 20 to 0009acd0
  DW_CFA_def_cfa_offset: 320
  DW_CFA_advance_loc: 20 to 0009ace4
  DW_CFA_def_cfa: r29 ofs 64
  DW_CFA_offset: r15 at cfa-8
  DW_CFA_offset: r19 at cfa-16
  DW_CFA_offset: r20 at cfa-24
  DW_CFA_offset: r21 at cfa-32
  DW_CFA_offset: r28 at cfa-48
  DW_CFA_offset: r30 at cfa-56
  DW_CFA_offset: r29 at cfa-64
  DW_CFA_advance_loc2: 592 to 0009af34
  DW_CFA_def_cfa: r31 ofs 320
  DW_CFA_advance_loc: 20 to 0009af48
  DW_CFA_def_cfa_offset: 0
  DW_CFA_restore: r15
  DW_CFA_restore: r19
  DW_CFA_restore: r20
  DW_CFA_restore: r21
  DW_CFA_restore: r28
  DW_CFA_restore: r30
  DW_CFA_restore: r29

000059e8 0000002c 000059ec FDE cie=00000000 pc=0009af68..0009b034
  DW_CFA_advance_loc: 20 to 0009af7c
  DW_CFA_def_cfa_offset: 80
  DW_CFA_advance_loc: 16 to 0009af8c
  DW_CFA_def_cfa: r29 ofs 48
  DW_CFA_offset: r15 at cfa-8
  DW_CFA_offset: r19 at cfa-16
  DW_CFA_offset: r20 at cfa-32
  DW_CFA_offset: r30 at cfa-40
  DW_CFA_offset: r29 at cfa-48
  DW_CFA_advance_loc1: 120 to 0009b004
  DW_CFA_def_cfa: r31 ofs 80
  DW_CFA_advance_loc: 16 to 0009b014
  DW_CFA_def_cfa_offset: 0
  DW_CFA_restore: r15
  DW_CFA_restore: r19
  DW_CFA_restore: r20
  DW_CFA_restore: r30
  DW_CFA_restore: r29
  DW_CFA_nop

00005a18 0000002c 00005a1c FDE cie=00000000 pc=0009b034..0009b0e0
  DW_CFA_advance_loc: 20 to 0009b048
  DW_CFA_def_cfa_offset: 80
  DW_CFA_advance_loc: 16 to 0009b058
  DW_CFA_def_cfa: r29 ofs 48
  DW_CFA_offset: r15 at cfa-8
  DW_CFA_offset: r19 at cfa-16
  DW_CFA_offset: r20 at cfa-32
  DW_CFA_offset: r30 at cfa-40
  DW_CFA_offset: r29 at cfa-48
  DW_CFA_advance_loc1: 88 to 0009b0b0
  DW_CFA_def_cfa: r31 ofs 80
  DW_CFA_advance_loc: 16 to 0009b0c0
  DW_CFA_def_cfa_offset: 0
  DW_CFA_restore: r15
  DW_CFA_restore: r19
  DW_CFA_restore: r20
  DW_CFA_restore: r30
  DW_CFA_restore: r29
  DW_CFA_nop

00005a48 0000001c 00005a4c FDE cie=00000000 pc=0009b0e0..0009b114
  DW_CFA_advance_loc: 4 to 0009b0e4
  DW_CFA_def_cfa_offset: 64
  DW_CFA_advance_loc: 12 to 0009b0f0
  DW_CFA_def_cfa: r29 ofs 32
  DW_CFA_offset: r19 at cfa-16
  DW_CFA_offset: r30 at cfa-24
  DW_CFA_offset: r29 at cfa-32
  DW_CFA_nop
  DW_CFA_nop

00005a68 0000001c 00005a6c FDE cie=00000000 pc=0009b114..0009b148
  DW_CFA_advance_loc: 4 to 0009b118
  DW_CFA_def_cfa_offset: 64
  DW_CFA_advance_loc: 12 to 0009b124
  DW_CFA_def_cfa: r29 ofs 32
  DW_CFA_offset: r19 at cfa-16
  DW_CFA_offset: r30 at cfa-24
  DW_CFA_offset: r29 at cfa-32
  DW_CFA_nop
  DW_CFA_nop

00005a88 00000034 00005a8c FDE cie=00000000 pc=0009b148..0009b25c
  DW_CFA_advance_loc: 20 to 0009b15c
  DW_CFA_def_cfa_offset: 336
  DW_CFA_advance_loc: 16 to 0009b16c
  DW_CFA_def_cfa: r29 ofs 48
  DW_CFA_offset: r15 at cfa-8
  DW_CFA_offset: r19 at cfa-16
  DW_CFA_offset: r20 at cfa-24
  DW_CFA_offset: r28 at cfa-32
  DW_CFA_offset: r30 at cfa-40
  DW_CFA_offset: r29 at cfa-48
  DW_CFA_advance_loc1: 192 to 0009b22c
  DW_CFA_def_cfa: r31 ofs 336
  DW_CFA_advance_loc: 16 to 0009b23c
  DW_CFA_def_cfa_offset: 0
  DW_CFA_restore: r15
  DW_CFA_restore: r19
  DW_CFA_restore: r20
  DW_CFA_restore: r28
  DW_CFA_restore: r30
  DW_CFA_restore: r29
  DW_CFA_nop
  DW_CFA_nop
  DW_CFA_nop
  DW_CFA_nop

00005ac0 00000034 00005ac4 FDE cie=00000000 pc=0009b25c..0009b350
  DW_CFA_advance_loc: 20 to 0009b270
  DW_CFA_def_cfa_offset: 336
  DW_CFA_advance_loc: 16 to 0009b280
  DW_CFA_def_cfa: r29 ofs 48
  DW_CFA_offset: r15 at cfa-8
  DW_CFA_offset: r19 at cfa-16
  DW_CFA_offset: r28 at cfa-32
  DW_CFA_offset: r30 at cfa-40
  DW_CFA_offset: r29 at cfa-48
  DW_CFA_advance_loc1: 160 to 0009b320
  DW_CFA_def_cfa: r31 ofs 336
  DW_CFA_advance_loc: 16 to 0009b330
  DW_CFA_def_cfa_offset: 0
  DW_CFA_restore: r15
  DW_CFA_restore: r19
  DW_CFA_restore: r28
  DW_CFA_restore: r30
  DW_CFA_restore: r29
  DW_CFA_nop
  DW_CFA_nop
  DW_CFA_nop
  DW_CFA_nop
  DW_CFA_nop
  DW_CFA_nop
  DW_CFA_nop

00005af8 0000001c 00005afc FDE cie=00000000 pc=0009b350..0009b3b0
  DW_CFA_advance_loc: 4 to 0009b354
  DW_CFA_def_cfa_offset: 256
  DW_CFA_advance_loc: 8 to 0009b35c
  DW_CFA_def_cfa: r29 ofs 16
  DW_CFA_offset: r30 at cfa-8
  DW_CFA_offset: r29 at cfa-16
  DW_CFA_nop
  DW_CFA_nop
  DW_CFA_nop

00005b18 0000001c 00005b1c FDE cie=00000000 pc=0009b3b0..0009b410
  DW_CFA_advance_loc: 4 to 0009b3b4
  DW_CFA_def_cfa_offset: 256
  DW_CFA_advance_loc: 8 to 0009b3bc
  DW_CFA_def_cfa: r29 ofs 16
  DW_CFA_offset: r30 at cfa-8
  DW_CFA_offset: r29 at cfa-16
  DW_CFA_nop
  DW_CFA_nop
  DW_CFA_nop

00005b38 00000014 00005b3c FDE cie=00000000 pc=0009b410..0009b428
  DW_CFA_nop
  DW_CFA_nop
  DW_CFA_nop
  DW_CFA_nop
  DW_CFA_nop
  DW_CFA_nop
  DW_CFA_nop

00005b50 00000034 00005b54 FDE cie=00000000 pc=0009b428..0009b510
  DW_CFA_advance_loc: 20 to 0009b43c
  DW_CFA_def_cfa_offset: 64
  DW_CFA_advance_loc: 16 to 0009b44c
  DW_CFA_def_cfa: r29 ofs 64
  DW_CFA_offset: r15 at cfa-8
  DW_CFA_offset: r19 at cfa-16
  DW_CFA_offset: r20 at cfa-24
  DW_CFA_offset: r21 at cfa-32
  DW_CFA_offset: r28 at cfa-48
  DW_CFA_offset: r30 at cfa-56
  DW_CFA_offset: r29 at cfa-64
  DW_CFA_advance_loc1: 148 to 0009b4e0
  DW_CFA_def_cfa: r31 ofs 64
  DW_CFA_advance_loc: 16 to 0009b4f0
  DW_CFA_def_cfa_offset: 0
  DW_CFA_restore: r15
  DW_CFA_restore: r19
  DW_CFA_restore: r20
  DW_CFA_restore: r21
  DW_CFA_restore: r28
  DW_CFA_restore: r30
  DW_CFA_restore: r29
  DW_CFA_nop
  DW_CFA_nop
  DW_CFA_nop

00005b88 0000002c 00005b8c FDE cie=00000000 pc=0009b510..0009b5dc
  DW_CFA_advance_loc: 20 to 0009b524
  DW_CFA_def_cfa_offset: 64
  DW_CFA_advance_loc: 12 to 0009b530
  DW_CFA_def_cfa: r29 ofs 32
  DW_CFA_offset: r15 at cfa-8
  DW_CFA_offset: r19 at cfa-16
  DW_CFA_offset: r30 at cfa-24
  DW_CFA_offset: r29 at cfa-32
  DW_CFA_advance_loc1: 128 to 0009b5b0
  DW_CFA_def_cfa: r31 ofs 64
  DW_CFA_advance_loc: 12 to 0009b5bc
  DW_CFA_def_cfa_offset: 0
  DW_CFA_restore: r15
  DW_CFA_restore: r19
  DW_CFA_restore: r30
  DW_CFA_restore: r29
  DW_CFA_nop
  DW_CFA_nop
  DW_CFA_nop
  DW_CFA_nop

00005bb8 0000002c 00005bbc FDE cie=00000000 pc=0009b5dc..0009b6ec
  DW_CFA_advance_loc: 20 to 0009b5f0
  DW_CFA_def_cfa_offset: 64
  DW_CFA_advance_loc: 12 to 0009b5fc
  DW_CFA_def_cfa: r29 ofs 32
  DW_CFA_offset: r15 at cfa-8
  DW_CFA_offset: r19 at cfa-16
  DW_CFA_offset: r30 at cfa-24
  DW_CFA_offset: r29 at cfa-32
  DW_CFA_advance_loc1: 196 to 0009b6c0
  DW_CFA_def_cfa: r31 ofs 64
  DW_CFA_advance_loc: 12 to 0009b6cc
  DW_CFA_def_cfa_offset: 0
  DW_CFA_restore: r15
  DW_CFA_restore: r19
  DW_CFA_restore: r30
  DW_CFA_restore: r29
  DW_CFA_nop
  DW_CFA_nop
  DW_CFA_nop
  DW_CFA_nop

00005be8 00000034 00005bec FDE cie=00000000 pc=0009b6ec..0009b7d8
  DW_CFA_advance_loc: 20 to 0009b700
  DW_CFA_def_cfa_offset: 416
  DW_CFA_advance_loc: 16 to 0009b710
  DW_CFA_def_cfa: r29 ofs 48
  DW_CFA_offset: r15 at cfa-8
  DW_CFA_offset: r19 at cfa-16
  DW_CFA_offset: r20 at cfa-24
  DW_CFA_offset: r28 at cfa-32
  DW_CFA_offset: r30 at cfa-40
  DW_CFA_offset: r29 at cfa-48
  DW_CFA_advance_loc1: 152 to 0009b7a8
  DW_CFA_def_cfa: r31 ofs 416
  DW_CFA_advance_loc: 16 to 0009b7b8
  DW_CFA_def_cfa_offset: 0
  DW_CFA_restore: r15
  DW_CFA_restore: r19
  DW_CFA_restore: r20
  DW_CFA_restore: r28
  DW_CFA_restore: r30
  DW_CFA_restore: r29
  DW_CFA_nop
  DW_CFA_nop
  DW_CFA_nop
  DW_CFA_nop

00005c20 00000014 00005c24 FDE cie=00000000 pc=0009b7d8..0009b7e4
  DW_CFA_nop
  DW_CFA_nop
  DW_CFA_nop
  DW_CFA_nop
  DW_CFA_nop
  DW_CFA_nop
  DW_CFA_nop

00005c38 0000003c 00005c3c FDE cie=00000000 pc=0009b7e4..0009ba50
  DW_CFA_advance_loc: 20 to 0009b7f8
  DW_CFA_def_cfa_offset: 464
  DW_CFA_advance_loc: 24 to 0009b810
  DW_CFA_def_cfa: r29 ofs 80
  DW_CFA_offset: r15 at cfa-8
  DW_CFA_offset: r19 at cfa-16
  DW_CFA_offset: r20 at cfa-24
  DW_CFA_offset: r21 at cfa-32
  DW_CFA_offset: r22 at cfa-40
  DW_CFA_offset: r23 at cfa-48
  DW_CFA_offset: r28 at cfa-64
  DW_CFA_offset: r30 at cfa-72
  DW_CFA_offset: r29 at cfa-80
  DW_CFA_advance_loc2: 520 to 0009ba18
  DW_CFA_def_cfa: r31 ofs 464
  DW_CFA_advance_loc: 24 to 0009ba30
  DW_CFA_def_cfa_offset: 0
  DW_CFA_restore: r15
  DW_CFA_restore: r19
  DW_CFA_restore: r20
  DW_CFA_restore: r21
  DW_CFA_restore: r22
  DW_CFA_restore: r23
  DW_CFA_restore: r28
  DW_CFA_restore: r30
  DW_CFA_restore: r29
  DW_CFA_nop
  DW_CFA_nop

00005c78 00000024 00005c7c FDE cie=00000000 pc=0009ba50..0009ba7c
  DW_CFA_advance_loc: 4 to 0009ba54
  DW_CFA_def_cfa_offset: 32
  DW_CFA_advance_loc: 8 to 0009ba5c
  DW_CFA_def_cfa: r29 ofs 32
  DW_CFA_offset: r19 at cfa-16
  DW_CFA_offset: r30 at cfa-24
  DW_CFA_offset: r29 at cfa-32
  DW_CFA_advance_loc: 20 to 0009ba70
  DW_CFA_def_cfa: r31 ofs 32
  DW_CFA_advance_loc: 8 to 0009ba78
  DW_CFA_def_cfa_offset: 0
  DW_CFA_restore: r19
  DW_CFA_restore: r30
  DW_CFA_restore: r29

00005ca0 0000002c 00005ca4 FDE cie=00000000 pc=0009ba7c..0009bad8
  DW_CFA_advance_loc: 4 to 0009ba80
  DW_CFA_def_cfa_offset: 32
  DW_CFA_advance_loc: 8 to 0009ba88
  DW_CFA_def_cfa: r29 ofs 32
  DW_CFA_offset: r19 at cfa-16
  DW_CFA_offset: r30 at cfa-24
  DW_CFA_offset: r29 at cfa-32
  DW_CFA_advance_loc1: 68 to 0009bacc
  DW_CFA_def_cfa: r31 ofs 32
  DW_CFA_advance_loc: 8 to 0009bad4
  DW_CFA_def_cfa_offset: 0
  DW_CFA_restore: r19
  DW_CFA_restore: r30
  DW_CFA_restore: r29
  DW_CFA_nop
  DW_CFA_nop
  DW_CFA_nop
  DW_CFA_nop
  DW_CFA_nop
  DW_CFA_nop
  DW_CFA_nop

00005cd0 0000002c 00005cd4 FDE cie=00000000 pc=0009bad8..0009bb84
  DW_CFA_advance_loc: 4 to 0009badc
  DW_CFA_def_cfa_offset: 32
  DW_CFA_advance_loc: 8 to 0009bae4
  DW_CFA_def_cfa: r29 ofs 32
  DW_CFA_offset: r19 at cfa-16
  DW_CFA_offset: r30 at cfa-24
  DW_CFA_offset: r29 at cfa-32
  DW_CFA_advance_loc1: 148 to 0009bb78
  DW_CFA_def_cfa: r31 ofs 32
  DW_CFA_advance_loc: 8 to 0009bb80
  DW_CFA_def_cfa_offset: 0
  DW_CFA_restore: r19
  DW_CFA_restore: r30
  DW_CFA_restore: r29
  DW_CFA_nop
  DW_CFA_nop
  DW_CFA_nop
  DW_CFA_nop
  DW_CFA_nop
  DW_CFA_nop
  DW_CFA_nop

00005d00 00000024 00005d04 FDE cie=00000000 pc=0009bb84..0009bba0
  DW_CFA_advance_loc: 4 to 0009bb88
  DW_CFA_def_cfa_offset: 16
  DW_CFA_advance_loc: 4 to 0009bb8c
  DW_CFA_def_cfa: r29 ofs 16
  DW_CFA_offset: r30 at cfa-8
  DW_CFA_offset: r29 at cfa-16
  DW_CFA_advance_loc: 12 to 0009bb98
  DW_CFA_def_cfa: r31 ofs 16
  DW_CFA_advance_loc: 4 to 0009bb9c
  DW_CFA_def_cfa_offset: 0
  DW_CFA_restore: r30
  DW_CFA_restore: r29
  DW_CFA_nop
  DW_CFA_nop
  DW_CFA_nop

00005d28 0000002c 00005d2c FDE cie=00000000 pc=0009bba0..0009bc58
  DW_CFA_advance_loc: 20 to 0009bbb4
  DW_CFA_def_cfa_offset: 64
  DW_CFA_advance_loc: 12 to 0009bbc0
  DW_CFA_def_cfa: r29 ofs 32
  DW_CFA_offset: r15 at cfa-8
  DW_CFA_offset: r19 at cfa-16
  DW_CFA_offset: r30 at cfa-24
  DW_CFA_offset: r29 at cfa-32
  DW_CFA_advance_loc1: 108 to 0009bc2c
  DW_CFA_def_cfa: r31 ofs 64
  DW_CFA_advance_loc: 12 to 0009bc38
  DW_CFA_def_cfa_offset: 0
  DW_CFA_restore: r15
  DW_CFA_restore: r19
  DW_CFA_restore: r30
  DW_CFA_restore: r29
  DW_CFA_nop
  DW_CFA_nop
  DW_CFA_nop
  DW_CFA_nop

00005d58 00000034 00005d5c FDE cie=00000000 pc=0009bc58..0009bec0
  DW_CFA_advance_loc: 20 to 0009bc6c
  DW_CFA_def_cfa_offset: 320
  DW_CFA_advance_loc: 16 to 0009bc7c
  DW_CFA_def_cfa: r29 ofs 48
  DW_CFA_offset: r15 at cfa-8
  DW_CFA_offset: r19 at cfa-16
  DW_CFA_offset: r20 at cfa-24
  DW_CFA_offset: r28 at cfa-32
  DW_CFA_offset: r30 at cfa-40
  DW_CFA_offset: r29 at cfa-48
  DW_CFA_advance_loc2: 532 to 0009be90
  DW_CFA_def_cfa: r31 ofs 320
  DW_CFA_advance_loc: 16 to 0009bea0
  DW_CFA_def_cfa_offset: 0
  DW_CFA_restore: r15
  DW_CFA_restore: r19
  DW_CFA_restore: r20
  DW_CFA_restore: r28
  DW_CFA_restore: r30
  DW_CFA_restore: r29
  DW_CFA_nop
  DW_CFA_nop
  DW_CFA_nop

00005d90 00000014 00005d94 FDE cie=00000000 pc=0009bec0..0009bec4
  DW_CFA_nop
  DW_CFA_nop
  DW_CFA_nop
  DW_CFA_nop
  DW_CFA_nop
  DW_CFA_nop
  DW_CFA_nop

00005da8 00000014 00005dac FDE cie=00000000 pc=0009bec4..0009bec8
  DW_CFA_nop
  DW_CFA_nop
  DW_CFA_nop
  DW_CFA_nop
  DW_CFA_nop
  DW_CFA_nop
  DW_CFA_nop

00005dc0 00000014 00005dc4 FDE cie=00000000 pc=0009bec8..0009bed0
  DW_CFA_nop
  DW_CFA_nop
  DW_CFA_nop
  DW_CFA_nop
  DW_CFA_nop
  DW_CFA_nop
  DW_CFA_nop

00005dd8 00000014 00005ddc FDE cie=00000000 pc=0009bed0..0009bed8
  DW_CFA_nop
  DW_CFA_nop
  DW_CFA_nop
  DW_CFA_nop
  DW_CFA_nop
  DW_CFA_nop
  DW_CFA_nop

00005df0 00000014 00005df4 FDE cie=00000000 pc=0009bed8..0009bee0
  DW_CFA_nop
  DW_CFA_nop
  DW_CFA_nop
  DW_CFA_nop
  DW_CFA_nop
  DW_CFA_nop
  DW_CFA_nop

00005e08 00000014 00005e0c FDE cie=00000000 pc=0009bee0..0009bee8
  DW_CFA_nop
  DW_CFA_nop
  DW_CFA_nop
  DW_CFA_nop
  DW_CFA_nop
  DW_CFA_nop
  DW_CFA_nop

00005e20 00000014 00005e24 FDE cie=00000000 pc=0009bee8..0009beec
  DW_CFA_nop
  DW_CFA_nop
  DW_CFA_nop
  DW_CFA_nop
  DW_CFA_nop
  DW_CFA_nop
  DW_CFA_nop

00005e38 00000024 00005e3c FDE cie=00000000 pc=0009beec..0009bf10
  DW_CFA_advance_loc: 4 to 0009bef0
  DW_CFA_def_cfa_offset: 16
  DW_CFA_advance_loc: 4 to 0009bef4
  DW_CFA_def_cfa: r29 ofs 16
  DW_CFA_offset: r30 at cfa-8
  DW_CFA_offset: r29 at cfa-16
  DW_CFA_advance_loc: 20 to 0009bf08
  DW_CFA_def_cfa: r31 ofs 16
  DW_CFA_advance_loc: 4 to 0009bf0c
  DW_CFA_def_cfa_offset: 0
  DW_CFA_restore: r30
  DW_CFA_restore: r29
  DW_CFA_nop
  DW_CFA_nop
  DW_CFA_nop

00005e60 00000014 00005e64 FDE cie=00000000 pc=0009bf10..0009bf20
  DW_CFA_nop
  DW_CFA_nop
  DW_CFA_nop
  DW_CFA_nop
  DW_CFA_nop
  DW_CFA_nop
  DW_CFA_nop

00005e78 0000002c 00005e7c FDE cie=00000000 pc=0009bf20..0009c06c
  DW_CFA_advance_loc: 20 to 0009bf34
  DW_CFA_def_cfa_offset: 240
  DW_CFA_advance_loc: 12 to 0009bf40
  DW_CFA_def_cfa: r29 ofs 32
  DW_CFA_offset: r15 at cfa-8
  DW_CFA_offset: r19 at cfa-16
  DW_CFA_offset: r30 at cfa-24
  DW_CFA_offset: r29 at cfa-32
  DW_CFA_advance_loc2: 256 to 0009c040
  DW_CFA_def_cfa: r31 ofs 240
  DW_CFA_advance_loc: 12 to 0009c04c
  DW_CFA_def_cfa_offset: 0
  DW_CFA_restore: r15
  DW_CFA_restore: r19
  DW_CFA_restore: r30
  DW_CFA_restore: r29
  DW_CFA_nop

00005ea8 00000024 00005eac FDE cie=00000000 pc=0009c06c..0009c0a8
  DW_CFA_advance_loc: 4 to 0009c070
  DW_CFA_def_cfa_offset: 32
  DW_CFA_advance_loc: 8 to 0009c078
  DW_CFA_def_cfa: r29 ofs 32
  DW_CFA_offset: r19 at cfa-16
  DW_CFA_offset: r30 at cfa-24
  DW_CFA_offset: r29 at cfa-32
  DW_CFA_advance_loc: 36 to 0009c09c
  DW_CFA_def_cfa: r31 ofs 32
  DW_CFA_advance_loc: 8 to 0009c0a4
  DW_CFA_def_cfa_offset: 0
  DW_CFA_restore: r19
  DW_CFA_restore: r30
  DW_CFA_restore: r29

00005ed0 00000024 00005ed4 FDE cie=00000000 pc=0009c0a8..0009c0cc
  DW_CFA_advance_loc: 4 to 0009c0ac
  DW_CFA_def_cfa_offset: 16
  DW_CFA_advance_loc: 4 to 0009c0b0
  DW_CFA_def_cfa: r29 ofs 16
  DW_CFA_offset: r30 at cfa-8
  DW_CFA_offset: r29 at cfa-16
  DW_CFA_advance_loc: 20 to 0009c0c4
  DW_CFA_def_cfa: r31 ofs 16
  DW_CFA_advance_loc: 4 to 0009c0c8
  DW_CFA_def_cfa_offset: 0
  DW_CFA_restore: r30
  DW_CFA_restore: r29
  DW_CFA_nop
  DW_CFA_nop
  DW_CFA_nop

00005ef8 00000024 00005efc FDE cie=00000000 pc=0009c0cc..0009c108
  DW_CFA_advance_loc: 4 to 0009c0d0
  DW_CFA_def_cfa_offset: 32
  DW_CFA_advance_loc: 8 to 0009c0d8
  DW_CFA_def_cfa: r29 ofs 32
  DW_CFA_offset: r19 at cfa-16
  DW_CFA_offset: r30 at cfa-24
  DW_CFA_offset: r29 at cfa-32
  DW_CFA_advance_loc: 36 to 0009c0fc
  DW_CFA_def_cfa: r31 ofs 32
  DW_CFA_advance_loc: 8 to 0009c104
  DW_CFA_def_cfa_offset: 0
  DW_CFA_restore: r19
  DW_CFA_restore: r30
  DW_CFA_restore: r29

00005f20 00000024 00005f24 FDE cie=00000000 pc=0009c108..0009c144
  DW_CFA_advance_loc: 4 to 0009c10c
  DW_CFA_def_cfa_offset: 32
  DW_CFA_advance_loc: 8 to 0009c114
  DW_CFA_def_cfa: r29 ofs 32
  DW_CFA_offset: r19 at cfa-16
  DW_CFA_offset: r30 at cfa-24
  DW_CFA_offset: r29 at cfa-32
  DW_CFA_advance_loc: 36 to 0009c138
  DW_CFA_def_cfa: r31 ofs 32
  DW_CFA_advance_loc: 8 to 0009c140
  DW_CFA_def_cfa_offset: 0
  DW_CFA_restore: r19
  DW_CFA_restore: r30
  DW_CFA_restore: r29

00005f48 00000024 00005f4c FDE cie=00000000 pc=0009c144..0009c180
  DW_CFA_advance_loc: 4 to 0009c148
  DW_CFA_def_cfa_offset: 32
  DW_CFA_advance_loc: 8 to 0009c150
  DW_CFA_def_cfa: r29 ofs 32
  DW_CFA_offset: r19 at cfa-16
  DW_CFA_offset: r30 at cfa-24
  DW_CFA_offset: r29 at cfa-32
  DW_CFA_advance_loc: 36 to 0009c174
  DW_CFA_def_cfa: r31 ofs 32
  DW_CFA_advance_loc: 8 to 0009c17c
  DW_CFA_def_cfa_offset: 0
  DW_CFA_restore: r19
  DW_CFA_restore: r30
  DW_CFA_restore: r29

00005f70 0000002c 00005f74 FDE cie=00000000 pc=0009c180..0009c1dc
  DW_CFA_advance_loc: 4 to 0009c184
  DW_CFA_def_cfa_offset: 32
  DW_CFA_advance_loc: 8 to 0009c18c
  DW_CFA_def_cfa: r29 ofs 32
  DW_CFA_offset: r19 at cfa-16
  DW_CFA_offset: r30 at cfa-24
  DW_CFA_offset: r29 at cfa-32
  DW_CFA_remember_state
  DW_CFA_advance_loc: 44 to 0009c1b8
  DW_CFA_def_cfa: r31 ofs 32
  DW_CFA_advance_loc: 8 to 0009c1c0
  DW_CFA_def_cfa_offset: 0
  DW_CFA_restore: r19
  DW_CFA_restore: r30
  DW_CFA_restore: r29
  DW_CFA_advance_loc: 4 to 0009c1c4
  DW_CFA_restore_state
  DW_CFA_nop
  DW_CFA_nop
  DW_CFA_nop
  DW_CFA_nop
  DW_CFA_nop

00005fa0 0000004c 00005fa4 FDE cie=00000000 pc=0009c1dc..0009c414
  DW_CFA_advance_loc: 20 to 0009c1f0
  DW_CFA_def_cfa_offset: 304
  DW_CFA_advance_loc: 36 to 0009c214
  DW_CFA_def_cfa: r29 ofs 104
  DW_CFA_offset: r15 at cfa-8
  DW_CFA_offset: r19 at cfa-16
  DW_CFA_offset: r20 at cfa-24
  DW_CFA_offset: r21 at cfa-32
  DW_CFA_offset: r22 at cfa-40
  DW_CFA_offset: r23 at cfa-48
  DW_CFA_offset: r24 at cfa-56
  DW_CFA_offset: r25 at cfa-64
  DW_CFA_offset: r26 at cfa-72
  DW_CFA_offset: r27 at cfa-80
  DW_CFA_offset: r28 at cfa-88
  DW_CFA_offset: r30 at cfa-96
  DW_CFA_offset: r29 at cfa-104
  DW_CFA_offset_extended: r72 at cfa-112
  DW_CFA_advance_loc2: 444 to 0009c3d0
  DW_CFA_def_cfa: r31 ofs 304
  DW_CFA_advance_loc: 36 to 0009c3f4
  DW_CFA_def_cfa_offset: 0
  DW_CFA_restore: r15
  DW_CFA_restore: r19
  DW_CFA_restore: r20
  DW_CFA_restore: r21
  DW_CFA_restore: r22
  DW_CFA_restore: r23
  DW_CFA_restore: r24
  DW_CFA_restore: r25
  DW_CFA_restore: r26
  DW_CFA_restore: r27
  DW_CFA_restore: r28
  DW_CFA_restore: r30
  DW_CFA_restore: r29
  DW_CFA_restore_extended: r72
  DW_CFA_nop

00005ff0 00000024 00005ff4 FDE cie=00000000 pc=0009c414..0009c49c
  DW_CFA_advance_loc: 4 to 0009c418
  DW_CFA_def_cfa_offset: 160
  DW_CFA_advance_loc: 12 to 0009c424
  DW_CFA_def_cfa: r29 ofs 32
  DW_CFA_offset: r19 at cfa-8
  DW_CFA_offset: r20 at cfa-16
  DW_CFA_offset: r30 at cfa-24
  DW_CFA_offset: r29 at cfa-32
  DW_CFA_nop
  DW_CFA_nop
  DW_CFA_nop
  DW_CFA_nop
  DW_CFA_nop
  DW_CFA_nop
  DW_CFA_nop

00006018 00000024 0000601c FDE cie=00000000 pc=0009c49c..0009c4e4
  DW_CFA_advance_loc: 4 to 0009c4a0
  DW_CFA_def_cfa_offset: 32
  DW_CFA_advance_loc: 8 to 0009c4a8
  DW_CFA_def_cfa: r29 ofs 32
  DW_CFA_offset: r19 at cfa-16
  DW_CFA_offset: r30 at cfa-24
  DW_CFA_offset: r29 at cfa-32
  DW_CFA_advance_loc: 48 to 0009c4d8
  DW_CFA_def_cfa: r31 ofs 32
  DW_CFA_advance_loc: 8 to 0009c4e0
  DW_CFA_def_cfa_offset: 0
  DW_CFA_restore: r19
  DW_CFA_restore: r30
  DW_CFA_restore: r29

00006040 00000024 00006044 FDE cie=00000000 pc=0009c4e4..0009c530
  DW_CFA_advance_loc: 4 to 0009c4e8
  DW_CFA_def_cfa_offset: 32
  DW_CFA_advance_loc: 8 to 0009c4f0
  DW_CFA_def_cfa: r29 ofs 32
  DW_CFA_offset: r19 at cfa-16
  DW_CFA_offset: r30 at cfa-24
  DW_CFA_offset: r29 at cfa-32
  DW_CFA_advance_loc: 52 to 0009c524
  DW_CFA_def_cfa: r31 ofs 32
  DW_CFA_advance_loc: 8 to 0009c52c
  DW_CFA_def_cfa_offset: 0
  DW_CFA_restore: r19
  DW_CFA_restore: r30
  DW_CFA_restore: r29

00006068 00000024 0000606c FDE cie=00000000 pc=0009c530..0009c57c
  DW_CFA_advance_loc: 4 to 0009c534
  DW_CFA_def_cfa_offset: 32
  DW_CFA_advance_loc: 8 to 0009c53c
  DW_CFA_def_cfa: r29 ofs 32
  DW_CFA_offset: r19 at cfa-16
  DW_CFA_offset: r30 at cfa-24
  DW_CFA_offset: r29 at cfa-32
  DW_CFA_advance_loc: 52 to 0009c570
  DW_CFA_def_cfa: r31 ofs 32
  DW_CFA_advance_loc: 8 to 0009c578
  DW_CFA_def_cfa_offset: 0
  DW_CFA_restore: r19
  DW_CFA_restore: r30
  DW_CFA_restore: r29

00006090 00000024 00006094 FDE cie=00000000 pc=0009c57c..0009c5c4
  DW_CFA_advance_loc: 4 to 0009c580
  DW_CFA_def_cfa_offset: 32
  DW_CFA_advance_loc: 8 to 0009c588
  DW_CFA_def_cfa: r29 ofs 32
  DW_CFA_offset: r19 at cfa-16
  DW_CFA_offset: r30 at cfa-24
  DW_CFA_offset: r29 at cfa-32
  DW_CFA_advance_loc: 48 to 0009c5b8
  DW_CFA_def_cfa: r31 ofs 32
  DW_CFA_advance_loc: 8 to 0009c5c0
  DW_CFA_def_cfa_offset: 0
  DW_CFA_restore: r19
  DW_CFA_restore: r30
  DW_CFA_restore: r29

000060b8 0000002c 000060bc FDE cie=00000000 pc=0009c5c4..0009c61c
  DW_CFA_advance_loc: 4 to 0009c5c8
  DW_CFA_def_cfa_offset: 32
  DW_CFA_advance_loc: 8 to 0009c5d0
  DW_CFA_def_cfa: r29 ofs 32
  DW_CFA_offset: r19 at cfa-16
  DW_CFA_offset: r30 at cfa-24
  DW_CFA_offset: r29 at cfa-32
  DW_CFA_advance_loc1: 64 to 0009c610
  DW_CFA_def_cfa: r31 ofs 32
  DW_CFA_advance_loc: 8 to 0009c618
  DW_CFA_def_cfa_offset: 0
  DW_CFA_restore: r19
  DW_CFA_restore: r30
  DW_CFA_restore: r29
  DW_CFA_nop
  DW_CFA_nop
  DW_CFA_nop
  DW_CFA_nop
  DW_CFA_nop
  DW_CFA_nop
  DW_CFA_nop

000060e8 0000002c 000060ec FDE cie=00000000 pc=0009c61c..0009c678
  DW_CFA_advance_loc: 4 to 0009c620
  DW_CFA_def_cfa_offset: 32
  DW_CFA_advance_loc: 8 to 0009c628
  DW_CFA_def_cfa: r29 ofs 32
  DW_CFA_offset: r19 at cfa-16
  DW_CFA_offset: r30 at cfa-24
  DW_CFA_offset: r29 at cfa-32
  DW_CFA_advance_loc1: 68 to 0009c66c
  DW_CFA_def_cfa: r31 ofs 32
  DW_CFA_advance_loc: 8 to 0009c674
  DW_CFA_def_cfa_offset: 0
  DW_CFA_restore: r19
  DW_CFA_restore: r30
  DW_CFA_restore: r29
  DW_CFA_nop
  DW_CFA_nop
  DW_CFA_nop
  DW_CFA_nop
  DW_CFA_nop
  DW_CFA_nop
  DW_CFA_nop

00006118 00000024 0000611c FDE cie=00000000 pc=0009c678..0009c6c8
  DW_CFA_advance_loc: 4 to 0009c67c
  DW_CFA_def_cfa_offset: 32
  DW_CFA_advance_loc: 8 to 0009c684
  DW_CFA_def_cfa: r29 ofs 32
  DW_CFA_offset: r19 at cfa-16
  DW_CFA_offset: r30 at cfa-24
  DW_CFA_offset: r29 at cfa-32
  DW_CFA_advance_loc: 56 to 0009c6bc
  DW_CFA_def_cfa: r31 ofs 32
  DW_CFA_advance_loc: 8 to 0009c6c4
  DW_CFA_def_cfa_offset: 0
  DW_CFA_restore: r19
  DW_CFA_restore: r30
  DW_CFA_restore: r29

00006140 00000024 00006144 FDE cie=00000000 pc=0009c6c8..0009c714
  DW_CFA_advance_loc: 4 to 0009c6cc
  DW_CFA_def_cfa_offset: 32
  DW_CFA_advance_loc: 8 to 0009c6d4
  DW_CFA_def_cfa: r29 ofs 32
  DW_CFA_offset: r19 at cfa-16
  DW_CFA_offset: r30 at cfa-24
  DW_CFA_offset: r29 at cfa-32
  DW_CFA_advance_loc: 52 to 0009c708
  DW_CFA_def_cfa: r31 ofs 32
  DW_CFA_advance_loc: 8 to 0009c710
  DW_CFA_def_cfa_offset: 0
  DW_CFA_restore: r19
  DW_CFA_restore: r30
  DW_CFA_restore: r29

00006168 0000002c 0000616c FDE cie=00000000 pc=0009c714..0009c79c
  DW_CFA_advance_loc: 20 to 0009c728
  DW_CFA_def_cfa_offset: 48
  DW_CFA_advance_loc: 12 to 0009c734
  DW_CFA_def_cfa: r29 ofs 32
  DW_CFA_offset: r15 at cfa-8
  DW_CFA_offset: r19 at cfa-16
  DW_CFA_offset: r30 at cfa-24
  DW_CFA_offset: r29 at cfa-32
  DW_CFA_advance_loc: 60 to 0009c770
  DW_CFA_def_cfa: r31 ofs 48
  DW_CFA_advance_loc: 12 to 0009c77c
  DW_CFA_def_cfa_offset: 0
  DW_CFA_restore: r15
  DW_CFA_restore: r19
  DW_CFA_restore: r30
  DW_CFA_restore: r29
  DW_CFA_nop
  DW_CFA_nop
  DW_CFA_nop
  DW_CFA_nop
  DW_CFA_nop

00006198 00000024 0000619c FDE cie=00000000 pc=0009c79c..0009c7e0
  DW_CFA_advance_loc: 4 to 0009c7a0
  DW_CFA_def_cfa_offset: 32
  DW_CFA_advance_loc: 8 to 0009c7a8
  DW_CFA_def_cfa: r29 ofs 32
  DW_CFA_offset: r19 at cfa-16
  DW_CFA_offset: r30 at cfa-24
  DW_CFA_offset: r29 at cfa-32
  DW_CFA_advance_loc: 44 to 0009c7d4
  DW_CFA_def_cfa: r31 ofs 32
  DW_CFA_advance_loc: 8 to 0009c7dc
  DW_CFA_def_cfa_offset: 0
  DW_CFA_restore: r19
  DW_CFA_restore: r30
  DW_CFA_restore: r29

000061c0 00000024 000061c4 FDE cie=00000000 pc=0009c7e0..0009c824
  DW_CFA_advance_loc: 4 to 0009c7e4
  DW_CFA_def_cfa_offset: 32
  DW_CFA_advance_loc: 8 to 0009c7ec
  DW_CFA_def_cfa: r29 ofs 32
  DW_CFA_offset: r19 at cfa-16
  DW_CFA_offset: r30 at cfa-24
  DW_CFA_offset: r29 at cfa-32
  DW_CFA_advance_loc: 44 to 0009c818
  DW_CFA_def_cfa: r31 ofs 32
  DW_CFA_advance_loc: 8 to 0009c820
  DW_CFA_def_cfa_offset: 0
  DW_CFA_restore: r19
  DW_CFA_restore: r30
  DW_CFA_restore: r29

000061e8 00000024 000061ec FDE cie=00000000 pc=0009c824..0009c86c
  DW_CFA_advance_loc: 4 to 0009c828
  DW_CFA_def_cfa_offset: 32
  DW_CFA_advance_loc: 8 to 0009c830
  DW_CFA_def_cfa: r29 ofs 32
  DW_CFA_offset: r19 at cfa-16
  DW_CFA_offset: r30 at cfa-24
  DW_CFA_offset: r29 at cfa-32
  DW_CFA_advance_loc: 48 to 0009c860
  DW_CFA_def_cfa: r31 ofs 32
  DW_CFA_advance_loc: 8 to 0009c868
  DW_CFA_def_cfa_offset: 0
  DW_CFA_restore: r19
  DW_CFA_restore: r30
  DW_CFA_restore: r29

00006210 00000024 00006214 FDE cie=00000000 pc=0009c86c..0009c8b0
  DW_CFA_advance_loc: 4 to 0009c870
  DW_CFA_def_cfa_offset: 32
  DW_CFA_advance_loc: 8 to 0009c878
  DW_CFA_def_cfa: r29 ofs 32
  DW_CFA_offset: r19 at cfa-16
  DW_CFA_offset: r30 at cfa-24
  DW_CFA_offset: r29 at cfa-32
  DW_CFA_advance_loc: 44 to 0009c8a4
  DW_CFA_def_cfa: r31 ofs 32
  DW_CFA_advance_loc: 8 to 0009c8ac
  DW_CFA_def_cfa_offset: 0
  DW_CFA_restore: r19
  DW_CFA_restore: r30
  DW_CFA_restore: r29

00006238 00000024 0000623c FDE cie=00000000 pc=0009c8b0..0009c8fc
  DW_CFA_advance_loc: 4 to 0009c8b4
  DW_CFA_def_cfa_offset: 32
  DW_CFA_advance_loc: 8 to 0009c8bc
  DW_CFA_def_cfa: r29 ofs 32
  DW_CFA_offset: r19 at cfa-16
  DW_CFA_offset: r30 at cfa-24
  DW_CFA_offset: r29 at cfa-32
  DW_CFA_advance_loc: 52 to 0009c8f0
  DW_CFA_def_cfa: r31 ofs 32
  DW_CFA_advance_loc: 8 to 0009c8f8
  DW_CFA_def_cfa_offset: 0
  DW_CFA_restore: r19
  DW_CFA_restore: r30
  DW_CFA_restore: r29

00006260 00000024 00006264 FDE cie=00000000 pc=0009c8fc..0009c93c
  DW_CFA_advance_loc: 4 to 0009c900
  DW_CFA_def_cfa_offset: 32
  DW_CFA_advance_loc: 8 to 0009c908
  DW_CFA_def_cfa: r29 ofs 32
  DW_CFA_offset: r19 at cfa-16
  DW_CFA_offset: r30 at cfa-24
  DW_CFA_offset: r29 at cfa-32
  DW_CFA_advance_loc: 40 to 0009c930
  DW_CFA_def_cfa: r31 ofs 32
  DW_CFA_advance_loc: 8 to 0009c938
  DW_CFA_def_cfa_offset: 0
  DW_CFA_restore: r19
  DW_CFA_restore: r30
  DW_CFA_restore: r29

00006288 00000014 0000628c FDE cie=00000000 pc=0009c93c..0009c94c
  DW_CFA_nop
  DW_CFA_nop
  DW_CFA_nop
  DW_CFA_nop
  DW_CFA_nop
  DW_CFA_nop
  DW_CFA_nop

000062a0 00000024 000062a4 FDE cie=00000000 pc=0009c94c..0009c998
  DW_CFA_advance_loc: 4 to 0009c950
  DW_CFA_def_cfa_offset: 32
  DW_CFA_advance_loc: 8 to 0009c958
  DW_CFA_def_cfa: r29 ofs 32
  DW_CFA_offset: r19 at cfa-16
  DW_CFA_offset: r30 at cfa-24
  DW_CFA_offset: r29 at cfa-32
  DW_CFA_advance_loc: 52 to 0009c98c
  DW_CFA_def_cfa: r31 ofs 32
  DW_CFA_advance_loc: 8 to 0009c994
  DW_CFA_def_cfa_offset: 0
  DW_CFA_restore: r19
  DW_CFA_restore: r30
  DW_CFA_restore: r29

000062c8 00000024 000062cc FDE cie=00000000 pc=0009c998..0009c9e4
  DW_CFA_advance_loc: 4 to 0009c99c
  DW_CFA_def_cfa_offset: 32
  DW_CFA_advance_loc: 8 to 0009c9a4
  DW_CFA_def_cfa: r29 ofs 32
  DW_CFA_offset: r19 at cfa-16
  DW_CFA_offset: r30 at cfa-24
  DW_CFA_offset: r29 at cfa-32
  DW_CFA_advance_loc: 52 to 0009c9d8
  DW_CFA_def_cfa: r31 ofs 32
  DW_CFA_advance_loc: 8 to 0009c9e0
  DW_CFA_def_cfa_offset: 0
  DW_CFA_restore: r19
  DW_CFA_restore: r30
  DW_CFA_restore: r29

000062f0 00000024 000062f4 FDE cie=00000000 pc=0009c9e4..0009ca28
  DW_CFA_advance_loc: 4 to 0009c9e8
  DW_CFA_def_cfa_offset: 32
  DW_CFA_advance_loc: 8 to 0009c9f0
  DW_CFA_def_cfa: r29 ofs 32
  DW_CFA_offset: r19 at cfa-16
  DW_CFA_offset: r30 at cfa-24
  DW_CFA_offset: r29 at cfa-32
  DW_CFA_advance_loc: 44 to 0009ca1c
  DW_CFA_def_cfa: r31 ofs 32
  DW_CFA_advance_loc: 8 to 0009ca24
  DW_CFA_def_cfa_offset: 0
  DW_CFA_restore: r19
  DW_CFA_restore: r30
  DW_CFA_restore: r29

00006318 00000024 0000631c FDE cie=00000000 pc=0009ca28..0009ca6c
  DW_CFA_advance_loc: 4 to 0009ca2c
  DW_CFA_def_cfa_offset: 32
  DW_CFA_advance_loc: 8 to 0009ca34
  DW_CFA_def_cfa: r29 ofs 32
  DW_CFA_offset: r19 at cfa-16
  DW_CFA_offset: r30 at cfa-24
  DW_CFA_offset: r29 at cfa-32
  DW_CFA_advance_loc: 44 to 0009ca60
  DW_CFA_def_cfa: r31 ofs 32
  DW_CFA_advance_loc: 8 to 0009ca68
  DW_CFA_def_cfa_offset: 0
  DW_CFA_restore: r19
  DW_CFA_restore: r30
  DW_CFA_restore: r29

00006340 00000024 00006344 FDE cie=00000000 pc=0009ca6c..0009cab0
  DW_CFA_advance_loc: 4 to 0009ca70
  DW_CFA_def_cfa_offset: 32
  DW_CFA_advance_loc: 8 to 0009ca78
  DW_CFA_def_cfa: r29 ofs 32
  DW_CFA_offset: r19 at cfa-16
  DW_CFA_offset: r30 at cfa-24
  DW_CFA_offset: r29 at cfa-32
  DW_CFA_advance_loc: 44 to 0009caa4
  DW_CFA_def_cfa: r31 ofs 32
  DW_CFA_advance_loc: 8 to 0009caac
  DW_CFA_def_cfa_offset: 0
  DW_CFA_restore: r19
  DW_CFA_restore: r30
  DW_CFA_restore: r29

00006368 0000003c 0000636c FDE cie=00000000 pc=0009cab0..0009ccf8
  DW_CFA_advance_loc: 20 to 0009cac4
  DW_CFA_def_cfa_offset: 352
  DW_CFA_advance_loc: 20 to 0009cad8
  DW_CFA_def_cfa: r29 ofs 64
  DW_CFA_offset: r15 at cfa-8
  DW_CFA_offset: r19 at cfa-16
  DW_CFA_offset: r20 at cfa-24
  DW_CFA_offset: r21 at cfa-32
  DW_CFA_offset: r28 at cfa-48
  DW_CFA_offset: r30 at cfa-56
  DW_CFA_offset: r29 at cfa-64
  DW_CFA_remember_state
  DW_CFA_advance_loc2: 404 to 0009cc6c
  DW_CFA_def_cfa: r31 ofs 352
  DW_CFA_advance_loc: 20 to 0009cc80
  DW_CFA_def_cfa_offset: 0
  DW_CFA_restore: r15
  DW_CFA_restore: r19
  DW_CFA_restore: r20
  DW_CFA_restore: r21
  DW_CFA_restore: r28
  DW_CFA_restore: r30
  DW_CFA_restore: r29
  DW_CFA_advance_loc: 32 to 0009cca0
  DW_CFA_restore_state
  DW_CFA_nop
  DW_CFA_nop
  DW_CFA_nop
  DW_CFA_nop
  DW_CFA_nop

000063a8 00000034 000063ac FDE cie=00000000 pc=0009ccf8..0009cdbc
  DW_CFA_advance_loc: 4 to 0009ccfc
  DW_CFA_def_cfa_offset: 16
  DW_CFA_advance_loc: 4 to 0009cd00
  DW_CFA_def_cfa: r29 ofs 16
  DW_CFA_offset: r30 at cfa-8
  DW_CFA_offset: r29 at cfa-16
  DW_CFA_remember_state
  DW_CFA_advance_loc1: 172 to 0009cdac
  DW_CFA_def_cfa: r31 ofs 16
  DW_CFA_advance_loc: 4 to 0009cdb0
  DW_CFA_def_cfa_offset: 0
  DW_CFA_restore: r30
  DW_CFA_restore: r29
  DW_CFA_advance_loc: 4 to 0009cdb4
  DW_CFA_restore_state
  DW_CFA_def_cfa: r31 ofs 16
  DW_CFA_advance_loc: 4 to 0009cdb8
  DW_CFA_def_cfa_offset: 0
  DW_CFA_restore: r30
  DW_CFA_restore: r29
  DW_CFA_nop
  DW_CFA_nop
  DW_CFA_nop
  DW_CFA_nop
  DW_CFA_nop
  DW_CFA_nop
  DW_CFA_nop

000063e0 00000024 000063e4 FDE cie=00000000 pc=0009cdbc..0009cdfc
  DW_CFA_advance_loc: 4 to 0009cdc0
  DW_CFA_def_cfa_offset: 32
  DW_CFA_advance_loc: 8 to 0009cdc8
  DW_CFA_def_cfa: r29 ofs 32
  DW_CFA_offset: r19 at cfa-16
  DW_CFA_offset: r30 at cfa-24
  DW_CFA_offset: r29 at cfa-32
  DW_CFA_advance_loc: 40 to 0009cdf0
  DW_CFA_def_cfa: r31 ofs 32
  DW_CFA_advance_loc: 8 to 0009cdf8
  DW_CFA_def_cfa_offset: 0
  DW_CFA_restore: r19
  DW_CFA_restore: r30
  DW_CFA_restore: r29

00006408 0000002c 0000640c FDE cie=00000000 pc=0009cdfc..0009ce54
  DW_CFA_advance_loc: 4 to 0009ce00
  DW_CFA_def_cfa_offset: 32
  DW_CFA_advance_loc: 8 to 0009ce08
  DW_CFA_def_cfa: r29 ofs 32
  DW_CFA_offset: r19 at cfa-16
  DW_CFA_offset: r30 at cfa-24
  DW_CFA_offset: r29 at cfa-32
  DW_CFA_remember_state
  DW_CFA_advance_loc: 44 to 0009ce34
  DW_CFA_def_cfa: r31 ofs 32
  DW_CFA_advance_loc: 8 to 0009ce3c
  DW_CFA_def_cfa_offset: 0
  DW_CFA_restore: r19
  DW_CFA_restore: r30
  DW_CFA_restore: r29
  DW_CFA_advance_loc: 4 to 0009ce40
  DW_CFA_restore_state
  DW_CFA_nop
  DW_CFA_nop
  DW_CFA_nop
  DW_CFA_nop
  DW_CFA_nop

00006438 00000024 0000643c FDE cie=00000000 pc=0009ce54..0009ce90
  DW_CFA_advance_loc: 4 to 0009ce58
  DW_CFA_def_cfa_offset: 32
  DW_CFA_advance_loc: 8 to 0009ce60
  DW_CFA_def_cfa: r29 ofs 32
  DW_CFA_offset: r19 at cfa-16
  DW_CFA_offset: r30 at cfa-24
  DW_CFA_offset: r29 at cfa-32
  DW_CFA_advance_loc: 36 to 0009ce84
  DW_CFA_def_cfa: r31 ofs 32
  DW_CFA_advance_loc: 8 to 0009ce8c
  DW_CFA_def_cfa_offset: 0
  DW_CFA_restore: r19
  DW_CFA_restore: r30
  DW_CFA_restore: r29

00006460 00000024 00006464 FDE cie=00000000 pc=0009ce90..0009ced0
  DW_CFA_advance_loc: 4 to 0009ce94
  DW_CFA_def_cfa_offset: 32
  DW_CFA_advance_loc: 8 to 0009ce9c
  DW_CFA_def_cfa: r29 ofs 32
  DW_CFA_offset: r19 at cfa-16
  DW_CFA_offset: r30 at cfa-24
  DW_CFA_offset: r29 at cfa-32
  DW_CFA_advance_loc: 40 to 0009cec4
  DW_CFA_def_cfa: r31 ofs 32
  DW_CFA_advance_loc: 8 to 0009cecc
  DW_CFA_def_cfa_offset: 0
  DW_CFA_restore: r19
  DW_CFA_restore: r30
  DW_CFA_restore: r29

00006488 00000024 0000648c FDE cie=00000000 pc=0009ced0..0009cf0c
  DW_CFA_advance_loc: 4 to 0009ced4
  DW_CFA_def_cfa_offset: 32
  DW_CFA_advance_loc: 8 to 0009cedc
  DW_CFA_def_cfa: r29 ofs 32
  DW_CFA_offset: r19 at cfa-16
  DW_CFA_offset: r30 at cfa-24
  DW_CFA_offset: r29 at cfa-32
  DW_CFA_advance_loc: 36 to 0009cf00
  DW_CFA_def_cfa: r31 ofs 32
  DW_CFA_advance_loc: 8 to 0009cf08
  DW_CFA_def_cfa_offset: 0
  DW_CFA_restore: r19
  DW_CFA_restore: r30
  DW_CFA_restore: r29

000064b0 00000024 000064b4 FDE cie=00000000 pc=0009cf0c..0009cf4c
  DW_CFA_advance_loc: 4 to 0009cf10
  DW_CFA_def_cfa_offset: 32
  DW_CFA_advance_loc: 8 to 0009cf18
  DW_CFA_def_cfa: r29 ofs 32
  DW_CFA_offset: r19 at cfa-16
  DW_CFA_offset: r30 at cfa-24
  DW_CFA_offset: r29 at cfa-32
  DW_CFA_advance_loc: 40 to 0009cf40
  DW_CFA_def_cfa: r31 ofs 32
  DW_CFA_advance_loc: 8 to 0009cf48
  DW_CFA_def_cfa_offset: 0
  DW_CFA_restore: r19
  DW_CFA_restore: r30
  DW_CFA_restore: r29

000064d8 00000024 000064dc FDE cie=00000000 pc=0009cf4c..0009cf8c
  DW_CFA_advance_loc: 4 to 0009cf50
  DW_CFA_def_cfa_offset: 32
  DW_CFA_advance_loc: 8 to 0009cf58
  DW_CFA_def_cfa: r29 ofs 32
  DW_CFA_offset: r19 at cfa-16
  DW_CFA_offset: r30 at cfa-24
  DW_CFA_offset: r29 at cfa-32
  DW_CFA_advance_loc: 40 to 0009cf80
  DW_CFA_def_cfa: r31 ofs 32
  DW_CFA_advance_loc: 8 to 0009cf88
  DW_CFA_def_cfa_offset: 0
  DW_CFA_restore: r19
  DW_CFA_restore: r30
  DW_CFA_restore: r29

00006500 00000024 00006504 FDE cie=00000000 pc=0009cf8c..0009cfd0
  DW_CFA_advance_loc: 4 to 0009cf90
  DW_CFA_def_cfa_offset: 32
  DW_CFA_advance_loc: 8 to 0009cf98
  DW_CFA_def_cfa: r29 ofs 32
  DW_CFA_offset: r19 at cfa-16
  DW_CFA_offset: r30 at cfa-24
  DW_CFA_offset: r29 at cfa-32
  DW_CFA_advance_loc: 44 to 0009cfc4
  DW_CFA_def_cfa: r31 ofs 32
  DW_CFA_advance_loc: 8 to 0009cfcc
  DW_CFA_def_cfa_offset: 0
  DW_CFA_restore: r19
  DW_CFA_restore: r30
  DW_CFA_restore: r29

00006528 00000024 0000652c FDE cie=00000000 pc=0009cfd0..0009d014
  DW_CFA_advance_loc: 4 to 0009cfd4
  DW_CFA_def_cfa_offset: 32
  DW_CFA_advance_loc: 8 to 0009cfdc
  DW_CFA_def_cfa: r29 ofs 32
  DW_CFA_offset: r19 at cfa-16
  DW_CFA_offset: r30 at cfa-24
  DW_CFA_offset: r29 at cfa-32
  DW_CFA_advance_loc: 44 to 0009d008
  DW_CFA_def_cfa: r31 ofs 32
  DW_CFA_advance_loc: 8 to 0009d010
  DW_CFA_def_cfa_offset: 0
  DW_CFA_restore: r19
  DW_CFA_restore: r30
  DW_CFA_restore: r29

00006550 00000024 00006554 FDE cie=00000000 pc=0009d014..0009d050
  DW_CFA_advance_loc: 4 to 0009d018
  DW_CFA_def_cfa_offset: 32
  DW_CFA_advance_loc: 8 to 0009d020
  DW_CFA_def_cfa: r29 ofs 32
  DW_CFA_offset: r19 at cfa-16
  DW_CFA_offset: r30 at cfa-24
  DW_CFA_offset: r29 at cfa-32
  DW_CFA_advance_loc: 36 to 0009d044
  DW_CFA_def_cfa: r31 ofs 32
  DW_CFA_advance_loc: 8 to 0009d04c
  DW_CFA_def_cfa_offset: 0
  DW_CFA_restore: r19
  DW_CFA_restore: r30
  DW_CFA_restore: r29

00006578 00000024 0000657c FDE cie=00000000 pc=0009d050..0009d08c
  DW_CFA_advance_loc: 4 to 0009d054
  DW_CFA_def_cfa_offset: 32
  DW_CFA_advance_loc: 8 to 0009d05c
  DW_CFA_def_cfa: r29 ofs 32
  DW_CFA_offset: r19 at cfa-16
  DW_CFA_offset: r30 at cfa-24
  DW_CFA_offset: r29 at cfa-32
  DW_CFA_advance_loc: 36 to 0009d080
  DW_CFA_def_cfa: r31 ofs 32
  DW_CFA_advance_loc: 8 to 0009d088
  DW_CFA_def_cfa_offset: 0
  DW_CFA_restore: r19
  DW_CFA_restore: r30
  DW_CFA_restore: r29

000065a0 0000002c 000065a4 FDE cie=00000000 pc=0009d08c..0009d110
  DW_CFA_advance_loc: 20 to 0009d0a0
  DW_CFA_def_cfa_offset: 48
  DW_CFA_advance_loc: 12 to 0009d0ac
  DW_CFA_def_cfa: r29 ofs 32
  DW_CFA_offset: r15 at cfa-8
  DW_CFA_offset: r19 at cfa-16
  DW_CFA_offset: r30 at cfa-24
  DW_CFA_offset: r29 at cfa-32
  DW_CFA_advance_loc: 56 to 0009d0e4
  DW_CFA_def_cfa: r31 ofs 48
  DW_CFA_advance_loc: 12 to 0009d0f0
  DW_CFA_def_cfa_offset: 0
  DW_CFA_restore: r15
  DW_CFA_restore: r19
  DW_CFA_restore: r30
  DW_CFA_restore: r29
  DW_CFA_nop
  DW_CFA_nop
  DW_CFA_nop
  DW_CFA_nop
  DW_CFA_nop

000065d0 0000002c 000065d4 FDE cie=00000000 pc=0009d110..0009d2a4
  DW_CFA_advance_loc: 20 to 0009d124
  DW_CFA_def_cfa_offset: 256
  DW_CFA_advance_loc: 12 to 0009d130
  DW_CFA_def_cfa: r29 ofs 32
  DW_CFA_offset: r15 at cfa-8
  DW_CFA_offset: r19 at cfa-16
  DW_CFA_offset: r30 at cfa-24
  DW_CFA_offset: r29 at cfa-32
  DW_CFA_advance_loc2: 328 to 0009d278
  DW_CFA_def_cfa: r31 ofs 256
  DW_CFA_advance_loc: 12 to 0009d284
  DW_CFA_def_cfa_offset: 0
  DW_CFA_restore: r15
  DW_CFA_restore: r19
  DW_CFA_restore: r30
  DW_CFA_restore: r29
  DW_CFA_nop

00006600 00000024 00006604 FDE cie=00000000 pc=0009d2a4..0009d2e8
  DW_CFA_advance_loc: 4 to 0009d2a8
  DW_CFA_def_cfa_offset: 32
  DW_CFA_advance_loc: 8 to 0009d2b0
  DW_CFA_def_cfa: r29 ofs 32
  DW_CFA_offset: r19 at cfa-16
  DW_CFA_offset: r30 at cfa-24
  DW_CFA_offset: r29 at cfa-32
  DW_CFA_advance_loc: 44 to 0009d2dc
  DW_CFA_def_cfa: r31 ofs 32
  DW_CFA_advance_loc: 8 to 0009d2e4
  DW_CFA_def_cfa_offset: 0
  DW_CFA_restore: r19
  DW_CFA_restore: r30
  DW_CFA_restore: r29

00006628 00000024 0000662c FDE cie=00000000 pc=0009d2e8..0009d328
  DW_CFA_advance_loc: 4 to 0009d2ec
  DW_CFA_def_cfa_offset: 32
  DW_CFA_advance_loc: 8 to 0009d2f4
  DW_CFA_def_cfa: r29 ofs 32
  DW_CFA_offset: r19 at cfa-16
  DW_CFA_offset: r30 at cfa-24
  DW_CFA_offset: r29 at cfa-32
  DW_CFA_advance_loc: 40 to 0009d31c
  DW_CFA_def_cfa: r31 ofs 32
  DW_CFA_advance_loc: 8 to 0009d324
  DW_CFA_def_cfa_offset: 0
  DW_CFA_restore: r19
  DW_CFA_restore: r30
  DW_CFA_restore: r29

00006650 00000024 00006654 FDE cie=00000000 pc=0009d328..0009d368
  DW_CFA_advance_loc: 4 to 0009d32c
  DW_CFA_def_cfa_offset: 32
  DW_CFA_advance_loc: 8 to 0009d334
  DW_CFA_def_cfa: r29 ofs 32
  DW_CFA_offset: r19 at cfa-16
  DW_CFA_offset: r30 at cfa-24
  DW_CFA_offset: r29 at cfa-32
  DW_CFA_advance_loc: 40 to 0009d35c
  DW_CFA_def_cfa: r31 ofs 32
  DW_CFA_advance_loc: 8 to 0009d364
  DW_CFA_def_cfa_offset: 0
  DW_CFA_restore: r19
  DW_CFA_restore: r30
  DW_CFA_restore: r29

00006678 00000034 0000667c FDE cie=00000000 pc=0009d368..0009d4dc
  DW_CFA_advance_loc: 20 to 0009d37c
  DW_CFA_def_cfa_offset: 272
  DW_CFA_advance_loc: 16 to 0009d38c
  DW_CFA_def_cfa: r29 ofs 48
  DW_CFA_offset: r15 at cfa-8
  DW_CFA_offset: r19 at cfa-16
  DW_CFA_offset: r20 at cfa-24
  DW_CFA_offset: r28 at cfa-32
  DW_CFA_offset: r30 at cfa-40
  DW_CFA_offset: r29 at cfa-48
  DW_CFA_advance_loc2: 288 to 0009d4ac
  DW_CFA_def_cfa: r31 ofs 272
  DW_CFA_advance_loc: 16 to 0009d4bc
  DW_CFA_def_cfa_offset: 0
  DW_CFA_restore: r15
  DW_CFA_restore: r19
  DW_CFA_restore: r20
  DW_CFA_restore: r28
  DW_CFA_restore: r30
  DW_CFA_restore: r29
  DW_CFA_nop
  DW_CFA_nop
  DW_CFA_nop

000066b0 00000024 000066b4 FDE cie=00000000 pc=0009d4dc..0009d520
  DW_CFA_advance_loc: 4 to 0009d4e0
  DW_CFA_def_cfa_offset: 32
  DW_CFA_advance_loc: 8 to 0009d4e8
  DW_CFA_def_cfa: r29 ofs 32
  DW_CFA_offset: r19 at cfa-16
  DW_CFA_offset: r30 at cfa-24
  DW_CFA_offset: r29 at cfa-32
  DW_CFA_advance_loc: 44 to 0009d514
  DW_CFA_def_cfa: r31 ofs 32
  DW_CFA_advance_loc: 8 to 0009d51c
  DW_CFA_def_cfa_offset: 0
  DW_CFA_restore: r19
  DW_CFA_restore: r30
  DW_CFA_restore: r29

000066d8 00000024 000066dc FDE cie=00000000 pc=0009d520..0009d560
  DW_CFA_advance_loc: 4 to 0009d524
  DW_CFA_def_cfa_offset: 32
  DW_CFA_advance_loc: 8 to 0009d52c
  DW_CFA_def_cfa: r29 ofs 32
  DW_CFA_offset: r19 at cfa-16
  DW_CFA_offset: r30 at cfa-24
  DW_CFA_offset: r29 at cfa-32
  DW_CFA_advance_loc: 40 to 0009d554
  DW_CFA_def_cfa: r31 ofs 32
  DW_CFA_advance_loc: 8 to 0009d55c
  DW_CFA_def_cfa_offset: 0
  DW_CFA_restore: r19
  DW_CFA_restore: r30
  DW_CFA_restore: r29

00006700 00000024 00006704 FDE cie=00000000 pc=0009d560..0009d5b0
  DW_CFA_advance_loc: 4 to 0009d564
  DW_CFA_def_cfa_offset: 32
  DW_CFA_advance_loc: 8 to 0009d56c
  DW_CFA_def_cfa: r29 ofs 32
  DW_CFA_offset: r19 at cfa-16
  DW_CFA_offset: r30 at cfa-24
  DW_CFA_offset: r29 at cfa-32
  DW_CFA_advance_loc: 56 to 0009d5a4
  DW_CFA_def_cfa: r31 ofs 32
  DW_CFA_advance_loc: 8 to 0009d5ac
  DW_CFA_def_cfa_offset: 0
  DW_CFA_restore: r19
  DW_CFA_restore: r30
  DW_CFA_restore: r29

00006728 00000024 0000672c FDE cie=00000000 pc=0009d5b0..0009d5f8
  DW_CFA_advance_loc: 4 to 0009d5b4
  DW_CFA_def_cfa_offset: 32
  DW_CFA_advance_loc: 8 to 0009d5bc
  DW_CFA_def_cfa: r29 ofs 32
  DW_CFA_offset: r19 at cfa-16
  DW_CFA_offset: r30 at cfa-24
  DW_CFA_offset: r29 at cfa-32
  DW_CFA_advance_loc: 48 to 0009d5ec
  DW_CFA_def_cfa: r31 ofs 32
  DW_CFA_advance_loc: 8 to 0009d5f4
  DW_CFA_def_cfa_offset: 0
  DW_CFA_restore: r19
  DW_CFA_restore: r30
  DW_CFA_restore: r29

00006750 00000024 00006754 FDE cie=00000000 pc=0009d5f8..0009d63c
  DW_CFA_advance_loc: 4 to 0009d5fc
  DW_CFA_def_cfa_offset: 32
  DW_CFA_advance_loc: 8 to 0009d604
  DW_CFA_def_cfa: r29 ofs 32
  DW_CFA_offset: r19 at cfa-16
  DW_CFA_offset: r30 at cfa-24
  DW_CFA_offset: r29 at cfa-32
  DW_CFA_advance_loc: 44 to 0009d630
  DW_CFA_def_cfa: r31 ofs 32
  DW_CFA_advance_loc: 8 to 0009d638
  DW_CFA_def_cfa_offset: 0
  DW_CFA_restore: r19
  DW_CFA_restore: r30
  DW_CFA_restore: r29

00006778 00000034 0000677c FDE cie=00000000 pc=0009d63c..0009d674
  DW_CFA_advance_loc: 4 to 0009d640
  DW_CFA_def_cfa_offset: 16
  DW_CFA_advance_loc: 4 to 0009d644
  DW_CFA_def_cfa: r29 ofs 16
  DW_CFA_offset: r30 at cfa-8
  DW_CFA_offset: r29 at cfa-16
  DW_CFA_remember_state
  DW_CFA_advance_loc: 24 to 0009d65c
  DW_CFA_def_cfa: r31 ofs 16
  DW_CFA_advance_loc: 4 to 0009d660
  DW_CFA_def_cfa_offset: 0
  DW_CFA_restore: r30
  DW_CFA_restore: r29
  DW_CFA_advance_loc: 4 to 0009d664
  DW_CFA_restore_state
  DW_CFA_advance_loc: 8 to 0009d66c
  DW_CFA_def_cfa: r31 ofs 16
  DW_CFA_advance_loc: 4 to 0009d670
  DW_CFA_def_cfa_offset: 0
  DW_CFA_restore: r30
  DW_CFA_restore: r29
  DW_CFA_nop
  DW_CFA_nop
  DW_CFA_nop
  DW_CFA_nop
  DW_CFA_nop
  DW_CFA_nop
  DW_CFA_nop

000067b0 00000024 000067b4 FDE cie=00000000 pc=0009d674..0009d6b8
  DW_CFA_advance_loc: 4 to 0009d678
  DW_CFA_def_cfa_offset: 32
  DW_CFA_advance_loc: 8 to 0009d680
  DW_CFA_def_cfa: r29 ofs 32
  DW_CFA_offset: r19 at cfa-16
  DW_CFA_offset: r30 at cfa-24
  DW_CFA_offset: r29 at cfa-32
  DW_CFA_advance_loc: 44 to 0009d6ac
  DW_CFA_def_cfa: r31 ofs 32
  DW_CFA_advance_loc: 8 to 0009d6b4
  DW_CFA_def_cfa_offset: 0
  DW_CFA_restore: r19
  DW_CFA_restore: r30
  DW_CFA_restore: r29

000067d8 00000024 000067dc FDE cie=00000000 pc=0009d6b8..0009d6f8
  DW_CFA_advance_loc: 4 to 0009d6bc
  DW_CFA_def_cfa_offset: 32
  DW_CFA_advance_loc: 8 to 0009d6c4
  DW_CFA_def_cfa: r29 ofs 32
  DW_CFA_offset: r19 at cfa-16
  DW_CFA_offset: r30 at cfa-24
  DW_CFA_offset: r29 at cfa-32
  DW_CFA_advance_loc: 40 to 0009d6ec
  DW_CFA_def_cfa: r31 ofs 32
  DW_CFA_advance_loc: 8 to 0009d6f4
  DW_CFA_def_cfa_offset: 0
  DW_CFA_restore: r19
  DW_CFA_restore: r30
  DW_CFA_restore: r29

00006800 00000024 00006804 FDE cie=00000000 pc=0009d6f8..0009d738
  DW_CFA_advance_loc: 4 to 0009d6fc
  DW_CFA_def_cfa_offset: 32
  DW_CFA_advance_loc: 8 to 0009d704
  DW_CFA_def_cfa: r29 ofs 32
  DW_CFA_offset: r19 at cfa-16
  DW_CFA_offset: r30 at cfa-24
  DW_CFA_offset: r29 at cfa-32
  DW_CFA_advance_loc: 40 to 0009d72c
  DW_CFA_def_cfa: r31 ofs 32
  DW_CFA_advance_loc: 8 to 0009d734
  DW_CFA_def_cfa_offset: 0
  DW_CFA_restore: r19
  DW_CFA_restore: r30
  DW_CFA_restore: r29

00006828 0000002c 0000682c FDE cie=00000000 pc=0009d738..0009d7c0
  DW_CFA_advance_loc: 20 to 0009d74c
  DW_CFA_def_cfa_offset: 64
  DW_CFA_advance_loc: 12 to 0009d758
  DW_CFA_def_cfa: r29 ofs 32
  DW_CFA_offset: r15 at cfa-8
  DW_CFA_offset: r19 at cfa-16
  DW_CFA_offset: r30 at cfa-24
  DW_CFA_offset: r29 at cfa-32
  DW_CFA_advance_loc: 60 to 0009d794
  DW_CFA_def_cfa: r31 ofs 64
  DW_CFA_advance_loc: 12 to 0009d7a0
  DW_CFA_def_cfa_offset: 0
  DW_CFA_restore: r15
  DW_CFA_restore: r19
  DW_CFA_restore: r30
  DW_CFA_restore: r29
  DW_CFA_nop
  DW_CFA_nop
  DW_CFA_nop
  DW_CFA_nop
  DW_CFA_nop

00006858 00000014 0000685c FDE cie=00000000 pc=0009d7c0..0009d824
  DW_CFA_nop
  DW_CFA_nop
  DW_CFA_nop
  DW_CFA_nop
  DW_CFA_nop
  DW_CFA_nop
  DW_CFA_nop

00006870 00000024 00006874 FDE cie=00000000 pc=0009d824..0009d860
  DW_CFA_advance_loc: 4 to 0009d828
  DW_CFA_def_cfa_offset: 32
  DW_CFA_advance_loc: 8 to 0009d830
  DW_CFA_def_cfa: r29 ofs 32
  DW_CFA_offset: r19 at cfa-16
  DW_CFA_offset: r30 at cfa-24
  DW_CFA_offset: r29 at cfa-32
  DW_CFA_advance_loc: 36 to 0009d854
  DW_CFA_def_cfa: r31 ofs 32
  DW_CFA_advance_loc: 8 to 0009d85c
  DW_CFA_def_cfa_offset: 0
  DW_CFA_restore: r19
  DW_CFA_restore: r30
  DW_CFA_restore: r29

00006898 00000024 0000689c FDE cie=00000000 pc=0009d860..0009d8a4
  DW_CFA_advance_loc: 4 to 0009d864
  DW_CFA_def_cfa_offset: 32
  DW_CFA_advance_loc: 8 to 0009d86c
  DW_CFA_def_cfa: r29 ofs 32
  DW_CFA_offset: r19 at cfa-16
  DW_CFA_offset: r30 at cfa-24
  DW_CFA_offset: r29 at cfa-32
  DW_CFA_advance_loc: 44 to 0009d898
  DW_CFA_def_cfa: r31 ofs 32
  DW_CFA_advance_loc: 8 to 0009d8a0
  DW_CFA_def_cfa_offset: 0
  DW_CFA_restore: r19
  DW_CFA_restore: r30
  DW_CFA_restore: r29

000068c0 0000002c 000068c4 FDE cie=00000000 pc=0009d8a4..0009d95c
  DW_CFA_advance_loc: 20 to 0009d8b8
  DW_CFA_def_cfa_offset: 48
  DW_CFA_advance_loc: 12 to 0009d8c4
  DW_CFA_def_cfa: r29 ofs 32
  DW_CFA_offset: r15 at cfa-8
  DW_CFA_offset: r19 at cfa-16
  DW_CFA_offset: r30 at cfa-24
  DW_CFA_offset: r29 at cfa-32
  DW_CFA_advance_loc1: 108 to 0009d930
  DW_CFA_def_cfa: r31 ofs 48
  DW_CFA_advance_loc: 12 to 0009d93c
  DW_CFA_def_cfa_offset: 0
  DW_CFA_restore: r15
  DW_CFA_restore: r19
  DW_CFA_restore: r30
  DW_CFA_restore: r29
  DW_CFA_nop
  DW_CFA_nop
  DW_CFA_nop
  DW_CFA_nop

000068f0 00000024 000068f4 FDE cie=00000000 pc=0009d95c..0009d9b0
  DW_CFA_advance_loc: 4 to 0009d960
  DW_CFA_def_cfa_offset: 32
  DW_CFA_advance_loc: 8 to 0009d968
  DW_CFA_def_cfa: r29 ofs 32
  DW_CFA_offset: r19 at cfa-16
  DW_CFA_offset: r30 at cfa-24
  DW_CFA_offset: r29 at cfa-32
  DW_CFA_advance_loc: 60 to 0009d9a4
  DW_CFA_def_cfa: r31 ofs 32
  DW_CFA_advance_loc: 8 to 0009d9ac
  DW_CFA_def_cfa_offset: 0
  DW_CFA_restore: r19
  DW_CFA_restore: r30
  DW_CFA_restore: r29

00006918 00000024 0000691c FDE cie=00000000 pc=0009d9b0..0009d9f8
  DW_CFA_advance_loc: 4 to 0009d9b4
  DW_CFA_def_cfa_offset: 32
  DW_CFA_advance_loc: 8 to 0009d9bc
  DW_CFA_def_cfa: r29 ofs 32
  DW_CFA_offset: r19 at cfa-16
  DW_CFA_offset: r30 at cfa-24
  DW_CFA_offset: r29 at cfa-32
  DW_CFA_advance_loc: 48 to 0009d9ec
  DW_CFA_def_cfa: r31 ofs 32
  DW_CFA_advance_loc: 8 to 0009d9f4
  DW_CFA_def_cfa_offset: 0
  DW_CFA_restore: r19
  DW_CFA_restore: r30
  DW_CFA_restore: r29

00006940 0000002c 00006944 FDE cie=00000000 pc=0009d9f8..0009da78
  DW_CFA_advance_loc: 20 to 0009da0c
  DW_CFA_def_cfa_offset: 48
  DW_CFA_advance_loc: 12 to 0009da18
  DW_CFA_def_cfa: r29 ofs 32
  DW_CFA_offset: r15 at cfa-8
  DW_CFA_offset: r19 at cfa-16
  DW_CFA_offset: r30 at cfa-24
  DW_CFA_offset: r29 at cfa-32
  DW_CFA_advance_loc: 52 to 0009da4c
  DW_CFA_def_cfa: r31 ofs 48
  DW_CFA_advance_loc: 12 to 0009da58
  DW_CFA_def_cfa_offset: 0
  DW_CFA_restore: r15
  DW_CFA_restore: r19
  DW_CFA_restore: r30
  DW_CFA_restore: r29
  DW_CFA_nop
  DW_CFA_nop
  DW_CFA_nop
  DW_CFA_nop
  DW_CFA_nop

00006970 00000024 00006974 FDE cie=00000000 pc=0009da78..0009dab8
  DW_CFA_advance_loc: 4 to 0009da7c
  DW_CFA_def_cfa_offset: 32
  DW_CFA_advance_loc: 8 to 0009da84
  DW_CFA_def_cfa: r29 ofs 32
  DW_CFA_offset: r19 at cfa-16
  DW_CFA_offset: r30 at cfa-24
  DW_CFA_offset: r29 at cfa-32
  DW_CFA_advance_loc: 40 to 0009daac
  DW_CFA_def_cfa: r31 ofs 32
  DW_CFA_advance_loc: 8 to 0009dab4
  DW_CFA_def_cfa_offset: 0
  DW_CFA_restore: r19
  DW_CFA_restore: r30
  DW_CFA_restore: r29

00006998 00000024 0000699c FDE cie=00000000 pc=0009dab8..0009daf4
  DW_CFA_advance_loc: 4 to 0009dabc
  DW_CFA_def_cfa_offset: 32
  DW_CFA_advance_loc: 8 to 0009dac4
  DW_CFA_def_cfa: r29 ofs 32
  DW_CFA_offset: r19 at cfa-16
  DW_CFA_offset: r30 at cfa-24
  DW_CFA_offset: r29 at cfa-32
  DW_CFA_advance_loc: 36 to 0009dae8
  DW_CFA_def_cfa: r31 ofs 32
  DW_CFA_advance_loc: 8 to 0009daf0
  DW_CFA_def_cfa_offset: 0
  DW_CFA_restore: r19
  DW_CFA_restore: r30
  DW_CFA_restore: r29

000069c0 00000024 000069c4 FDE cie=00000000 pc=0009daf4..0009db38
  DW_CFA_advance_loc: 4 to 0009daf8
  DW_CFA_def_cfa_offset: 32
  DW_CFA_advance_loc: 8 to 0009db00
  DW_CFA_def_cfa: r29 ofs 32
  DW_CFA_offset: r19 at cfa-16
  DW_CFA_offset: r30 at cfa-24
  DW_CFA_offset: r29 at cfa-32
  DW_CFA_advance_loc: 44 to 0009db2c
  DW_CFA_def_cfa: r31 ofs 32
  DW_CFA_advance_loc: 8 to 0009db34
  DW_CFA_def_cfa_offset: 0
  DW_CFA_restore: r19
  DW_CFA_restore: r30
  DW_CFA_restore: r29

000069e8 00000024 000069ec FDE cie=00000000 pc=0009db38..0009db78
  DW_CFA_advance_loc: 4 to 0009db3c
  DW_CFA_def_cfa_offset: 32
  DW_CFA_advance_loc: 8 to 0009db44
  DW_CFA_def_cfa: r29 ofs 32
  DW_CFA_offset: r19 at cfa-16
  DW_CFA_offset: r30 at cfa-24
  DW_CFA_offset: r29 at cfa-32
  DW_CFA_advance_loc: 40 to 0009db6c
  DW_CFA_def_cfa: r31 ofs 32
  DW_CFA_advance_loc: 8 to 0009db74
  DW_CFA_def_cfa_offset: 0
  DW_CFA_restore: r19
  DW_CFA_restore: r30
  DW_CFA_restore: r29

00006a10 00000024 00006a14 FDE cie=00000000 pc=0009db78..0009dbb4
  DW_CFA_advance_loc: 4 to 0009db7c
  DW_CFA_def_cfa_offset: 32
  DW_CFA_advance_loc: 8 to 0009db84
  DW_CFA_def_cfa: r29 ofs 32
  DW_CFA_offset: r19 at cfa-16
  DW_CFA_offset: r30 at cfa-24
  DW_CFA_offset: r29 at cfa-32
  DW_CFA_advance_loc: 36 to 0009dba8
  DW_CFA_def_cfa: r31 ofs 32
  DW_CFA_advance_loc: 8 to 0009dbb0
  DW_CFA_def_cfa_offset: 0
  DW_CFA_restore: r19
  DW_CFA_restore: r30
  DW_CFA_restore: r29

00006a38 00000024 00006a3c FDE cie=00000000 pc=0009dbb4..0009dbfc
  DW_CFA_advance_loc: 4 to 0009dbb8
  DW_CFA_def_cfa_offset: 32
  DW_CFA_advance_loc: 8 to 0009dbc0
  DW_CFA_def_cfa: r29 ofs 32
  DW_CFA_offset: r19 at cfa-16
  DW_CFA_offset: r30 at cfa-24
  DW_CFA_offset: r29 at cfa-32
  DW_CFA_advance_loc: 48 to 0009dbf0
  DW_CFA_def_cfa: r31 ofs 32
  DW_CFA_advance_loc: 8 to 0009dbf8
  DW_CFA_def_cfa_offset: 0
  DW_CFA_restore: r19
  DW_CFA_restore: r30
  DW_CFA_restore: r29

00006a60 00000024 00006a64 FDE cie=00000000 pc=0009dbfc..0009dc40
  DW_CFA_advance_loc: 4 to 0009dc00
  DW_CFA_def_cfa_offset: 32
  DW_CFA_advance_loc: 8 to 0009dc08
  DW_CFA_def_cfa: r29 ofs 32
  DW_CFA_offset: r19 at cfa-16
  DW_CFA_offset: r30 at cfa-24
  DW_CFA_offset: r29 at cfa-32
  DW_CFA_advance_loc: 44 to 0009dc34
  DW_CFA_def_cfa: r31 ofs 32
  DW_CFA_advance_loc: 8 to 0009dc3c
  DW_CFA_def_cfa_offset: 0
  DW_CFA_restore: r19
  DW_CFA_restore: r30
  DW_CFA_restore: r29

00006a88 00000024 00006a8c FDE cie=00000000 pc=0009dc40..0009dc84
  DW_CFA_advance_loc: 4 to 0009dc44
  DW_CFA_def_cfa_offset: 32
  DW_CFA_advance_loc: 8 to 0009dc4c
  DW_CFA_def_cfa: r29 ofs 32
  DW_CFA_offset: r19 at cfa-16
  DW_CFA_offset: r30 at cfa-24
  DW_CFA_offset: r29 at cfa-32
  DW_CFA_advance_loc: 44 to 0009dc78
  DW_CFA_def_cfa: r31 ofs 32
  DW_CFA_advance_loc: 8 to 0009dc80
  DW_CFA_def_cfa_offset: 0
  DW_CFA_restore: r19
  DW_CFA_restore: r30
  DW_CFA_restore: r29

00006ab0 00000024 00006ab4 FDE cie=00000000 pc=0009dc84..0009dcc4
  DW_CFA_advance_loc: 4 to 0009dc88
  DW_CFA_def_cfa_offset: 32
  DW_CFA_advance_loc: 8 to 0009dc90
  DW_CFA_def_cfa: r29 ofs 32
  DW_CFA_offset: r19 at cfa-16
  DW_CFA_offset: r30 at cfa-24
  DW_CFA_offset: r29 at cfa-32
  DW_CFA_advance_loc: 40 to 0009dcb8
  DW_CFA_def_cfa: r31 ofs 32
  DW_CFA_advance_loc: 8 to 0009dcc0
  DW_CFA_def_cfa_offset: 0
  DW_CFA_restore: r19
  DW_CFA_restore: r30
  DW_CFA_restore: r29

00006ad8 00000024 00006adc FDE cie=00000000 pc=0009dcc4..0009dd04
  DW_CFA_advance_loc: 4 to 0009dcc8
  DW_CFA_def_cfa_offset: 32
  DW_CFA_advance_loc: 8 to 0009dcd0
  DW_CFA_def_cfa: r29 ofs 32
  DW_CFA_offset: r19 at cfa-16
  DW_CFA_offset: r30 at cfa-24
  DW_CFA_offset: r29 at cfa-32
  DW_CFA_advance_loc: 40 to 0009dcf8
  DW_CFA_def_cfa: r31 ofs 32
  DW_CFA_advance_loc: 8 to 0009dd00
  DW_CFA_def_cfa_offset: 0
  DW_CFA_restore: r19
  DW_CFA_restore: r30
  DW_CFA_restore: r29

00006b00 0000002c 00006b04 FDE cie=00000000 pc=0009dd04..0009ddf8
  DW_CFA_advance_loc: 20 to 0009dd18
  DW_CFA_def_cfa_offset: 64
  DW_CFA_advance_loc: 12 to 0009dd24
  DW_CFA_def_cfa: r29 ofs 32
  DW_CFA_offset: r15 at cfa-8
  DW_CFA_offset: r19 at cfa-16
  DW_CFA_offset: r30 at cfa-24
  DW_CFA_offset: r29 at cfa-32
  DW_CFA_advance_loc1: 168 to 0009ddcc
  DW_CFA_def_cfa: r31 ofs 64
  DW_CFA_advance_loc: 12 to 0009ddd8
  DW_CFA_def_cfa_offset: 0
  DW_CFA_restore: r15
  DW_CFA_restore: r19
  DW_CFA_restore: r30
  DW_CFA_restore: r29
  DW_CFA_nop
  DW_CFA_nop
  DW_CFA_nop
  DW_CFA_nop

00006b30 00000024 00006b34 FDE cie=00000000 pc=0009ddf8..0009de34
  DW_CFA_advance_loc: 4 to 0009ddfc
  DW_CFA_def_cfa_offset: 32
  DW_CFA_advance_loc: 8 to 0009de04
  DW_CFA_def_cfa: r29 ofs 32
  DW_CFA_offset: r19 at cfa-16
  DW_CFA_offset: r30 at cfa-24
  DW_CFA_offset: r29 at cfa-32
  DW_CFA_advance_loc: 36 to 0009de28
  DW_CFA_def_cfa: r31 ofs 32
  DW_CFA_advance_loc: 8 to 0009de30
  DW_CFA_def_cfa_offset: 0
  DW_CFA_restore: r19
  DW_CFA_restore: r30
  DW_CFA_restore: r29

00006b58 00000024 00006b5c FDE cie=00000000 pc=0009de34..0009de78
  DW_CFA_advance_loc: 4 to 0009de38
  DW_CFA_def_cfa_offset: 32
  DW_CFA_advance_loc: 8 to 0009de40
  DW_CFA_def_cfa: r29 ofs 32
  DW_CFA_offset: r19 at cfa-16
  DW_CFA_offset: r30 at cfa-24
  DW_CFA_offset: r29 at cfa-32
  DW_CFA_advance_loc: 44 to 0009de6c
  DW_CFA_def_cfa: r31 ofs 32
  DW_CFA_advance_loc: 8 to 0009de74
  DW_CFA_def_cfa_offset: 0
  DW_CFA_restore: r19
  DW_CFA_restore: r30
  DW_CFA_restore: r29

00006b80 0000002c 00006b84 FDE cie=00000000 pc=0009de78..0009ded8
  DW_CFA_advance_loc: 4 to 0009de7c
  DW_CFA_def_cfa_offset: 32
  DW_CFA_advance_loc: 8 to 0009de84
  DW_CFA_def_cfa: r29 ofs 32
  DW_CFA_offset: r19 at cfa-16
  DW_CFA_offset: r30 at cfa-24
  DW_CFA_offset: r29 at cfa-32
  DW_CFA_advance_loc1: 72 to 0009decc
  DW_CFA_def_cfa: r31 ofs 32
  DW_CFA_advance_loc: 8 to 0009ded4
  DW_CFA_def_cfa_offset: 0
  DW_CFA_restore: r19
  DW_CFA_restore: r30
  DW_CFA_restore: r29
  DW_CFA_nop
  DW_CFA_nop
  DW_CFA_nop
  DW_CFA_nop
  DW_CFA_nop
  DW_CFA_nop
  DW_CFA_nop

00006bb0 00000024 00006bb4 FDE cie=00000000 pc=0009ded8..0009df28
  DW_CFA_advance_loc: 4 to 0009dedc
  DW_CFA_def_cfa_offset: 32
  DW_CFA_advance_loc: 8 to 0009dee4
  DW_CFA_def_cfa: r29 ofs 32
  DW_CFA_offset: r19 at cfa-16
  DW_CFA_offset: r30 at cfa-24
  DW_CFA_offset: r29 at cfa-32
  DW_CFA_advance_loc: 56 to 0009df1c
  DW_CFA_def_cfa: r31 ofs 32
  DW_CFA_advance_loc: 8 to 0009df24
  DW_CFA_def_cfa_offset: 0
  DW_CFA_restore: r19
  DW_CFA_restore: r30
  DW_CFA_restore: r29

00006bd8 00000024 00006bdc FDE cie=00000000 pc=0009df28..0009df64
  DW_CFA_advance_loc: 4 to 0009df2c
  DW_CFA_def_cfa_offset: 32
  DW_CFA_advance_loc: 8 to 0009df34
  DW_CFA_def_cfa: r29 ofs 32
  DW_CFA_offset: r19 at cfa-16
  DW_CFA_offset: r30 at cfa-24
  DW_CFA_offset: r29 at cfa-32
  DW_CFA_advance_loc: 36 to 0009df58
  DW_CFA_def_cfa: r31 ofs 32
  DW_CFA_advance_loc: 8 to 0009df60
  DW_CFA_def_cfa_offset: 0
  DW_CFA_restore: r19
  DW_CFA_restore: r30
  DW_CFA_restore: r29

00006c00 00000024 00006c04 FDE cie=00000000 pc=0009df64..0009dfa0
  DW_CFA_advance_loc: 4 to 0009df68
  DW_CFA_def_cfa_offset: 32
  DW_CFA_advance_loc: 8 to 0009df70
  DW_CFA_def_cfa: r29 ofs 32
  DW_CFA_offset: r19 at cfa-16
  DW_CFA_offset: r30 at cfa-24
  DW_CFA_offset: r29 at cfa-32
  DW_CFA_advance_loc: 36 to 0009df94
  DW_CFA_def_cfa: r31 ofs 32
  DW_CFA_advance_loc: 8 to 0009df9c
  DW_CFA_def_cfa_offset: 0
  DW_CFA_restore: r19
  DW_CFA_restore: r30
  DW_CFA_restore: r29

00006c28 00000024 00006c2c FDE cie=00000000 pc=0009dfa0..0009dfe0
  DW_CFA_advance_loc: 4 to 0009dfa4
  DW_CFA_def_cfa_offset: 32
  DW_CFA_advance_loc: 8 to 0009dfac
  DW_CFA_def_cfa: r29 ofs 32
  DW_CFA_offset: r19 at cfa-16
  DW_CFA_offset: r30 at cfa-24
  DW_CFA_offset: r29 at cfa-32
  DW_CFA_advance_loc: 40 to 0009dfd4
  DW_CFA_def_cfa: r31 ofs 32
  DW_CFA_advance_loc: 8 to 0009dfdc
  DW_CFA_def_cfa_offset: 0
  DW_CFA_restore: r19
  DW_CFA_restore: r30
  DW_CFA_restore: r29

00006c50 00000024 00006c54 FDE cie=00000000 pc=0009dfe0..0009e01c
  DW_CFA_advance_loc: 4 to 0009dfe4
  DW_CFA_def_cfa_offset: 32
  DW_CFA_advance_loc: 8 to 0009dfec
  DW_CFA_def_cfa: r29 ofs 32
  DW_CFA_offset: r19 at cfa-16
  DW_CFA_offset: r30 at cfa-24
  DW_CFA_offset: r29 at cfa-32
  DW_CFA_advance_loc: 36 to 0009e010
  DW_CFA_def_cfa: r31 ofs 32
  DW_CFA_advance_loc: 8 to 0009e018
  DW_CFA_def_cfa_offset: 0
  DW_CFA_restore: r19
  DW_CFA_restore: r30
  DW_CFA_restore: r29

00006c78 00000024 00006c7c FDE cie=00000000 pc=0009e01c..0009e058
  DW_CFA_advance_loc: 4 to 0009e020
  DW_CFA_def_cfa_offset: 32
  DW_CFA_advance_loc: 8 to 0009e028
  DW_CFA_def_cfa: r29 ofs 32
  DW_CFA_offset: r19 at cfa-16
  DW_CFA_offset: r30 at cfa-24
  DW_CFA_offset: r29 at cfa-32
  DW_CFA_advance_loc: 36 to 0009e04c
  DW_CFA_def_cfa: r31 ofs 32
  DW_CFA_advance_loc: 8 to 0009e054
  DW_CFA_def_cfa_offset: 0
  DW_CFA_restore: r19
  DW_CFA_restore: r30
  DW_CFA_restore: r29

00006ca0 00000024 00006ca4 FDE cie=00000000 pc=0009e058..0009e098
  DW_CFA_advance_loc: 4 to 0009e05c
  DW_CFA_def_cfa_offset: 32
  DW_CFA_advance_loc: 8 to 0009e064
  DW_CFA_def_cfa: r29 ofs 32
  DW_CFA_offset: r19 at cfa-16
  DW_CFA_offset: r30 at cfa-24
  DW_CFA_offset: r29 at cfa-32
  DW_CFA_advance_loc: 40 to 0009e08c
  DW_CFA_def_cfa: r31 ofs 32
  DW_CFA_advance_loc: 8 to 0009e094
  DW_CFA_def_cfa_offset: 0
  DW_CFA_restore: r19
  DW_CFA_restore: r30
  DW_CFA_restore: r29

00006cc8 00000024 00006ccc FDE cie=00000000 pc=0009e098..0009e0d8
  DW_CFA_advance_loc: 4 to 0009e09c
  DW_CFA_def_cfa_offset: 32
  DW_CFA_advance_loc: 8 to 0009e0a4
  DW_CFA_def_cfa: r29 ofs 32
  DW_CFA_offset: r19 at cfa-16
  DW_CFA_offset: r30 at cfa-24
  DW_CFA_offset: r29 at cfa-32
  DW_CFA_advance_loc: 40 to 0009e0cc
  DW_CFA_def_cfa: r31 ofs 32
  DW_CFA_advance_loc: 8 to 0009e0d4
  DW_CFA_def_cfa_offset: 0
  DW_CFA_restore: r19
  DW_CFA_restore: r30
  DW_CFA_restore: r29

00006cf0 00000024 00006cf4 FDE cie=00000000 pc=0009e0d8..0009e118
  DW_CFA_advance_loc: 4 to 0009e0dc
  DW_CFA_def_cfa_offset: 32
  DW_CFA_advance_loc: 8 to 0009e0e4
  DW_CFA_def_cfa: r29 ofs 32
  DW_CFA_offset: r19 at cfa-16
  DW_CFA_offset: r30 at cfa-24
  DW_CFA_offset: r29 at cfa-32
  DW_CFA_advance_loc: 40 to 0009e10c
  DW_CFA_def_cfa: r31 ofs 32
  DW_CFA_advance_loc: 8 to 0009e114
  DW_CFA_def_cfa_offset: 0
  DW_CFA_restore: r19
  DW_CFA_restore: r30
  DW_CFA_restore: r29

00006d18 00000024 00006d1c FDE cie=00000000 pc=0009e118..0009e15c
  DW_CFA_advance_loc: 4 to 0009e11c
  DW_CFA_def_cfa_offset: 32
  DW_CFA_advance_loc: 8 to 0009e124
  DW_CFA_def_cfa: r29 ofs 32
  DW_CFA_offset: r19 at cfa-16
  DW_CFA_offset: r30 at cfa-24
  DW_CFA_offset: r29 at cfa-32
  DW_CFA_advance_loc: 44 to 0009e150
  DW_CFA_def_cfa: r31 ofs 32
  DW_CFA_advance_loc: 8 to 0009e158
  DW_CFA_def_cfa_offset: 0
  DW_CFA_restore: r19
  DW_CFA_restore: r30
  DW_CFA_restore: r29

00006d40 00000024 00006d44 FDE cie=00000000 pc=0009e15c..0009e198
  DW_CFA_advance_loc: 4 to 0009e160
  DW_CFA_def_cfa_offset: 32
  DW_CFA_advance_loc: 8 to 0009e168
  DW_CFA_def_cfa: r29 ofs 32
  DW_CFA_offset: r19 at cfa-16
  DW_CFA_offset: r30 at cfa-24
  DW_CFA_offset: r29 at cfa-32
  DW_CFA_advance_loc: 36 to 0009e18c
  DW_CFA_def_cfa: r31 ofs 32
  DW_CFA_advance_loc: 8 to 0009e194
  DW_CFA_def_cfa_offset: 0
  DW_CFA_restore: r19
  DW_CFA_restore: r30
  DW_CFA_restore: r29

00006d68 00000024 00006d6c FDE cie=00000000 pc=0009e198..0009e1d4
  DW_CFA_advance_loc: 4 to 0009e19c
  DW_CFA_def_cfa_offset: 32
  DW_CFA_advance_loc: 8 to 0009e1a4
  DW_CFA_def_cfa: r29 ofs 32
  DW_CFA_offset: r19 at cfa-16
  DW_CFA_offset: r30 at cfa-24
  DW_CFA_offset: r29 at cfa-32
  DW_CFA_advance_loc: 36 to 0009e1c8
  DW_CFA_def_cfa: r31 ofs 32
  DW_CFA_advance_loc: 8 to 0009e1d0
  DW_CFA_def_cfa_offset: 0
  DW_CFA_restore: r19
  DW_CFA_restore: r30
  DW_CFA_restore: r29

00006d90 00000024 00006d94 FDE cie=00000000 pc=0009e1d4..0009e214
  DW_CFA_advance_loc: 4 to 0009e1d8
  DW_CFA_def_cfa_offset: 32
  DW_CFA_advance_loc: 8 to 0009e1e0
  DW_CFA_def_cfa: r29 ofs 32
  DW_CFA_offset: r19 at cfa-16
  DW_CFA_offset: r30 at cfa-24
  DW_CFA_offset: r29 at cfa-32
  DW_CFA_advance_loc: 40 to 0009e208
  DW_CFA_def_cfa: r31 ofs 32
  DW_CFA_advance_loc: 8 to 0009e210
  DW_CFA_def_cfa_offset: 0
  DW_CFA_restore: r19
  DW_CFA_restore: r30
  DW_CFA_restore: r29

00006db8 00000044 00006dbc FDE cie=00000000 pc=0009e214..0009e3f0
  DW_CFA_advance_loc: 4 to 0009e218
  DW_CFA_def_cfa_offset: 112
  DW_CFA_advance_loc: 28 to 0009e234
  DW_CFA_def_cfa: r29 ofs 96
  DW_CFA_offset: r19 at cfa-8
  DW_CFA_offset: r20 at cfa-16
  DW_CFA_offset: r21 at cfa-24
  DW_CFA_offset: r22 at cfa-32
  DW_CFA_offset: r23 at cfa-40
  DW_CFA_offset: r24 at cfa-48
  DW_CFA_offset: r25 at cfa-56
  DW_CFA_offset: r26 at cfa-64
  DW_CFA_offset: r27 at cfa-72
  DW_CFA_offset: r28 at cfa-80
  DW_CFA_offset: r30 at cfa-88
  DW_CFA_offset: r29 at cfa-96
  DW_CFA_remember_state
  DW_CFA_advance_loc1: 96 to 0009e294
  DW_CFA_def_cfa: r31 ofs 112
  DW_CFA_advance_loc: 28 to 0009e2b0
  DW_CFA_def_cfa_offset: 0
  DW_CFA_restore: r19
  DW_CFA_restore: r20
  DW_CFA_restore: r21
  DW_CFA_restore: r22
  DW_CFA_restore: r23
  DW_CFA_restore: r24
  DW_CFA_restore: r25
  DW_CFA_restore: r26
  DW_CFA_restore: r27
  DW_CFA_restore: r28
  DW_CFA_restore: r30
  DW_CFA_restore: r29
  DW_CFA_advance_loc: 4 to 0009e2b4
  DW_CFA_restore_state
  DW_CFA_nop

00006e00 00000024 00006e04 FDE cie=00000000 pc=0009e3f0..0009e44c
  DW_CFA_advance_loc: 4 to 0009e3f4
  DW_CFA_def_cfa_offset: 16
  DW_CFA_advance_loc: 4 to 0009e3f8
  DW_CFA_def_cfa: r29 ofs 16
  DW_CFA_offset: r30 at cfa-8
  DW_CFA_offset: r29 at cfa-16
  DW_CFA_advance_loc1: 76 to 0009e444
  DW_CFA_def_cfa: r31 ofs 16
  DW_CFA_advance_loc: 4 to 0009e448
  DW_CFA_def_cfa_offset: 0
  DW_CFA_restore: r30
  DW_CFA_restore: r29
  DW_CFA_nop
  DW_CFA_nop

00006e28 00000024 00006e2c FDE cie=00000000 pc=0009e44c..0009e470
  DW_CFA_advance_loc: 4 to 0009e450
  DW_CFA_def_cfa_offset: 16
  DW_CFA_advance_loc: 4 to 0009e454
  DW_CFA_def_cfa: r29 ofs 16
  DW_CFA_offset: r30 at cfa-8
  DW_CFA_offset: r29 at cfa-16
  DW_CFA_advance_loc: 20 to 0009e468
  DW_CFA_def_cfa: r31 ofs 16
  DW_CFA_advance_loc: 4 to 0009e46c
  DW_CFA_def_cfa_offset: 0
  DW_CFA_restore: r30
  DW_CFA_restore: r29
  DW_CFA_nop
  DW_CFA_nop
  DW_CFA_nop

00006e50 0000002c 00006e54 FDE cie=00000000 pc=0009e470..0009e56c
  DW_CFA_advance_loc: 4 to 0009e474
  DW_CFA_def_cfa_offset: 32
  DW_CFA_advance_loc: 8 to 0009e47c
  DW_CFA_def_cfa: r29 ofs 32
  DW_CFA_offset: r19 at cfa-16
  DW_CFA_offset: r30 at cfa-24
  DW_CFA_offset: r29 at cfa-32
  DW_CFA_remember_state
  DW_CFA_advance_loc1: 212 to 0009e550
  DW_CFA_def_cfa: r31 ofs 32
  DW_CFA_advance_loc: 8 to 0009e558
  DW_CFA_def_cfa_offset: 0
  DW_CFA_restore: r19
  DW_CFA_restore: r30
  DW_CFA_restore: r29
  DW_CFA_advance_loc: 4 to 0009e55c
  DW_CFA_restore_state
  DW_CFA_nop
  DW_CFA_nop
  DW_CFA_nop
  DW_CFA_nop

00006e80 0000004c 00006e84 FDE cie=00000000 pc=0009e56c..0009e9c4
  DW_CFA_advance_loc: 20 to 0009e580
  DW_CFA_def_cfa_offset: 112
  DW_CFA_advance_loc: 28 to 0009e59c
  DW_CFA_def_cfa: r29 ofs 112
  DW_CFA_offset: r15 at cfa-8
  DW_CFA_offset: r19 at cfa-16
  DW_CFA_offset: r20 at cfa-24
  DW_CFA_offset: r21 at cfa-32
  DW_CFA_offset: r22 at cfa-40
  DW_CFA_offset: r23 at cfa-48
  DW_CFA_offset: r24 at cfa-56
  DW_CFA_offset: r25 at cfa-64
  DW_CFA_offset: r26 at cfa-72
  DW_CFA_offset: r27 at cfa-80
  DW_CFA_offset: r28 at cfa-96
  DW_CFA_offset: r30 at cfa-104
  DW_CFA_offset: r29 at cfa-112
  DW_CFA_remember_state
  DW_CFA_advance_loc2: 300 to 0009e6c8
  DW_CFA_def_cfa: r31 ofs 112
  DW_CFA_advance_loc: 28 to 0009e6e4
  DW_CFA_def_cfa_offset: 0
  DW_CFA_restore: r15
  DW_CFA_restore: r19
  DW_CFA_restore: r20
  DW_CFA_restore: r21
  DW_CFA_restore: r22
  DW_CFA_restore: r23
  DW_CFA_restore: r24
  DW_CFA_restore: r25
  DW_CFA_restore: r26
  DW_CFA_restore: r27
  DW_CFA_restore: r28
  DW_CFA_restore: r30
  DW_CFA_restore: r29
  DW_CFA_advance_loc: 32 to 0009e704
  DW_CFA_restore_state
  DW_CFA_nop
  DW_CFA_nop
  DW_CFA_nop
  DW_CFA_nop
  DW_CFA_nop

00006ed0 0000003c 00006ed4 FDE cie=00000000 pc=0009e9c4..0009ec60
  DW_CFA_advance_loc: 4 to 0009e9c8
  DW_CFA_def_cfa_offset: 64
  DW_CFA_advance_loc: 16 to 0009e9d8
  DW_CFA_def_cfa: r29 ofs 64
  DW_CFA_offset: r19 at cfa-8
  DW_CFA_offset: r20 at cfa-16
  DW_CFA_offset: r21 at cfa-24
  DW_CFA_offset: r22 at cfa-32
  DW_CFA_offset: r23 at cfa-40
  DW_CFA_offset: r24 at cfa-48
  DW_CFA_offset: r30 at cfa-56
  DW_CFA_offset: r29 at cfa-64
  DW_CFA_remember_state
  DW_CFA_advance_loc2: 580 to 0009ec1c
  DW_CFA_def_cfa: r31 ofs 64
  DW_CFA_advance_loc: 16 to 0009ec2c
  DW_CFA_def_cfa_offset: 0
  DW_CFA_restore: r19
  DW_CFA_restore: r20
  DW_CFA_restore: r21
  DW_CFA_restore: r22
  DW_CFA_restore: r23
  DW_CFA_restore: r24
  DW_CFA_restore: r30
  DW_CFA_restore: r29
  DW_CFA_advance_loc: 4 to 0009ec30
  DW_CFA_restore_state
  DW_CFA_nop
  DW_CFA_nop
  DW_CFA_nop
  DW_CFA_nop

00006f10 0000004c 00006f14 FDE cie=00000000 pc=0009ec60..0009f1c8
  DW_CFA_advance_loc: 20 to 0009ec74
  DW_CFA_def_cfa_offset: 112
  DW_CFA_advance_loc: 28 to 0009ec90
  DW_CFA_def_cfa: r29 ofs 112
  DW_CFA_offset: r15 at cfa-8
  DW_CFA_offset: r19 at cfa-16
  DW_CFA_offset: r20 at cfa-24
  DW_CFA_offset: r21 at cfa-32
  DW_CFA_offset: r22 at cfa-40
  DW_CFA_offset: r23 at cfa-48
  DW_CFA_offset: r24 at cfa-56
  DW_CFA_offset: r25 at cfa-64
  DW_CFA_offset: r26 at cfa-72
  DW_CFA_offset: r27 at cfa-80
  DW_CFA_offset: r28 at cfa-96
  DW_CFA_offset: r30 at cfa-104
  DW_CFA_offset: r29 at cfa-112
  DW_CFA_remember_state
  DW_CFA_advance_loc2: 1080 to 0009f0c8
  DW_CFA_def_cfa: r31 ofs 112
  DW_CFA_advance_loc: 28 to 0009f0e4
  DW_CFA_def_cfa_offset: 0
  DW_CFA_restore: r15
  DW_CFA_restore: r19
  DW_CFA_restore: r20
  DW_CFA_restore: r21
  DW_CFA_restore: r22
  DW_CFA_restore: r23
  DW_CFA_restore: r24
  DW_CFA_restore: r25
  DW_CFA_restore: r26
  DW_CFA_restore: r27
  DW_CFA_restore: r28
  DW_CFA_restore: r30
  DW_CFA_restore: r29
  DW_CFA_advance_loc: 32 to 0009f104
  DW_CFA_restore_state
  DW_CFA_nop
  DW_CFA_nop
  DW_CFA_nop
  DW_CFA_nop
  DW_CFA_nop

00006f60 00000014 00006f64 FDE cie=00000000 pc=0009f1c8..0009f1d8
  DW_CFA_nop
  DW_CFA_nop
  DW_CFA_nop
  DW_CFA_nop
  DW_CFA_nop
  DW_CFA_nop
  DW_CFA_nop

00006f78 00000014 00006f7c FDE cie=00000000 pc=0009f1d8..0009f1e0
  DW_CFA_nop
  DW_CFA_nop
  DW_CFA_nop
  DW_CFA_nop
  DW_CFA_nop
  DW_CFA_nop
  DW_CFA_nop

00006f90 00000014 00006f94 FDE cie=00000000 pc=0009f1e0..0009f1f0
  DW_CFA_nop
  DW_CFA_nop
  DW_CFA_nop
  DW_CFA_nop
  DW_CFA_nop
  DW_CFA_nop
  DW_CFA_nop

00006fa8 00000024 00006fac FDE cie=00000000 pc=0009f1f0..0009f240
  DW_CFA_advance_loc: 4 to 0009f1f4
  DW_CFA_def_cfa_offset: 32
  DW_CFA_advance_loc: 8 to 0009f1fc
  DW_CFA_def_cfa: r29 ofs 32
  DW_CFA_offset: r19 at cfa-16
  DW_CFA_offset: r30 at cfa-24
  DW_CFA_offset: r29 at cfa-32
  DW_CFA_advance_loc: 56 to 0009f234
  DW_CFA_def_cfa: r31 ofs 32
  DW_CFA_advance_loc: 8 to 0009f23c
  DW_CFA_def_cfa_offset: 0
  DW_CFA_restore: r19
  DW_CFA_restore: r30
  DW_CFA_restore: r29

00006fd0 00000014 00006fd4 FDE cie=00000000 pc=0009f240..0009f28c
  DW_CFA_nop
  DW_CFA_nop
  DW_CFA_nop
  DW_CFA_nop
  DW_CFA_nop
  DW_CFA_nop
  DW_CFA_nop

00006fe8 0000002c 00006fec FDE cie=00000000 pc=0009f28c..0009f344
  DW_CFA_advance_loc: 4 to 0009f290
  DW_CFA_def_cfa_offset: 32
  DW_CFA_advance_loc: 8 to 0009f298
  DW_CFA_def_cfa: r29 ofs 32
  DW_CFA_offset: r19 at cfa-8
  DW_CFA_offset: r20 at cfa-16
  DW_CFA_offset: r30 at cfa-24
  DW_CFA_offset: r29 at cfa-32
  DW_CFA_remember_state
  DW_CFA_advance_loc1: 76 to 0009f2e4
  DW_CFA_def_cfa: r31 ofs 32
  DW_CFA_advance_loc: 8 to 0009f2ec
  DW_CFA_def_cfa_offset: 0
  DW_CFA_restore: r19
  DW_CFA_restore: r20
  DW_CFA_restore: r30
  DW_CFA_restore: r29
  DW_CFA_advance_loc: 4 to 0009f2f0
  DW_CFA_restore_state
  DW_CFA_nop

00007018 00000034 0000701c FDE cie=00000000 pc=0009f344..0009f464
  DW_CFA_advance_loc: 4 to 0009f348
  DW_CFA_def_cfa_offset: 64
  DW_CFA_advance_loc: 16 to 0009f358
  DW_CFA_def_cfa: r29 ofs 64
  DW_CFA_offset: r19 at cfa-8
  DW_CFA_offset: r20 at cfa-16
  DW_CFA_offset: r21 at cfa-24
  DW_CFA_offset: r22 at cfa-32
  DW_CFA_offset: r23 at cfa-48
  DW_CFA_offset: r30 at cfa-56
  DW_CFA_offset: r29 at cfa-64
  DW_CFA_advance_loc1: 248 to 0009f450
  DW_CFA_def_cfa: r31 ofs 64
  DW_CFA_advance_loc: 16 to 0009f460
  DW_CFA_def_cfa_offset: 0
  DW_CFA_restore: r19
  DW_CFA_restore: r20
  DW_CFA_restore: r21
  DW_CFA_restore: r22
  DW_CFA_restore: r23
  DW_CFA_restore: r30
  DW_CFA_restore: r29
  DW_CFA_nop
  DW_CFA_nop
  DW_CFA_nop

00007050 0000004c 00007054 FDE cie=00000000 pc=0009f464..000a0cb8
  DW_CFA_advance_loc: 20 to 0009f478
  DW_CFA_def_cfa_offset: 272
  DW_CFA_advance_loc: 32 to 0009f498
  DW_CFA_def_cfa: r29 ofs 112
  DW_CFA_offset: r15 at cfa-8
  DW_CFA_offset: r19 at cfa-16
  DW_CFA_offset: r20 at cfa-24
  DW_CFA_offset: r21 at cfa-32
  DW_CFA_offset: r22 at cfa-40
  DW_CFA_offset: r23 at cfa-48
  DW_CFA_offset: r24 at cfa-56
  DW_CFA_offset: r25 at cfa-64
  DW_CFA_offset: r26 at cfa-72
  DW_CFA_offset: r27 at cfa-80
  DW_CFA_offset: r28 at cfa-96
  DW_CFA_offset: r30 at cfa-104
  DW_CFA_offset: r29 at cfa-112
  DW_CFA_advance_loc2: 6112 to 000a0c78
  DW_CFA_def_cfa: r31 ofs 272
  DW_CFA_advance_loc: 32 to 000a0c98
  DW_CFA_def_cfa_offset: 0
  DW_CFA_restore: r15
  DW_CFA_restore: r19
  DW_CFA_restore: r20
  DW_CFA_restore: r21
  DW_CFA_restore: r22
  DW_CFA_restore: r23
  DW_CFA_restore: r24
  DW_CFA_restore: r25
  DW_CFA_restore: r26
  DW_CFA_restore: r27
  DW_CFA_restore: r28
  DW_CFA_restore: r30
  DW_CFA_restore: r29
  DW_CFA_nop
  DW_CFA_nop
  DW_CFA_nop
  DW_CFA_nop
  DW_CFA_nop
  DW_CFA_nop

000070a0 00000014 000070a4 FDE cie=00000000 pc=000a0cb8..000a0d44
  DW_CFA_nop
  DW_CFA_nop
  DW_CFA_nop
  DW_CFA_nop
  DW_CFA_nop
  DW_CFA_nop
  DW_CFA_nop

000070b8 00000024 000070bc FDE cie=00000000 pc=000a0d44..000a0d60
  DW_CFA_advance_loc: 8 to 000a0d4c
  DW_CFA_def_cfa_offset: 16
  DW_CFA_advance_loc: 4 to 000a0d50
  DW_CFA_def_cfa: r29 ofs 16
  DW_CFA_offset: r30 at cfa-8
  DW_CFA_offset: r29 at cfa-16
  DW_CFA_advance_loc: 4 to 000a0d54
  DW_CFA_def_cfa: r31 ofs 16
  DW_CFA_advance_loc: 4 to 000a0d58
  DW_CFA_def_cfa_offset: 0
  DW_CFA_restore: r30
  DW_CFA_restore: r29
  DW_CFA_nop
  DW_CFA_nop
  DW_CFA_nop

000070e0 0000002c 000070e4 FDE cie=00000000 pc=000a0d60..000a0ea4
  DW_CFA_advance_loc: 4 to 000a0d64
  DW_CFA_def_cfa_offset: 32
  DW_CFA_advance_loc: 8 to 000a0d6c
  DW_CFA_def_cfa: r29 ofs 32
  DW_CFA_offset: r19 at cfa-16
  DW_CFA_offset: r30 at cfa-24
  DW_CFA_offset: r29 at cfa-32
  DW_CFA_advance_loc2: 300 to 000a0e98
  DW_CFA_def_cfa: r31 ofs 32
  DW_CFA_advance_loc: 8 to 000a0ea0
  DW_CFA_def_cfa_offset: 0
  DW_CFA_restore: r19
  DW_CFA_restore: r30
  DW_CFA_restore: r29
  DW_CFA_nop
  DW_CFA_nop
  DW_CFA_nop
  DW_CFA_nop
  DW_CFA_nop
  DW_CFA_nop

00007110 0000002c 00007114 FDE cie=00000000 pc=000a0ea4..000a0ff0
  DW_CFA_advance_loc: 4 to 000a0ea8
  DW_CFA_def_cfa_offset: 32
  DW_CFA_advance_loc: 8 to 000a0eb0
  DW_CFA_def_cfa: r29 ofs 32
  DW_CFA_offset: r19 at cfa-16
  DW_CFA_offset: r30 at cfa-24
  DW_CFA_offset: r29 at cfa-32
  DW_CFA_advance_loc2: 308 to 000a0fe4
  DW_CFA_def_cfa: r31 ofs 32
  DW_CFA_advance_loc: 8 to 000a0fec
  DW_CFA_def_cfa_offset: 0
  DW_CFA_restore: r19
  DW_CFA_restore: r30
  DW_CFA_restore: r29
  DW_CFA_nop
  DW_CFA_nop
  DW_CFA_nop
  DW_CFA_nop
  DW_CFA_nop
  DW_CFA_nop

00007140 0000004c 00007144 FDE cie=00000000 pc=000a0ff0..000a1788
  DW_CFA_advance_loc: 20 to 000a1004
  DW_CFA_def_cfa_offset: 384
  DW_CFA_advance_loc: 32 to 000a1024
  DW_CFA_def_cfa: r29 ofs 112
  DW_CFA_offset: r15 at cfa-8
  DW_CFA_offset: r19 at cfa-16
  DW_CFA_offset: r20 at cfa-24
  DW_CFA_offset: r21 at cfa-32
  DW_CFA_offset: r22 at cfa-40
  DW_CFA_offset: r23 at cfa-48
  DW_CFA_offset: r24 at cfa-56
  DW_CFA_offset: r25 at cfa-64
  DW_CFA_offset: r26 at cfa-72
  DW_CFA_offset: r27 at cfa-80
  DW_CFA_offset: r28 at cfa-96
  DW_CFA_offset: r30 at cfa-104
  DW_CFA_offset: r29 at cfa-112
  DW_CFA_remember_state
  DW_CFA_advance_loc2: 1404 to 000a15a0
  DW_CFA_def_cfa: r31 ofs 384
  DW_CFA_advance_loc: 32 to 000a15c0
  DW_CFA_def_cfa_offset: 0
  DW_CFA_restore: r15
  DW_CFA_restore: r19
  DW_CFA_restore: r20
  DW_CFA_restore: r21
  DW_CFA_restore: r22
  DW_CFA_restore: r23
  DW_CFA_restore: r24
  DW_CFA_restore: r25
  DW_CFA_restore: r26
  DW_CFA_restore: r27
  DW_CFA_restore: r28
  DW_CFA_restore: r30
  DW_CFA_restore: r29
  DW_CFA_advance_loc: 32 to 000a15e0
  DW_CFA_restore_state
  DW_CFA_nop
  DW_CFA_nop
  DW_CFA_nop

00007190 00000014 00007194 FDE cie=00000000 pc=000a1788..000a1794
  DW_CFA_nop
  DW_CFA_nop
  DW_CFA_nop
  DW_CFA_nop
  DW_CFA_nop
  DW_CFA_nop
  DW_CFA_nop

000071a8 0000003c 000071ac FDE cie=00000000 pc=000a1794..000a1ed4
  DW_CFA_advance_loc: 20 to 000a17a8
  DW_CFA_def_cfa_offset: 160
  DW_CFA_advance_loc: 20 to 000a17bc
  DW_CFA_def_cfa: r29 ofs 64
  DW_CFA_offset: r15 at cfa-8
  DW_CFA_offset: r19 at cfa-16
  DW_CFA_offset: r20 at cfa-24
  DW_CFA_offset: r21 at cfa-32
  DW_CFA_offset: r22 at cfa-48
  DW_CFA_offset: r30 at cfa-56
  DW_CFA_offset: r29 at cfa-64
  DW_CFA_remember_state
  DW_CFA_advance_loc2: 1296 to 000a1ccc
  DW_CFA_def_cfa: r31 ofs 160
  DW_CFA_advance_loc: 20 to 000a1ce0
  DW_CFA_def_cfa_offset: 0
  DW_CFA_restore: r15
  DW_CFA_restore: r19
  DW_CFA_restore: r20
  DW_CFA_restore: r21
  DW_CFA_restore: r22
  DW_CFA_restore: r30
  DW_CFA_restore: r29
  DW_CFA_advance_loc: 32 to 000a1d00
  DW_CFA_restore_state
  DW_CFA_nop
  DW_CFA_nop
  DW_CFA_nop
  DW_CFA_nop
  DW_CFA_nop

000071e8 00000034 000071ec FDE cie=00000000 pc=000a1ed4..000a1f64
  DW_CFA_advance_loc: 4 to 000a1ed8
  DW_CFA_def_cfa_offset: 48
  DW_CFA_advance_loc: 12 to 000a1ee4
  DW_CFA_def_cfa: r29 ofs 48
  DW_CFA_offset: r19 at cfa-8
  DW_CFA_offset: r20 at cfa-16
  DW_CFA_offset: r21 at cfa-24
  DW_CFA_offset: r22 at cfa-32
  DW_CFA_offset: r30 at cfa-40
  DW_CFA_offset: r29 at cfa-48
  DW_CFA_advance_loc1: 112 to 000a1f54
  DW_CFA_def_cfa: r31 ofs 48
  DW_CFA_advance_loc: 12 to 000a1f60
  DW_CFA_def_cfa_offset: 0
  DW_CFA_restore: r19
  DW_CFA_restore: r20
  DW_CFA_restore: r21
  DW_CFA_restore: r22
  DW_CFA_restore: r30
  DW_CFA_restore: r29
  DW_CFA_nop
  DW_CFA_nop
  DW_CFA_nop
  DW_CFA_nop
  DW_CFA_nop
  DW_CFA_nop

00007220 0000003c 00007224 FDE cie=00000000 pc=000a1f64..000a2180
  DW_CFA_advance_loc: 4 to 000a1f68
  DW_CFA_def_cfa_offset: 80
  DW_CFA_advance_loc: 20 to 000a1f7c
  DW_CFA_def_cfa: r29 ofs 80
  DW_CFA_offset: r19 at cfa-8
  DW_CFA_offset: r20 at cfa-16
  DW_CFA_offset: r21 at cfa-24
  DW_CFA_offset: r22 at cfa-32
  DW_CFA_offset: r23 at cfa-40
  DW_CFA_offset: r24 at cfa-48
  DW_CFA_offset: r25 at cfa-56
  DW_CFA_offset: r26 at cfa-64
  DW_CFA_offset: r30 at cfa-72
  DW_CFA_offset: r29 at cfa-80
  DW_CFA_advance_loc2: 492 to 000a2168
  DW_CFA_def_cfa: r31 ofs 80
  DW_CFA_advance_loc: 20 to 000a217c
  DW_CFA_def_cfa_offset: 0
  DW_CFA_restore: r19
  DW_CFA_restore: r20
  DW_CFA_restore: r21
  DW_CFA_restore: r22
  DW_CFA_restore: r23
  DW_CFA_restore: r24
  DW_CFA_restore: r25
  DW_CFA_restore: r26
  DW_CFA_restore: r30
  DW_CFA_restore: r29
  DW_CFA_nop

00007260 00000034 00007264 FDE cie=00000000 pc=000a2180..000a22e0
  DW_CFA_advance_loc: 20 to 000a2194
  DW_CFA_def_cfa_offset: 64
  DW_CFA_advance_loc: 16 to 000a21a4
  DW_CFA_def_cfa: r29 ofs 48
  DW_CFA_offset: r15 at cfa-8
  DW_CFA_offset: r19 at cfa-16
  DW_CFA_offset: r20 at cfa-32
  DW_CFA_offset: r30 at cfa-40
  DW_CFA_offset: r29 at cfa-48
  DW_CFA_remember_state
  DW_CFA_advance_loc1: 212 to 000a2278
  DW_CFA_def_cfa: r31 ofs 64
  DW_CFA_advance_loc: 4 to 000a227c
  DW_CFA_restore_state
  DW_CFA_advance_loc: 52 to 000a22b0
  DW_CFA_def_cfa: r31 ofs 64
  DW_CFA_advance_loc: 16 to 000a22c0
  DW_CFA_def_cfa_offset: 0
  DW_CFA_restore: r15
  DW_CFA_restore: r19
  DW_CFA_restore: r20
  DW_CFA_restore: r30
  DW_CFA_restore: r29
  DW_CFA_nop
  DW_CFA_nop

00007298 00000044 0000729c FDE cie=00000000 pc=000a22e0..000a2a0c
  DW_CFA_advance_loc: 20 to 000a22f4
  DW_CFA_def_cfa_offset: 224
  DW_CFA_advance_loc: 28 to 000a2310
  DW_CFA_def_cfa: r29 ofs 96
  DW_CFA_offset: r15 at cfa-8
  DW_CFA_offset: r19 at cfa-16
  DW_CFA_offset: r20 at cfa-24
  DW_CFA_offset: r21 at cfa-32
  DW_CFA_offset: r22 at cfa-40
  DW_CFA_offset: r23 at cfa-48
  DW_CFA_offset: r24 at cfa-56
  DW_CFA_offset: r25 at cfa-64
  DW_CFA_offset: r26 at cfa-72
  DW_CFA_offset: r27 at cfa-80
  DW_CFA_offset: r30 at cfa-88
  DW_CFA_offset: r29 at cfa-96
  DW_CFA_advance_loc2: 1728 to 000a29d0
  DW_CFA_def_cfa: r31 ofs 224
  DW_CFA_advance_loc: 28 to 000a29ec
  DW_CFA_def_cfa_offset: 0
  DW_CFA_restore: r15
  DW_CFA_restore: r19
  DW_CFA_restore: r20
  DW_CFA_restore: r21
  DW_CFA_restore: r22
  DW_CFA_restore: r23
  DW_CFA_restore: r24
  DW_CFA_restore: r25
  DW_CFA_restore: r26
  DW_CFA_restore: r27
  DW_CFA_restore: r30
  DW_CFA_restore: r29
  DW_CFA_nop

000072e0 00000014 000072e4 FDE cie=00000000 pc=000a2a0c..000a2a10
  DW_CFA_nop
  DW_CFA_nop
  DW_CFA_nop
  DW_CFA_nop
  DW_CFA_nop
  DW_CFA_nop
  DW_CFA_nop

000072f8 00000014 000072fc FDE cie=00000000 pc=000a2a10..000a2a14
  DW_CFA_nop
  DW_CFA_nop
  DW_CFA_nop
  DW_CFA_nop
  DW_CFA_nop
  DW_CFA_nop
  DW_CFA_nop

00007310 00000014 00007314 FDE cie=00000000 pc=000a2a14..000a2a18
  DW_CFA_nop
  DW_CFA_nop
  DW_CFA_nop
  DW_CFA_nop
  DW_CFA_nop
  DW_CFA_nop
  DW_CFA_nop

00007328 00000014 0000732c FDE cie=00000000 pc=000a2a18..000a2a1c
  DW_CFA_nop
  DW_CFA_nop
  DW_CFA_nop
  DW_CFA_nop
  DW_CFA_nop
  DW_CFA_nop
  DW_CFA_nop

00007340 00000034 00007344 FDE cie=00000000 pc=000a2a1c..000a2ab8
  DW_CFA_advance_loc: 20 to 000a2a30
  DW_CFA_def_cfa_offset: 304
  DW_CFA_advance_loc: 16 to 000a2a40
  DW_CFA_def_cfa: r29 ofs 48
  DW_CFA_offset: r15 at cfa-8
  DW_CFA_offset: r19 at cfa-16
  DW_CFA_offset: r20 at cfa-24
  DW_CFA_offset: r28 at cfa-32
  DW_CFA_offset: r30 at cfa-40
  DW_CFA_offset: r29 at cfa-48
  DW_CFA_advance_loc1: 72 to 000a2a88
  DW_CFA_def_cfa: r31 ofs 304
  DW_CFA_advance_loc: 16 to 000a2a98
  DW_CFA_def_cfa_offset: 0
  DW_CFA_restore: r15
  DW_CFA_restore: r19
  DW_CFA_restore: r20
  DW_CFA_restore: r28
  DW_CFA_restore: r30
  DW_CFA_restore: r29
  DW_CFA_nop
  DW_CFA_nop
  DW_CFA_nop
  DW_CFA_nop

00007378 0000002c 0000737c FDE cie=00000000 pc=000a2ab8..000a2b58
  DW_CFA_advance_loc: 20 to 000a2acc
  DW_CFA_def_cfa_offset: 256
  DW_CFA_advance_loc: 12 to 000a2ad8
  DW_CFA_def_cfa: r29 ofs 32
  DW_CFA_offset: r15 at cfa-16
  DW_CFA_offset: r30 at cfa-24
  DW_CFA_offset: r29 at cfa-32
  DW_CFA_advance_loc1: 84 to 000a2b2c
  DW_CFA_def_cfa: r31 ofs 256
  DW_CFA_advance_loc: 12 to 000a2b38
  DW_CFA_def_cfa_offset: 0
  DW_CFA_restore: r15
  DW_CFA_restore: r30
  DW_CFA_restore: r29
  DW_CFA_nop
  DW_CFA_nop
  DW_CFA_nop
  DW_CFA_nop
  DW_CFA_nop

000073a8 00000044 000073ac FDE cie=00000000 pc=000a2b58..000a2d68
  DW_CFA_advance_loc: 4 to 000a2b5c
  DW_CFA_def_cfa_offset: 80
  DW_CFA_advance_loc: 20 to 000a2b70
  DW_CFA_def_cfa: r29 ofs 80
  DW_CFA_offset: r19 at cfa-8
  DW_CFA_offset: r20 at cfa-16
  DW_CFA_offset: r21 at cfa-24
  DW_CFA_offset: r22 at cfa-32
  DW_CFA_offset: r23 at cfa-40
  DW_CFA_offset: r24 at cfa-48
  DW_CFA_offset: r25 at cfa-56
  DW_CFA_offset: r26 at cfa-64
  DW_CFA_offset: r30 at cfa-72
  DW_CFA_offset: r29 at cfa-80
  DW_CFA_remember_state
  DW_CFA_advance_loc2: 456 to 000a2d38
  DW_CFA_def_cfa: r31 ofs 80
  DW_CFA_advance_loc: 20 to 000a2d4c
  DW_CFA_def_cfa_offset: 0
  DW_CFA_restore: r19
  DW_CFA_restore: r20
  DW_CFA_restore: r21
  DW_CFA_restore: r22
  DW_CFA_restore: r23
  DW_CFA_restore: r24
  DW_CFA_restore: r25
  DW_CFA_restore: r26
  DW_CFA_restore: r30
  DW_CFA_restore: r29
  DW_CFA_advance_loc: 4 to 000a2d50
  DW_CFA_restore_state
  DW_CFA_nop
  DW_CFA_nop
  DW_CFA_nop
  DW_CFA_nop
  DW_CFA_nop
  DW_CFA_nop

000073f0 0000002c 000073f4 FDE cie=00000000 pc=000a2d68..000a2e04
  DW_CFA_advance_loc: 20 to 000a2d7c
  DW_CFA_def_cfa_offset: 272
  DW_CFA_advance_loc: 12 to 000a2d88
  DW_CFA_def_cfa: r29 ofs 32
  DW_CFA_offset: r15 at cfa-8
  DW_CFA_offset: r28 at cfa-16
  DW_CFA_offset: r30 at cfa-24
  DW_CFA_offset: r29 at cfa-32
  DW_CFA_advance_loc1: 80 to 000a2dd8
  DW_CFA_def_cfa: r31 ofs 272
  DW_CFA_advance_loc: 12 to 000a2de4
  DW_CFA_def_cfa_offset: 0
  DW_CFA_restore: r15
  DW_CFA_restore: r28
  DW_CFA_restore: r30
  DW_CFA_restore: r29
  DW_CFA_nop
  DW_CFA_nop

00007420 00000034 00007424 FDE cie=00000000 pc=000a2e04..000a2e54
  DW_CFA_advance_loc: 4 to 000a2e08
  DW_CFA_def_cfa_offset: 48
  DW_CFA_advance_loc: 12 to 000a2e14
  DW_CFA_def_cfa: r29 ofs 48
  DW_CFA_offset: r19 at cfa-8
  DW_CFA_offset: r20 at cfa-16
  DW_CFA_offset: r21 at cfa-24
  DW_CFA_offset: r22 at cfa-32
  DW_CFA_offset: r30 at cfa-40
  DW_CFA_offset: r29 at cfa-48
  DW_CFA_advance_loc: 48 to 000a2e44
  DW_CFA_def_cfa: r31 ofs 48
  DW_CFA_advance_loc: 12 to 000a2e50
  DW_CFA_def_cfa_offset: 0
  DW_CFA_restore: r19
  DW_CFA_restore: r20
  DW_CFA_restore: r21
  DW_CFA_restore: r22
  DW_CFA_restore: r30
  DW_CFA_restore: r29
  DW_CFA_nop
  DW_CFA_nop
  DW_CFA_nop
  DW_CFA_nop
  DW_CFA_nop
  DW_CFA_nop
  DW_CFA_nop

00007458 00000034 0000745c FDE cie=00000000 pc=000a2e54..000a2ea4
  DW_CFA_advance_loc: 4 to 000a2e58
  DW_CFA_def_cfa_offset: 48
  DW_CFA_advance_loc: 12 to 000a2e64
  DW_CFA_def_cfa: r29 ofs 48
  DW_CFA_offset: r19 at cfa-8
  DW_CFA_offset: r20 at cfa-16
  DW_CFA_offset: r21 at cfa-24
  DW_CFA_offset: r22 at cfa-32
  DW_CFA_offset: r30 at cfa-40
  DW_CFA_offset: r29 at cfa-48
  DW_CFA_advance_loc: 48 to 000a2e94
  DW_CFA_def_cfa: r31 ofs 48
  DW_CFA_advance_loc: 12 to 000a2ea0
  DW_CFA_def_cfa_offset: 0
  DW_CFA_restore: r19
  DW_CFA_restore: r20
  DW_CFA_restore: r21
  DW_CFA_restore: r22
  DW_CFA_restore: r30
  DW_CFA_restore: r29
  DW_CFA_nop
  DW_CFA_nop
  DW_CFA_nop
  DW_CFA_nop
  DW_CFA_nop
  DW_CFA_nop
  DW_CFA_nop

00007490 0000002c 00007494 FDE cie=00000000 pc=000a2ea4..000a2f3c
  DW_CFA_advance_loc: 4 to 000a2ea8
  DW_CFA_def_cfa_offset: 48
  DW_CFA_advance_loc: 12 to 000a2eb4
  DW_CFA_def_cfa: r29 ofs 48
  DW_CFA_offset: r19 at cfa-8
  DW_CFA_offset: r20 at cfa-16
  DW_CFA_offset: r21 at cfa-32
  DW_CFA_offset: r30 at cfa-40
  DW_CFA_offset: r29 at cfa-48
  DW_CFA_advance_loc1: 120 to 000a2f2c
  DW_CFA_def_cfa: r31 ofs 48
  DW_CFA_advance_loc: 12 to 000a2f38
  DW_CFA_def_cfa_offset: 0
  DW_CFA_restore: r19
  DW_CFA_restore: r20
  DW_CFA_restore: r21
  DW_CFA_restore: r30
  DW_CFA_restore: r29
  DW_CFA_nop

000074c0 00000014 000074c4 FDE cie=00000000 pc=000a2f3c..000a2f54
  DW_CFA_nop
  DW_CFA_nop
  DW_CFA_nop
  DW_CFA_nop
  DW_CFA_nop
  DW_CFA_nop
  DW_CFA_nop

000074d8 00000014 000074dc FDE cie=00000000 pc=000a2f54..000a2f70
  DW_CFA_nop
  DW_CFA_nop
  DW_CFA_nop
  DW_CFA_nop
  DW_CFA_nop
  DW_CFA_nop
  DW_CFA_nop

000074f0 00000014 000074f4 FDE cie=00000000 pc=000a2f70..000a2f9c
  DW_CFA_nop
  DW_CFA_nop
  DW_CFA_nop
  DW_CFA_nop
  DW_CFA_nop
  DW_CFA_nop
  DW_CFA_nop

00007508 00000014 0000750c FDE cie=00000000 pc=000a2f9c..000a2fdc
  DW_CFA_nop
  DW_CFA_nop
  DW_CFA_nop
  DW_CFA_nop
  DW_CFA_nop
  DW_CFA_nop
  DW_CFA_nop

00007520 00000014 00007524 FDE cie=00000000 pc=000a2fdc..000a301c
  DW_CFA_nop
  DW_CFA_nop
  DW_CFA_nop
  DW_CFA_nop
  DW_CFA_nop
  DW_CFA_nop
  DW_CFA_nop

00007538 00000014 0000753c FDE cie=00000000 pc=000a301c..000a3124
  DW_CFA_nop
  DW_CFA_nop
  DW_CFA_nop
  DW_CFA_nop
  DW_CFA_nop
  DW_CFA_nop
  DW_CFA_nop

00007550 00000014 00007554 FDE cie=00000000 pc=000a3124..000a322c
  DW_CFA_nop
  DW_CFA_nop
  DW_CFA_nop
  DW_CFA_nop
  DW_CFA_nop
  DW_CFA_nop
  DW_CFA_nop

00007568 0000002c 0000756c FDE cie=00000000 pc=000a322c..000a34f8
  DW_CFA_advance_loc: 4 to 000a3230
  DW_CFA_def_cfa_offset: 32
  DW_CFA_advance_loc: 8 to 000a3238
  DW_CFA_def_cfa: r29 ofs 32
  DW_CFA_offset: r19 at cfa-8
  DW_CFA_offset: r20 at cfa-16
  DW_CFA_offset: r30 at cfa-24
  DW_CFA_offset: r29 at cfa-32
  DW_CFA_remember_state
  DW_CFA_advance_loc1: 96 to 000a3298
  DW_CFA_def_cfa: r31 ofs 32
  DW_CFA_advance_loc: 8 to 000a32a0
  DW_CFA_def_cfa_offset: 0
  DW_CFA_restore: r19
  DW_CFA_restore: r20
  DW_CFA_restore: r30
  DW_CFA_restore: r29
  DW_CFA_advance_loc: 4 to 000a32a4
  DW_CFA_restore_state
  DW_CFA_nop

00007598 00000044 0000759c FDE cie=00000000 pc=000a34f8..000a3664
  DW_CFA_advance_loc: 4 to 000a34fc
  DW_CFA_def_cfa_offset: 96
  DW_CFA_advance_loc: 24 to 000a3514
  DW_CFA_def_cfa: r29 ofs 96
  DW_CFA_offset: r19 at cfa-8
  DW_CFA_offset: r20 at cfa-16
  DW_CFA_offset: r21 at cfa-24
  DW_CFA_offset: r22 at cfa-32
  DW_CFA_offset: r23 at cfa-40
  DW_CFA_offset: r24 at cfa-48
  DW_CFA_offset: r25 at cfa-56
  DW_CFA_offset: r26 at cfa-64
  DW_CFA_offset: r27 at cfa-72
  DW_CFA_offset: r28 at cfa-80
  DW_CFA_offset: r30 at cfa-88
  DW_CFA_offset: r29 at cfa-96
  DW_CFA_advance_loc2: 308 to 000a3648
  DW_CFA_def_cfa: r31 ofs 96
  DW_CFA_advance_loc: 24 to 000a3660
  DW_CFA_def_cfa_offset: 0
  DW_CFA_restore: r19
  DW_CFA_restore: r20
  DW_CFA_restore: r21
  DW_CFA_restore: r22
  DW_CFA_restore: r23
  DW_CFA_restore: r24
  DW_CFA_restore: r25
  DW_CFA_restore: r26
  DW_CFA_restore: r27
  DW_CFA_restore: r28
  DW_CFA_restore: r30
  DW_CFA_restore: r29
  DW_CFA_nop
  DW_CFA_nop
  DW_CFA_nop

000075e0 0000003c 000075e4 FDE cie=00000000 pc=000a3664..000a3914
  DW_CFA_advance_loc: 4 to 000a3668
  DW_CFA_def_cfa_offset: 64
  DW_CFA_advance_loc: 16 to 000a3678
  DW_CFA_def_cfa: r29 ofs 64
  DW_CFA_offset: r19 at cfa-8
  DW_CFA_offset: r20 at cfa-16
  DW_CFA_offset: r21 at cfa-24
  DW_CFA_offset: r22 at cfa-32
  DW_CFA_offset: r23 at cfa-40
  DW_CFA_offset: r24 at cfa-48
  DW_CFA_offset: r30 at cfa-56
  DW_CFA_offset: r29 at cfa-64
  DW_CFA_advance_loc2: 648 to 000a3900
  DW_CFA_def_cfa: r31 ofs 64
  DW_CFA_advance_loc: 16 to 000a3910
  DW_CFA_def_cfa_offset: 0
  DW_CFA_restore: r19
  DW_CFA_restore: r20
  DW_CFA_restore: r21
  DW_CFA_restore: r22
  DW_CFA_restore: r23
  DW_CFA_restore: r24
  DW_CFA_restore: r30
  DW_CFA_restore: r29
  DW_CFA_nop
  DW_CFA_nop
  DW_CFA_nop
  DW_CFA_nop
  DW_CFA_nop
  DW_CFA_nop
  DW_CFA_nop

00007620 00000014 00007624 FDE cie=00000000 pc=000a3914..000a3a58
  DW_CFA_nop
  DW_CFA_nop
  DW_CFA_nop
  DW_CFA_nop
  DW_CFA_nop
  DW_CFA_nop
  DW_CFA_nop

00007638 0000002c 0000763c FDE cie=00000000 pc=000a3a58..000a3e54
  DW_CFA_advance_loc: 20 to 000a3a6c
  DW_CFA_def_cfa_offset: 96
  DW_CFA_advance_loc: 16 to 000a3a7c
  DW_CFA_def_cfa: r29 ofs 48
  DW_CFA_offset: r15 at cfa-8
  DW_CFA_offset: r19 at cfa-16
  DW_CFA_offset: r20 at cfa-32
  DW_CFA_offset: r30 at cfa-40
  DW_CFA_offset: r29 at cfa-48
  DW_CFA_advance_loc2: 936 to 000a3e24
  DW_CFA_def_cfa: r31 ofs 96
  DW_CFA_advance_loc: 16 to 000a3e34
  DW_CFA_def_cfa_offset: 0
  DW_CFA_restore: r15
  DW_CFA_restore: r19
  DW_CFA_restore: r20
  DW_CFA_restore: r30
  DW_CFA_restore: r29

00007668 00000014 0000766c FDE cie=00000000 pc=000a3e54..000a4040
  DW_CFA_nop
  DW_CFA_nop
  DW_CFA_nop
  DW_CFA_nop
  DW_CFA_nop
  DW_CFA_nop
  DW_CFA_nop

00007680 0000003c 00007684 FDE cie=00000000 pc=000a4040..000a43bc
  DW_CFA_advance_loc: 20 to 000a4054
  DW_CFA_def_cfa_offset: 80
  DW_CFA_advance_loc: 20 to 000a4068
  DW_CFA_def_cfa: r29 ofs 64
  DW_CFA_offset: r15 at cfa-8
  DW_CFA_offset: r19 at cfa-16
  DW_CFA_offset: r20 at cfa-24
  DW_CFA_offset: r21 at cfa-32
  DW_CFA_offset: r22 at cfa-40
  DW_CFA_offset: r23 at cfa-48
  DW_CFA_offset: r30 at cfa-56
  DW_CFA_offset: r29 at cfa-64
  DW_CFA_remember_state
  DW_CFA_advance_loc2: 560 to 000a4298
  DW_CFA_def_cfa: r31 ofs 80
  DW_CFA_advance_loc: 20 to 000a42ac
  DW_CFA_def_cfa_offset: 0
  DW_CFA_restore: r15
  DW_CFA_restore: r19
  DW_CFA_restore: r20
  DW_CFA_restore: r21
  DW_CFA_restore: r22
  DW_CFA_restore: r23
  DW_CFA_restore: r30
  DW_CFA_restore: r29
  DW_CFA_advance_loc: 32 to 000a42cc
  DW_CFA_restore_state
  DW_CFA_nop
  DW_CFA_nop
  DW_CFA_nop
  DW_CFA_nop

000076c0 00000034 000076c4 FDE cie=00000000 pc=000a43bc..000a492c
  DW_CFA_advance_loc: 4 to 000a43c0
  DW_CFA_def_cfa_offset: 64
  DW_CFA_advance_loc: 16 to 000a43d0
  DW_CFA_def_cfa: r29 ofs 64
  DW_CFA_offset: r19 at cfa-8
  DW_CFA_offset: r20 at cfa-16
  DW_CFA_offset: r21 at cfa-24
  DW_CFA_offset: r22 at cfa-32
  DW_CFA_offset: r23 at cfa-48
  DW_CFA_offset: r30 at cfa-56
  DW_CFA_offset: r29 at cfa-64
  DW_CFA_advance_loc2: 1352 to 000a4918
  DW_CFA_def_cfa: r31 ofs 64
  DW_CFA_advance_loc: 16 to 000a4928
  DW_CFA_def_cfa_offset: 0
  DW_CFA_restore: r19
  DW_CFA_restore: r20
  DW_CFA_restore: r21
  DW_CFA_restore: r22
  DW_CFA_restore: r23
  DW_CFA_restore: r30
  DW_CFA_restore: r29
  DW_CFA_nop
  DW_CFA_nop

000076f8 0000004c 000076fc FDE cie=00000000 pc=000a492c..000a537c
  DW_CFA_advance_loc: 20 to 000a4940
  DW_CFA_def_cfa_offset: 160
  DW_CFA_advance_loc: 32 to 000a4960
  DW_CFA_def_cfa: r29 ofs 112
  DW_CFA_offset: r15 at cfa-8
  DW_CFA_offset: r19 at cfa-16
  DW_CFA_offset: r20 at cfa-24
  DW_CFA_offset: r21 at cfa-32
  DW_CFA_offset: r22 at cfa-40
  DW_CFA_offset: r23 at cfa-48
  DW_CFA_offset: r24 at cfa-56
  DW_CFA_offset: r25 at cfa-64
  DW_CFA_offset: r26 at cfa-72
  DW_CFA_offset: r27 at cfa-80
  DW_CFA_offset: r28 at cfa-96
  DW_CFA_offset: r30 at cfa-104
  DW_CFA_offset: r29 at cfa-112
  DW_CFA_remember_state
  DW_CFA_advance_loc2: 2268 to 000a523c
  DW_CFA_def_cfa: r31 ofs 160
  DW_CFA_advance_loc: 32 to 000a525c
  DW_CFA_def_cfa_offset: 0
  DW_CFA_restore: r15
  DW_CFA_restore: r19
  DW_CFA_restore: r20
  DW_CFA_restore: r21
  DW_CFA_restore: r22
  DW_CFA_restore: r23
  DW_CFA_restore: r24
  DW_CFA_restore: r25
  DW_CFA_restore: r26
  DW_CFA_restore: r27
  DW_CFA_restore: r28
  DW_CFA_restore: r30
  DW_CFA_restore: r29
  DW_CFA_advance_loc: 32 to 000a527c
  DW_CFA_restore_state
  DW_CFA_nop
  DW_CFA_nop
  DW_CFA_nop

00007748 00000014 0000774c FDE cie=00000000 pc=000a537c..000a551c
  DW_CFA_nop
  DW_CFA_nop
  DW_CFA_nop
  DW_CFA_nop
  DW_CFA_nop
  DW_CFA_nop
  DW_CFA_nop

00007760 00000014 00007764 FDE cie=00000000 pc=000a551c..000a5524
  DW_CFA_nop
  DW_CFA_nop
  DW_CFA_nop
  DW_CFA_nop
  DW_CFA_nop
  DW_CFA_nop
  DW_CFA_nop

00007778 00000014 0000777c FDE cie=00000000 pc=000a5524..000a5528
  DW_CFA_nop
  DW_CFA_nop
  DW_CFA_nop
  DW_CFA_nop
  DW_CFA_nop
  DW_CFA_nop
  DW_CFA_nop

00007790 00000014 00007794 FDE cie=00000000 pc=000a5528..000a552c
  DW_CFA_nop
  DW_CFA_nop
  DW_CFA_nop
  DW_CFA_nop
  DW_CFA_nop
  DW_CFA_nop
  DW_CFA_nop

000077a8 00000014 000077ac FDE cie=00000000 pc=000a552c..000a5534
  DW_CFA_nop
  DW_CFA_nop
  DW_CFA_nop
  DW_CFA_nop
  DW_CFA_nop
  DW_CFA_nop
  DW_CFA_nop

000077c0 00000014 000077c4 FDE cie=00000000 pc=000a5534..000a553c
  DW_CFA_nop
  DW_CFA_nop
  DW_CFA_nop
  DW_CFA_nop
  DW_CFA_nop
  DW_CFA_nop
  DW_CFA_nop

000077d8 0000004c 000077dc FDE cie=00000000 pc=000a553c..000a599c
  DW_CFA_advance_loc: 4 to 000a5540
  DW_CFA_def_cfa_offset: 80
  DW_CFA_advance_loc: 20 to 000a5554
  DW_CFA_def_cfa: r29 ofs 80
  DW_CFA_offset: r19 at cfa-8
  DW_CFA_offset: r20 at cfa-16
  DW_CFA_offset: r21 at cfa-24
  DW_CFA_offset: r22 at cfa-32
  DW_CFA_offset: r23 at cfa-40
  DW_CFA_offset: r24 at cfa-48
  DW_CFA_offset: r25 at cfa-64
  DW_CFA_offset: r30 at cfa-72
  DW_CFA_offset: r29 at cfa-80
  DW_CFA_remember_state
  DW_CFA_advance_loc: 48 to 000a5584
  DW_CFA_def_cfa: r31 ofs 80
  DW_CFA_advance_loc: 20 to 000a5598
  DW_CFA_def_cfa_offset: 0
  DW_CFA_restore: r19
  DW_CFA_restore: r20
  DW_CFA_restore: r21
  DW_CFA_restore: r22
  DW_CFA_restore: r23
  DW_CFA_restore: r24
  DW_CFA_restore: r25
  DW_CFA_restore: r30
  DW_CFA_restore: r29
  DW_CFA_advance_loc: 4 to 000a559c
  DW_CFA_restore_state
  DW_CFA_advance_loc2: 1000 to 000a5984
  DW_CFA_def_cfa: r31 ofs 80
  DW_CFA_advance_loc: 20 to 000a5998
  DW_CFA_def_cfa_offset: 0
  DW_CFA_restore: r19
  DW_CFA_restore: r20
  DW_CFA_restore: r21
  DW_CFA_restore: r22
  DW_CFA_restore: r23
  DW_CFA_restore: r24
  DW_CFA_restore: r25
  DW_CFA_restore: r30
  DW_CFA_restore: r29
  DW_CFA_nop

00007828 00000014 0000782c FDE cie=00000000 pc=000a599c..000a59a4
  DW_CFA_nop
  DW_CFA_nop
  DW_CFA_nop
  DW_CFA_nop
  DW_CFA_nop
  DW_CFA_nop
  DW_CFA_nop

00007840 00000014 00007844 FDE cie=00000000 pc=000a59a4..000a59a8
  DW_CFA_nop
  DW_CFA_nop
  DW_CFA_nop
  DW_CFA_nop
  DW_CFA_nop
  DW_CFA_nop
  DW_CFA_nop

00007858 00000014 0000785c FDE cie=00000000 pc=000a59a8..000a59bc
  DW_CFA_nop
  DW_CFA_nop
  DW_CFA_nop
  DW_CFA_nop
  DW_CFA_nop
  DW_CFA_nop
  DW_CFA_nop

00007870 00000014 00007874 FDE cie=00000000 pc=000a59bc..000a59d0
  DW_CFA_nop
  DW_CFA_nop
  DW_CFA_nop
  DW_CFA_nop
  DW_CFA_nop
  DW_CFA_nop
  DW_CFA_nop

00007888 0000003c 0000788c FDE cie=00000000 pc=000a59d0..000a5ab0
  DW_CFA_advance_loc: 4 to 000a59d4
  DW_CFA_def_cfa_offset: 32
  DW_CFA_advance_loc: 8 to 000a59dc
  DW_CFA_def_cfa: r29 ofs 32
  DW_CFA_offset: r19 at cfa-8
  DW_CFA_offset: r20 at cfa-16
  DW_CFA_offset: r30 at cfa-24
  DW_CFA_offset: r29 at cfa-32
  DW_CFA_remember_state
  DW_CFA_advance_loc1: 80 to 000a5a2c
  DW_CFA_def_cfa: r31 ofs 32
  DW_CFA_advance_loc: 8 to 000a5a34
  DW_CFA_def_cfa_offset: 0
  DW_CFA_restore: r19
  DW_CFA_restore: r20
  DW_CFA_restore: r30
  DW_CFA_restore: r29
  DW_CFA_advance_loc: 4 to 000a5a38
  DW_CFA_restore_state
  DW_CFA_remember_state
  DW_CFA_advance_loc: 20 to 000a5a4c
  DW_CFA_def_cfa: r31 ofs 32
  DW_CFA_advance_loc: 8 to 000a5a54
  DW_CFA_def_cfa_offset: 0
  DW_CFA_restore: r19
  DW_CFA_restore: r20
  DW_CFA_restore: r30
  DW_CFA_restore: r29
  DW_CFA_advance_loc: 4 to 000a5a58
  DW_CFA_restore_state
  DW_CFA_nop
  DW_CFA_nop
  DW_CFA_nop

000078c8 0000003c 000078cc FDE cie=00000000 pc=000a5ab0..000a5b90
  DW_CFA_advance_loc: 4 to 000a5ab4
  DW_CFA_def_cfa_offset: 32
  DW_CFA_advance_loc: 8 to 000a5abc
  DW_CFA_def_cfa: r29 ofs 32
  DW_CFA_offset: r19 at cfa-8
  DW_CFA_offset: r20 at cfa-16
  DW_CFA_offset: r30 at cfa-24
  DW_CFA_offset: r29 at cfa-32
  DW_CFA_remember_state
  DW_CFA_advance_loc1: 80 to 000a5b0c
  DW_CFA_def_cfa: r31 ofs 32
  DW_CFA_advance_loc: 8 to 000a5b14
  DW_CFA_def_cfa_offset: 0
  DW_CFA_restore: r19
  DW_CFA_restore: r20
  DW_CFA_restore: r30
  DW_CFA_restore: r29
  DW_CFA_advance_loc: 4 to 000a5b18
  DW_CFA_restore_state
  DW_CFA_remember_state
  DW_CFA_advance_loc: 20 to 000a5b2c
  DW_CFA_def_cfa: r31 ofs 32
  DW_CFA_advance_loc: 8 to 000a5b34
  DW_CFA_def_cfa_offset: 0
  DW_CFA_restore: r19
  DW_CFA_restore: r20
  DW_CFA_restore: r30
  DW_CFA_restore: r29
  DW_CFA_advance_loc: 4 to 000a5b38
  DW_CFA_restore_state
  DW_CFA_nop
  DW_CFA_nop
  DW_CFA_nop

00007908 00000014 0000790c FDE cie=00000000 pc=000a5b90..000a5b94
  DW_CFA_nop
  DW_CFA_nop
  DW_CFA_nop
  DW_CFA_nop
  DW_CFA_nop
  DW_CFA_nop
  DW_CFA_nop

00007920 00000014 00007924 FDE cie=00000000 pc=000a5b94..000a5b98
  DW_CFA_nop
  DW_CFA_nop
  DW_CFA_nop
  DW_CFA_nop
  DW_CFA_nop
  DW_CFA_nop
  DW_CFA_nop

00007938 00000024 0000793c FDE cie=00000000 pc=000a5b98..000a5bec
  DW_CFA_advance_loc: 4 to 000a5b9c
  DW_CFA_def_cfa_offset: 32
  DW_CFA_advance_loc: 8 to 000a5ba4
  DW_CFA_def_cfa: r29 ofs 32
  DW_CFA_offset: r19 at cfa-16
  DW_CFA_offset: r30 at cfa-24
  DW_CFA_offset: r29 at cfa-32
  DW_CFA_advance_loc: 60 to 000a5be0
  DW_CFA_def_cfa: r31 ofs 32
  DW_CFA_advance_loc: 8 to 000a5be8
  DW_CFA_def_cfa_offset: 0
  DW_CFA_restore: r19
  DW_CFA_restore: r30
  DW_CFA_restore: r29

00007960 00000024 00007964 FDE cie=00000000 pc=000a5bec..000a5c24
  DW_CFA_advance_loc: 16 to 000a5bfc
  DW_CFA_def_cfa_offset: 16
  DW_CFA_advance_loc: 4 to 000a5c00
  DW_CFA_def_cfa: r29 ofs 16
  DW_CFA_offset: r30 at cfa-8
  DW_CFA_offset: r29 at cfa-16
  DW_CFA_advance_loc: 20 to 000a5c14
  DW_CFA_def_cfa: r31 ofs 16
  DW_CFA_advance_loc: 4 to 000a5c18
  DW_CFA_def_cfa_offset: 0
  DW_CFA_restore: r30
  DW_CFA_restore: r29
  DW_CFA_nop
  DW_CFA_nop
  DW_CFA_nop

00007988 00000014 0000798c FDE cie=00000000 pc=000a5c24..000a5ca8
  DW_CFA_nop
  DW_CFA_nop
  DW_CFA_nop
  DW_CFA_nop
  DW_CFA_nop
  DW_CFA_nop
  DW_CFA_nop

000079a0 00000014 000079a4 FDE cie=00000000 pc=000a5ca8..000a5cdc
  DW_CFA_nop
  DW_CFA_nop
  DW_CFA_nop
  DW_CFA_nop
  DW_CFA_nop
  DW_CFA_nop
  DW_CFA_nop

000079b8 00000014 000079bc FDE cie=00000000 pc=000a5cdc..000a5d10
  DW_CFA_nop
  DW_CFA_nop
  DW_CFA_nop
  DW_CFA_nop
  DW_CFA_nop
  DW_CFA_nop
  DW_CFA_nop

000079d0 00000024 000079d4 FDE cie=00000000 pc=000a5d10..000a5d68
  DW_CFA_advance_loc: 8 to 000a5d18
  DW_CFA_def_cfa_offset: 16
  DW_CFA_remember_state
  DW_CFA_advance_loc: 44 to 000a5d44
  DW_CFA_def_cfa_offset: 0
  DW_CFA_advance_loc: 4 to 000a5d48
  DW_CFA_restore_state
  DW_CFA_remember_state
  DW_CFA_advance_loc: 16 to 000a5d58
  DW_CFA_def_cfa_offset: 0
  DW_CFA_advance_loc: 4 to 000a5d5c
  DW_CFA_restore_state
  DW_CFA_advance_loc: 8 to 000a5d64
  DW_CFA_def_cfa_offset: 0
  DW_CFA_nop
  DW_CFA_nop
  DW_CFA_nop
  DW_CFA_nop
  DW_CFA_nop

000079f8 00000014 000079fc FDE cie=00000000 pc=000a5d68..000a5d84
  DW_CFA_nop
  DW_CFA_nop
  DW_CFA_nop
  DW_CFA_nop
  DW_CFA_nop
  DW_CFA_nop
  DW_CFA_nop

00007a10 00000014 00007a14 FDE cie=00000000 pc=000a5d84..000a5da0
  DW_CFA_nop
  DW_CFA_nop
  DW_CFA_nop
  DW_CFA_nop
  DW_CFA_nop
  DW_CFA_nop
  DW_CFA_nop

00007a28 00000014 00007a2c FDE cie=00000000 pc=000a5da0..000a5dac
  DW_CFA_nop
  DW_CFA_nop
  DW_CFA_nop
  DW_CFA_nop
  DW_CFA_nop
  DW_CFA_nop
  DW_CFA_nop

00007a40 00000014 00007a44 FDE cie=00000000 pc=000a5dac..000a5db8
  DW_CFA_nop
  DW_CFA_nop
  DW_CFA_nop
  DW_CFA_nop
  DW_CFA_nop
  DW_CFA_nop
  DW_CFA_nop

00007a58 00000014 00007a5c FDE cie=00000000 pc=000a5db8..000a5dd8
  DW_CFA_nop
  DW_CFA_nop
  DW_CFA_nop
  DW_CFA_nop
  DW_CFA_nop
  DW_CFA_nop
  DW_CFA_nop

00007a70 00000014 00007a74 FDE cie=00000000 pc=000a5dd8..000a5df0
  DW_CFA_nop
  DW_CFA_nop
  DW_CFA_nop
  DW_CFA_nop
  DW_CFA_nop
  DW_CFA_nop
  DW_CFA_nop

00007a88 00000014 00007a8c FDE cie=00000000 pc=000a5df0..000a5e10
  DW_CFA_nop
  DW_CFA_nop
  DW_CFA_nop
  DW_CFA_nop
  DW_CFA_nop
  DW_CFA_nop
  DW_CFA_nop

00007aa0 00000014 00007aa4 FDE cie=00000000 pc=000a5e10..000a5e28
  DW_CFA_nop
  DW_CFA_nop
  DW_CFA_nop
  DW_CFA_nop
  DW_CFA_nop
  DW_CFA_nop
  DW_CFA_nop

00007ab8 00000034 00007abc FDE cie=00000000 pc=000a5e28..000a61e8
  DW_CFA_advance_loc: 20 to 000a5e3c
  DW_CFA_def_cfa_offset: 96
  DW_CFA_advance_loc: 16 to 000a5e4c
  DW_CFA_def_cfa: r29 ofs 48
  DW_CFA_offset: r15 at cfa-8
  DW_CFA_offset: r19 at cfa-16
  DW_CFA_offset: r20 at cfa-32
  DW_CFA_offset: r30 at cfa-40
  DW_CFA_offset: r29 at cfa-48
  DW_CFA_remember_state
  DW_CFA_advance_loc2: 840 to 000a6194
  DW_CFA_def_cfa: r31 ofs 96
  DW_CFA_advance_loc: 16 to 000a61a4
  DW_CFA_def_cfa_offset: 0
  DW_CFA_restore: r15
  DW_CFA_restore: r19
  DW_CFA_restore: r20
  DW_CFA_restore: r30
  DW_CFA_restore: r29
  DW_CFA_advance_loc: 32 to 000a61c4
  DW_CFA_restore_state
  DW_CFA_nop
  DW_CFA_nop
  DW_CFA_nop
  DW_CFA_nop
  DW_CFA_nop

00007af0 0000004c 00007af4 FDE cie=00000000 pc=000a61e8..000a6eac
  DW_CFA_advance_loc: 20 to 000a61fc
  DW_CFA_def_cfa_offset: 112
  DW_CFA_advance_loc: 24 to 000a6214
  DW_CFA_offset: r15 at cfa-8
  DW_CFA_offset: r19 at cfa-16
  DW_CFA_offset: r20 at cfa-24
  DW_CFA_offset: r21 at cfa-32
  DW_CFA_offset: r22 at cfa-40
  DW_CFA_offset: r23 at cfa-48
  DW_CFA_offset: r24 at cfa-56
  DW_CFA_offset: r25 at cfa-64
  DW_CFA_offset: r26 at cfa-72
  DW_CFA_offset: r27 at cfa-80
  DW_CFA_offset: r28 at cfa-88
  DW_CFA_offset: r30 at cfa-96
  DW_CFA_offset: r29 at cfa-112
  DW_CFA_advance_loc: 4 to 000a6218
  DW_CFA_def_cfa_offset: 704
  DW_CFA_remember_state
  DW_CFA_advance_loc2: 2924 to 000a6d84
  DW_CFA_def_cfa_offset: 112
  DW_CFA_advance_loc: 28 to 000a6da0
  DW_CFA_def_cfa_offset: 0
  DW_CFA_restore: r15
  DW_CFA_restore: r19
  DW_CFA_restore: r20
  DW_CFA_restore: r21
  DW_CFA_restore: r22
  DW_CFA_restore: r23
  DW_CFA_restore: r24
  DW_CFA_restore: r25
  DW_CFA_restore: r26
  DW_CFA_restore: r27
  DW_CFA_restore: r28
  DW_CFA_restore: r30
  DW_CFA_restore: r29
  DW_CFA_advance_loc: 32 to 000a6dc0
  DW_CFA_restore_state
  DW_CFA_nop
  DW_CFA_nop
  DW_CFA_nop
  DW_CFA_nop
  DW_CFA_nop

00007b40 0000003c 00007b44 FDE cie=00000000 pc=000a6eac..000a7330
  DW_CFA_advance_loc: 20 to 000a6ec0
  DW_CFA_def_cfa_offset: 336
  DW_CFA_advance_loc: 20 to 000a6ed4
  DW_CFA_def_cfa: r29 ofs 64
  DW_CFA_offset: r15 at cfa-8
  DW_CFA_offset: r19 at cfa-16
  DW_CFA_offset: r20 at cfa-24
  DW_CFA_offset: r21 at cfa-32
  DW_CFA_offset: r22 at cfa-40
  DW_CFA_offset: r28 at cfa-48
  DW_CFA_offset: r30 at cfa-56
  DW_CFA_offset: r29 at cfa-64
  DW_CFA_remember_state
  DW_CFA_advance_loc2: 980 to 000a72a8
  DW_CFA_def_cfa: r31 ofs 336
  DW_CFA_advance_loc: 20 to 000a72bc
  DW_CFA_def_cfa_offset: 0
  DW_CFA_restore: r15
  DW_CFA_restore: r19
  DW_CFA_restore: r20
  DW_CFA_restore: r21
  DW_CFA_restore: r22
  DW_CFA_restore: r28
  DW_CFA_restore: r30
  DW_CFA_restore: r29
  DW_CFA_advance_loc: 32 to 000a72dc
  DW_CFA_restore_state
  DW_CFA_nop
  DW_CFA_nop

00007b80 00000014 00007b84 FDE cie=00000000 pc=000a7330..000a733c
  DW_CFA_nop
  DW_CFA_nop
  DW_CFA_nop
  DW_CFA_nop
  DW_CFA_nop
  DW_CFA_nop
  DW_CFA_nop

00007b98 00000014 00007b9c FDE cie=00000000 pc=000a733c..000a7348
  DW_CFA_nop
  DW_CFA_nop
  DW_CFA_nop
  DW_CFA_nop
  DW_CFA_nop
  DW_CFA_nop
  DW_CFA_nop

00007bb0 00000014 00007bb4 FDE cie=00000000 pc=000a7348..000a735c
  DW_CFA_advance_loc: 4 to 000a734c
  DW_CFA_def_cfa_offset: 16
  DW_CFA_advance_loc: 12 to 000a7358
  DW_CFA_def_cfa_offset: 0
  DW_CFA_nop

00007bc8 00000014 00007bcc FDE cie=00000000 pc=000a735c..000a73e4
  DW_CFA_nop
  DW_CFA_nop
  DW_CFA_nop
  DW_CFA_nop
  DW_CFA_nop
  DW_CFA_nop
  DW_CFA_nop

00007be0 0000003c 00007be4 FDE cie=00000000 pc=000a73e4..000a7940
  DW_CFA_advance_loc: 4 to 000a73e8
  DW_CFA_def_cfa_offset: 240
  DW_CFA_advance_loc: 12 to 000a73f4
  DW_CFA_def_cfa: r29 ofs 32
  DW_CFA_offset: r19 at cfa-8
  DW_CFA_offset: r20 at cfa-16
  DW_CFA_offset: r30 at cfa-24
  DW_CFA_offset: r29 at cfa-32
  DW_CFA_remember_state
  DW_CFA_advance_loc2: 1324 to 000a7920
  DW_CFA_def_cfa: r31 ofs 240
  DW_CFA_advance_loc: 12 to 000a792c
  DW_CFA_def_cfa_offset: 0
  DW_CFA_restore: r19
  DW_CFA_restore: r20
  DW_CFA_restore: r30
  DW_CFA_restore: r29
  DW_CFA_advance_loc: 4 to 000a7930
  DW_CFA_restore_state
  DW_CFA_def_cfa: r31 ofs 240
  DW_CFA_advance_loc: 12 to 000a793c
  DW_CFA_def_cfa_offset: 0
  DW_CFA_restore: r19
  DW_CFA_restore: r20
  DW_CFA_restore: r30
  DW_CFA_restore: r29
  DW_CFA_nop
  DW_CFA_nop
  DW_CFA_nop

00007c20 00000014 00007c24 FDE cie=00000000 pc=000a7940..000a7bd0
  DW_CFA_nop
  DW_CFA_nop
  DW_CFA_nop
  DW_CFA_nop
  DW_CFA_nop
  DW_CFA_nop
  DW_CFA_nop

00007c38 00000014 00007c3c FDE cie=00000000 pc=000a7bd0..000a7dc0
  DW_CFA_nop
  DW_CFA_nop
  DW_CFA_nop
  DW_CFA_nop
  DW_CFA_nop
  DW_CFA_nop
  DW_CFA_nop

00007c50 00000024 00007c54 FDE cie=00000000 pc=000a7dc0..000a7e34
  DW_CFA_advance_loc1: 88 to 000a7e18
  DW_CFA_def_cfa_offset: 16
  DW_CFA_advance_loc: 4 to 000a7e1c
  DW_CFA_def_cfa: r29 ofs 16
  DW_CFA_offset: r30 at cfa-8
  DW_CFA_offset: r29 at cfa-16
  DW_CFA_advance_loc: 16 to 000a7e2c
  DW_CFA_def_cfa: r31 ofs 16
  DW_CFA_advance_loc: 4 to 000a7e30
  DW_CFA_def_cfa_offset: 0
  DW_CFA_restore: r30
  DW_CFA_restore: r29
  DW_CFA_nop
  DW_CFA_nop

00007c78 00000024 00007c7c FDE cie=00000000 pc=000a7e34..000a7ea8
  DW_CFA_advance_loc1: 84 to 000a7e88
  DW_CFA_def_cfa_offset: 16
  DW_CFA_advance_loc: 4 to 000a7e8c
  DW_CFA_def_cfa: r29 ofs 16
  DW_CFA_offset: r30 at cfa-8
  DW_CFA_offset: r29 at cfa-16
  DW_CFA_advance_loc: 20 to 000a7ea0
  DW_CFA_def_cfa: r31 ofs 16
  DW_CFA_advance_loc: 4 to 000a7ea4
  DW_CFA_def_cfa_offset: 0
  DW_CFA_restore: r30
  DW_CFA_restore: r29
  DW_CFA_nop
  DW_CFA_nop

00007ca0 0000003c 00007ca4 FDE cie=00000000 pc=000a7ea8..000a7f30
  DW_CFA_advance_loc: 4 to 000a7eac
  DW_CFA_def_cfa_offset: 16
  DW_CFA_advance_loc: 4 to 000a7eb0
  DW_CFA_def_cfa: r29 ofs 16
  DW_CFA_offset: r30 at cfa-8
  DW_CFA_offset: r29 at cfa-16
  DW_CFA_remember_state
  DW_CFA_advance_loc: 48 to 000a7ee0
  DW_CFA_def_cfa: r31 ofs 16
  DW_CFA_advance_loc: 4 to 000a7ee4
  DW_CFA_def_cfa_offset: 0
  DW_CFA_restore: r30
  DW_CFA_restore: r29
  DW_CFA_advance_loc: 4 to 000a7ee8
  DW_CFA_restore_state
  DW_CFA_remember_state
  DW_CFA_advance_loc: 40 to 000a7f10
  DW_CFA_def_cfa: r31 ofs 16
  DW_CFA_advance_loc: 4 to 000a7f14
  DW_CFA_def_cfa_offset: 0
  DW_CFA_restore: r30
  DW_CFA_restore: r29
  DW_CFA_advance_loc: 4 to 000a7f18
  DW_CFA_restore_state
  DW_CFA_advance_loc: 16 to 000a7f28
  DW_CFA_def_cfa: r31 ofs 16
  DW_CFA_advance_loc: 4 to 000a7f2c
  DW_CFA_def_cfa_offset: 0
  DW_CFA_restore: r30
  DW_CFA_restore: r29
  DW_CFA_nop
  DW_CFA_nop
  DW_CFA_nop

00007ce0 0000002c 00007ce4 FDE cie=00000000 pc=000a7f30..000a8688
  DW_CFA_advance_loc: 4 to 000a7f34
  DW_CFA_def_cfa_offset: 176
  DW_CFA_advance_loc: 12 to 000a7f40
  DW_CFA_def_cfa: r29 ofs 32
  DW_CFA_offset: r19 at cfa-16
  DW_CFA_offset: r30 at cfa-24
  DW_CFA_offset: r29 at cfa-32
  DW_CFA_advance_loc2: 1848 to 000a8678
  DW_CFA_def_cfa: r31 ofs 176
  DW_CFA_advance_loc: 12 to 000a8684
  DW_CFA_def_cfa_offset: 0
  DW_CFA_restore: r19
  DW_CFA_restore: r30
  DW_CFA_restore: r29
  DW_CFA_nop
  DW_CFA_nop
  DW_CFA_nop
  DW_CFA_nop

00007d10 00000014 00007d14 FDE cie=00000000 pc=000a8688..000a88a4
  DW_CFA_nop
  DW_CFA_nop
  DW_CFA_nop
  DW_CFA_nop
  DW_CFA_nop
  DW_CFA_nop
  DW_CFA_nop

00007d28 00000014 00007d2c FDE cie=00000000 pc=000a88a4..000a89f0
  DW_CFA_nop
  DW_CFA_nop
  DW_CFA_nop
  DW_CFA_nop
  DW_CFA_nop
  DW_CFA_nop
  DW_CFA_nop

00007d40 0000002c 00007d44 FDE cie=00000000 pc=000a89f0..000a8aa4
  DW_CFA_advance_loc: 4 to 000a89f4
  DW_CFA_def_cfa_offset: 32
  DW_CFA_advance_loc: 8 to 000a89fc
  DW_CFA_def_cfa: r29 ofs 32
  DW_CFA_offset: r19 at cfa-16
  DW_CFA_offset: r30 at cfa-24
  DW_CFA_offset: r29 at cfa-32
  DW_CFA_advance_loc1: 156 to 000a8a98
  DW_CFA_def_cfa: r31 ofs 32
  DW_CFA_advance_loc: 8 to 000a8aa0
  DW_CFA_def_cfa_offset: 0
  DW_CFA_restore: r19
  DW_CFA_restore: r30
  DW_CFA_restore: r29
  DW_CFA_nop
  DW_CFA_nop
  DW_CFA_nop
  DW_CFA_nop
  DW_CFA_nop
  DW_CFA_nop
  DW_CFA_nop

00007d70 0000002c 00007d74 FDE cie=00000000 pc=000a8aa4..000a8b64
  DW_CFA_advance_loc: 4 to 000a8aa8
  DW_CFA_def_cfa_offset: 32
  DW_CFA_advance_loc: 8 to 000a8ab0
  DW_CFA_def_cfa: r29 ofs 32
  DW_CFA_offset: r19 at cfa-16
  DW_CFA_offset: r30 at cfa-24
  DW_CFA_offset: r29 at cfa-32
  DW_CFA_advance_loc1: 168 to 000a8b58
  DW_CFA_def_cfa: r31 ofs 32
  DW_CFA_advance_loc: 8 to 000a8b60
  DW_CFA_def_cfa_offset: 0
  DW_CFA_restore: r19
  DW_CFA_restore: r30
  DW_CFA_restore: r29
  DW_CFA_nop
  DW_CFA_nop
  DW_CFA_nop
  DW_CFA_nop
  DW_CFA_nop
  DW_CFA_nop
  DW_CFA_nop

00007da0 0000002c 00007da4 FDE cie=00000000 pc=000a8b64..000a8c1c
  DW_CFA_advance_loc: 4 to 000a8b68
  DW_CFA_def_cfa_offset: 32
  DW_CFA_advance_loc: 8 to 000a8b70
  DW_CFA_def_cfa: r29 ofs 32
  DW_CFA_offset: r19 at cfa-16
  DW_CFA_offset: r30 at cfa-24
  DW_CFA_offset: r29 at cfa-32
  DW_CFA_advance_loc1: 160 to 000a8c10
  DW_CFA_def_cfa: r31 ofs 32
  DW_CFA_advance_loc: 8 to 000a8c18
  DW_CFA_def_cfa_offset: 0
  DW_CFA_restore: r19
  DW_CFA_restore: r30
  DW_CFA_restore: r29
  DW_CFA_nop
  DW_CFA_nop
  DW_CFA_nop
  DW_CFA_nop
  DW_CFA_nop
  DW_CFA_nop
  DW_CFA_nop

00007dd0 00000044 00007dd4 FDE cie=00000000 pc=000a8c1c..000a9224
  DW_CFA_advance_loc: 4 to 000a8c20
  DW_CFA_def_cfa_offset: 208
  DW_CFA_advance_loc: 12 to 000a8c2c
  DW_CFA_def_cfa: r29 ofs 32
  DW_CFA_offset: r19 at cfa-16
  DW_CFA_offset: r30 at cfa-24
  DW_CFA_offset: r29 at cfa-32
  DW_CFA_remember_state
  DW_CFA_advance_loc2: 736 to 000a8f0c
  DW_CFA_def_cfa: r31 ofs 208
  DW_CFA_advance_loc: 4 to 000a8f10
  DW_CFA_restore_state
  DW_CFA_remember_state
  DW_CFA_advance_loc2: 268 to 000a901c
  DW_CFA_def_cfa: r31 ofs 208
  DW_CFA_advance_loc: 12 to 000a9028
  DW_CFA_def_cfa_offset: 0
  DW_CFA_restore: r19
  DW_CFA_restore: r30
  DW_CFA_restore: r29
  DW_CFA_advance_loc: 4 to 000a902c
  DW_CFA_restore_state
  DW_CFA_advance_loc2: 488 to 000a9214
  DW_CFA_def_cfa: r31 ofs 208
  DW_CFA_advance_loc: 12 to 000a9220
  DW_CFA_def_cfa_offset: 0
  DW_CFA_restore: r19
  DW_CFA_restore: r30
  DW_CFA_restore: r29
  DW_CFA_nop
  DW_CFA_nop

00007e18 00000014 00007e1c FDE cie=00000000 pc=000a9224..000a93ec
  DW_CFA_nop
  DW_CFA_nop
  DW_CFA_nop
  DW_CFA_nop
  DW_CFA_nop
  DW_CFA_nop
  DW_CFA_nop

00007e30 0000003c 00007e34 FDE cie=00000000 pc=000a93ec..000a9588
  DW_CFA_advance_loc: 4 to 000a93f0
  DW_CFA_def_cfa_offset: 32
  DW_CFA_advance_loc: 8 to 000a93f8
  DW_CFA_def_cfa: r29 ofs 32
  DW_CFA_offset: r19 at cfa-16
  DW_CFA_offset: r30 at cfa-24
  DW_CFA_offset: r29 at cfa-32
  DW_CFA_remember_state
  DW_CFA_advance_loc: 48 to 000a9428
  DW_CFA_def_cfa: r31 ofs 32
  DW_CFA_advance_loc: 8 to 000a9430
  DW_CFA_def_cfa_offset: 0
  DW_CFA_restore: r19
  DW_CFA_restore: r30
  DW_CFA_restore: r29
  DW_CFA_advance_loc: 4 to 000a9434
  DW_CFA_restore_state
  DW_CFA_remember_state
  DW_CFA_advance_loc1: 92 to 000a9490
  DW_CFA_def_cfa: r31 ofs 32
  DW_CFA_advance_loc: 8 to 000a9498
  DW_CFA_def_cfa_offset: 0
  DW_CFA_restore: r19
  DW_CFA_restore: r30
  DW_CFA_restore: r29
  DW_CFA_advance_loc: 4 to 000a949c
  DW_CFA_restore_state
  DW_CFA_nop
  DW_CFA_nop
  DW_CFA_nop
  DW_CFA_nop
  DW_CFA_nop
  DW_CFA_nop
  DW_CFA_nop

00007e70 00000034 00007e74 FDE cie=00000000 pc=000a9588..000a9728
  DW_CFA_advance_loc: 4 to 000a958c
  DW_CFA_def_cfa_offset: 32
  DW_CFA_advance_loc: 8 to 000a9594
  DW_CFA_def_cfa: r29 ofs 32
  DW_CFA_offset: r19 at cfa-16
  DW_CFA_offset: r30 at cfa-24
  DW_CFA_offset: r29 at cfa-32
  DW_CFA_remember_state
  DW_CFA_advance_loc: 48 to 000a95c4
  DW_CFA_def_cfa: r31 ofs 32
  DW_CFA_advance_loc: 8 to 000a95cc
  DW_CFA_def_cfa_offset: 0
  DW_CFA_restore: r19
  DW_CFA_restore: r30
  DW_CFA_restore: r29
  DW_CFA_advance_loc: 4 to 000a95d0
  DW_CFA_restore_state
  DW_CFA_remember_state
  DW_CFA_advance_loc: 12 to 000a95dc
  DW_CFA_def_cfa: r31 ofs 32
  DW_CFA_advance_loc: 8 to 000a95e4
  DW_CFA_def_cfa_offset: 0
  DW_CFA_restore: r19
  DW_CFA_restore: r30
  DW_CFA_restore: r29
  DW_CFA_advance_loc: 4 to 000a95e8
  DW_CFA_restore_state

00007ea8 0000004c 00007eac FDE cie=00000000 pc=000a9728..000a993c
  DW_CFA_advance_loc: 4 to 000a972c
  DW_CFA_def_cfa_offset: 192
  DW_CFA_advance_loc: 20 to 000a9740
  DW_CFA_def_cfa: r29 ofs 64
  DW_CFA_offset: r19 at cfa-8
  DW_CFA_offset: r20 at cfa-16
  DW_CFA_offset: r21 at cfa-24
  DW_CFA_offset: r22 at cfa-32
  DW_CFA_offset: r23 at cfa-48
  DW_CFA_offset: r30 at cfa-56
  DW_CFA_offset: r29 at cfa-64
  DW_CFA_remember_state
  DW_CFA_advance_loc1: 84 to 000a9794
  DW_CFA_def_cfa: r31 ofs 192
  DW_CFA_advance_loc: 20 to 000a97a8
  DW_CFA_def_cfa_offset: 0
  DW_CFA_restore: r19
  DW_CFA_restore: r20
  DW_CFA_restore: r21
  DW_CFA_restore: r22
  DW_CFA_restore: r23
  DW_CFA_restore: r30
  DW_CFA_restore: r29
  DW_CFA_advance_loc: 4 to 000a97ac
  DW_CFA_restore_state
  DW_CFA_remember_state
  DW_CFA_advance_loc: 32 to 000a97cc
  DW_CFA_def_cfa: r31 ofs 192
  DW_CFA_advance_loc: 20 to 000a97e0
  DW_CFA_def_cfa_offset: 0
  DW_CFA_restore: r19
  DW_CFA_restore: r20
  DW_CFA_restore: r21
  DW_CFA_restore: r22
  DW_CFA_restore: r23
  DW_CFA_restore: r30
  DW_CFA_restore: r29
  DW_CFA_advance_loc: 4 to 000a97e4
  DW_CFA_restore_state
  DW_CFA_nop
  DW_CFA_nop
  DW_CFA_nop
  DW_CFA_nop

00007ef8 00000014 00007efc FDE cie=00000000 pc=000a993c..000a9ac0
  DW_CFA_nop
  DW_CFA_nop
  DW_CFA_nop
  DW_CFA_nop
  DW_CFA_nop
  DW_CFA_nop
  DW_CFA_nop

00007f10 0000002c 00007f14 FDE cie=00000000 pc=000a9ac0..000a9b48
  DW_CFA_advance_loc: 4 to 000a9ac4
  DW_CFA_def_cfa_offset: 32
  DW_CFA_advance_loc: 8 to 000a9acc
  DW_CFA_def_cfa: r29 ofs 32
  DW_CFA_offset: r19 at cfa-16
  DW_CFA_offset: r30 at cfa-24
  DW_CFA_offset: r29 at cfa-32
  DW_CFA_advance_loc1: 112 to 000a9b3c
  DW_CFA_def_cfa: r31 ofs 32
  DW_CFA_advance_loc: 8 to 000a9b44
  DW_CFA_def_cfa_offset: 0
  DW_CFA_restore: r19
  DW_CFA_restore: r30
  DW_CFA_restore: r29
  DW_CFA_nop
  DW_CFA_nop
  DW_CFA_nop
  DW_CFA_nop
  DW_CFA_nop
  DW_CFA_nop
  DW_CFA_nop

00007f40 0000002c 00007f44 FDE cie=00000000 pc=000a9b48..000a9bd8
  DW_CFA_advance_loc: 4 to 000a9b4c
  DW_CFA_def_cfa_offset: 32
  DW_CFA_advance_loc: 8 to 000a9b54
  DW_CFA_def_cfa: r29 ofs 32
  DW_CFA_offset: r19 at cfa-16
  DW_CFA_offset: r30 at cfa-24
  DW_CFA_offset: r29 at cfa-32
  DW_CFA_advance_loc1: 120 to 000a9bcc
  DW_CFA_def_cfa: r31 ofs 32
  DW_CFA_advance_loc: 8 to 000a9bd4
  DW_CFA_def_cfa_offset: 0
  DW_CFA_restore: r19
  DW_CFA_restore: r30
  DW_CFA_restore: r29
  DW_CFA_nop
  DW_CFA_nop
  DW_CFA_nop
  DW_CFA_nop
  DW_CFA_nop
  DW_CFA_nop
  DW_CFA_nop

00007f70 0000002c 00007f74 FDE cie=00000000 pc=000a9bd8..000a9ce8
  DW_CFA_advance_loc: 4 to 000a9bdc
  DW_CFA_def_cfa_offset: 128
  DW_CFA_advance_loc: 12 to 000a9be8
  DW_CFA_def_cfa: r29 ofs 32
  DW_CFA_offset: r19 at cfa-16
  DW_CFA_offset: r30 at cfa-24
  DW_CFA_offset: r29 at cfa-32
  DW_CFA_advance_loc1: 240 to 000a9cd8
  DW_CFA_def_cfa: r31 ofs 128
  DW_CFA_advance_loc: 12 to 000a9ce4
  DW_CFA_def_cfa_offset: 0
  DW_CFA_restore: r19
  DW_CFA_restore: r30
  DW_CFA_restore: r29
  DW_CFA_nop
  DW_CFA_nop
  DW_CFA_nop
  DW_CFA_nop
  DW_CFA_nop

00007fa0 00000044 00007fa4 FDE cie=00000000 pc=000a9ce8..000aa1c0
  DW_CFA_advance_loc: 4 to 000a9cec
  DW_CFA_def_cfa_offset: 144
  DW_CFA_advance_loc: 16 to 000a9cfc
  DW_CFA_def_cfa: r29 ofs 48
  DW_CFA_offset: r19 at cfa-8
  DW_CFA_offset: r20 at cfa-16
  DW_CFA_offset: r21 at cfa-24
  DW_CFA_offset: r22 at cfa-32
  DW_CFA_offset: r30 at cfa-40
  DW_CFA_offset: r29 at cfa-48
  DW_CFA_remember_state
  DW_CFA_advance_loc2: 1056 to 000aa11c
  DW_CFA_def_cfa: r31 ofs 144
  DW_CFA_advance_loc: 16 to 000aa12c
  DW_CFA_def_cfa_offset: 0
  DW_CFA_restore: r19
  DW_CFA_restore: r20
  DW_CFA_restore: r21
  DW_CFA_restore: r22
  DW_CFA_restore: r30
  DW_CFA_restore: r29
  DW_CFA_advance_loc: 4 to 000aa130
  DW_CFA_restore_state
  DW_CFA_advance_loc1: 124 to 000aa1ac
  DW_CFA_def_cfa: r31 ofs 144
  DW_CFA_advance_loc: 16 to 000aa1bc
  DW_CFA_def_cfa_offset: 0
  DW_CFA_restore: r19
  DW_CFA_restore: r20
  DW_CFA_restore: r21
  DW_CFA_restore: r22
  DW_CFA_restore: r30
  DW_CFA_restore: r29
  DW_CFA_nop

00007fe8 00000014 00007fec FDE cie=00000000 pc=000aa1c0..000aa2b8
  DW_CFA_nop
  DW_CFA_nop
  DW_CFA_nop
  DW_CFA_nop
  DW_CFA_nop
  DW_CFA_nop
  DW_CFA_nop

00008000 00000014 00008004 FDE cie=00000000 pc=000aa2b8..000aa374
  DW_CFA_nop
  DW_CFA_nop
  DW_CFA_nop
  DW_CFA_nop
  DW_CFA_nop
  DW_CFA_nop
  DW_CFA_nop

00008018 00000034 0000801c FDE cie=00000000 pc=000aa374..000aa5cc
  DW_CFA_advance_loc: 4 to 000aa378
  DW_CFA_def_cfa_offset: 192
  DW_CFA_advance_loc: 20 to 000aa38c
  DW_CFA_def_cfa: r29 ofs 40
  DW_CFA_offset: r19 at cfa-8
  DW_CFA_offset: r20 at cfa-16
  DW_CFA_offset: r21 at cfa-24
  DW_CFA_offset: r30 at cfa-32
  DW_CFA_offset: r29 at cfa-40
  DW_CFA_offset_extended: r72 at cfa-48
  DW_CFA_advance_loc2: 552 to 000aa5b4
  DW_CFA_def_cfa: r31 ofs 192
  DW_CFA_advance_loc: 20 to 000aa5c8
  DW_CFA_def_cfa_offset: 0
  DW_CFA_restore: r19
  DW_CFA_restore: r20
  DW_CFA_restore: r21
  DW_CFA_restore: r30
  DW_CFA_restore: r29
  DW_CFA_restore_extended: r72
  DW_CFA_nop

00008050 0000002c 00008054 FDE cie=00000000 pc=000aa5cc..000aa6dc
  DW_CFA_advance_loc: 4 to 000aa5d0
  DW_CFA_def_cfa_offset: 144
  DW_CFA_advance_loc: 12 to 000aa5dc
  DW_CFA_def_cfa: r29 ofs 32
  DW_CFA_offset: r19 at cfa-8
  DW_CFA_offset: r20 at cfa-16
  DW_CFA_offset: r30 at cfa-24
  DW_CFA_offset: r29 at cfa-32
  DW_CFA_advance_loc1: 240 to 000aa6cc
  DW_CFA_def_cfa: r31 ofs 144
  DW_CFA_advance_loc: 12 to 000aa6d8
  DW_CFA_def_cfa_offset: 0
  DW_CFA_restore: r19
  DW_CFA_restore: r20
  DW_CFA_restore: r30
  DW_CFA_restore: r29
  DW_CFA_nop
  DW_CFA_nop

00008080 00000014 00008084 FDE cie=00000000 pc=000aa6dc..000aa6f0
  DW_CFA_nop
  DW_CFA_nop
  DW_CFA_nop
  DW_CFA_nop
  DW_CFA_nop
  DW_CFA_nop
  DW_CFA_nop

00008098 00000014 0000809c FDE cie=00000000 pc=000aa6f0..000aa704
  DW_CFA_nop
  DW_CFA_nop
  DW_CFA_nop
  DW_CFA_nop
  DW_CFA_nop
  DW_CFA_nop
  DW_CFA_nop

000080b0 00000014 000080b4 FDE cie=00000000 pc=000aa704..000aa730
  DW_CFA_advance_loc: 4 to 000aa708
  DW_CFA_def_cfa_offset: 48
  DW_CFA_advance_loc: 36 to 000aa72c
  DW_CFA_def_cfa_offset: 0
  DW_CFA_nop

000080c8 0000003c 000080cc FDE cie=00000000 pc=000aa730..000aa7ec
  DW_CFA_advance_loc: 4 to 000aa734
  DW_CFA_def_cfa_offset: 16
  DW_CFA_advance_loc: 4 to 000aa738
  DW_CFA_def_cfa: r29 ofs 16
  DW_CFA_offset: r30 at cfa-8
  DW_CFA_offset: r29 at cfa-16
  DW_CFA_remember_state
  DW_CFA_advance_loc: 60 to 000aa774
  DW_CFA_def_cfa: r31 ofs 16
  DW_CFA_advance_loc: 4 to 000aa778
  DW_CFA_def_cfa_offset: 0
  DW_CFA_restore: r30
  DW_CFA_restore: r29
  DW_CFA_advance_loc: 4 to 000aa77c
  DW_CFA_restore_state
  DW_CFA_remember_state
  DW_CFA_advance_loc1: 64 to 000aa7bc
  DW_CFA_def_cfa: r31 ofs 16
  DW_CFA_advance_loc: 4 to 000aa7c0
  DW_CFA_def_cfa_offset: 0
  DW_CFA_restore: r30
  DW_CFA_restore: r29
  DW_CFA_advance_loc: 4 to 000aa7c4
  DW_CFA_restore_state
  DW_CFA_advance_loc: 32 to 000aa7e4
  DW_CFA_def_cfa: r31 ofs 16
  DW_CFA_advance_loc: 4 to 000aa7e8
  DW_CFA_def_cfa_offset: 0
  DW_CFA_restore: r30
  DW_CFA_restore: r29
  DW_CFA_nop
  DW_CFA_nop

00008108 0000004c 0000810c FDE cie=00000000 pc=000aa7ec..000aa8b4
  DW_CFA_advance_loc: 4 to 000aa7f0
  DW_CFA_def_cfa_offset: 16
  DW_CFA_advance_loc: 4 to 000aa7f4
  DW_CFA_def_cfa: r29 ofs 16
  DW_CFA_offset: r30 at cfa-8
  DW_CFA_offset: r29 at cfa-16
  DW_CFA_remember_state
  DW_CFA_advance_loc: 60 to 000aa830
  DW_CFA_def_cfa: r31 ofs 16
  DW_CFA_advance_loc: 4 to 000aa834
  DW_CFA_def_cfa_offset: 0
  DW_CFA_restore: r30
  DW_CFA_restore: r29
  DW_CFA_advance_loc: 4 to 000aa838
  DW_CFA_restore_state
  DW_CFA_remember_state
  DW_CFA_advance_loc: 40 to 000aa860
  DW_CFA_def_cfa: r31 ofs 16
  DW_CFA_advance_loc: 4 to 000aa864
  DW_CFA_def_cfa_offset: 0
  DW_CFA_restore: r30
  DW_CFA_restore: r29
  DW_CFA_advance_loc: 4 to 000aa868
  DW_CFA_restore_state
  DW_CFA_remember_state
  DW_CFA_advance_loc: 28 to 000aa884
  DW_CFA_def_cfa: r31 ofs 16
  DW_CFA_advance_loc: 4 to 000aa888
  DW_CFA_def_cfa_offset: 0
  DW_CFA_restore: r30
  DW_CFA_restore: r29
  DW_CFA_advance_loc: 4 to 000aa88c
  DW_CFA_restore_state
  DW_CFA_advance_loc: 32 to 000aa8ac
  DW_CFA_def_cfa: r31 ofs 16
  DW_CFA_advance_loc: 4 to 000aa8b0
  DW_CFA_def_cfa_offset: 0
  DW_CFA_restore: r30
  DW_CFA_restore: r29
  DW_CFA_nop
  DW_CFA_nop
  DW_CFA_nop
  DW_CFA_nop
  DW_CFA_nop
  DW_CFA_nop
  DW_CFA_nop

00008158 0000002c 0000815c FDE cie=00000000 pc=000aa8b4..000aa974
  DW_CFA_advance_loc: 4 to 000aa8b8
  DW_CFA_def_cfa_offset: 32
  DW_CFA_advance_loc: 8 to 000aa8c0
  DW_CFA_def_cfa: r29 ofs 32
  DW_CFA_offset: r19 at cfa-16
  DW_CFA_offset: r30 at cfa-24
  DW_CFA_offset: r29 at cfa-32
  DW_CFA_advance_loc1: 168 to 000aa968
  DW_CFA_def_cfa: r31 ofs 32
  DW_CFA_advance_loc: 8 to 000aa970
  DW_CFA_def_cfa_offset: 0
  DW_CFA_restore: r19
  DW_CFA_restore: r30
  DW_CFA_restore: r29
  DW_CFA_nop
  DW_CFA_nop
  DW_CFA_nop
  DW_CFA_nop
  DW_CFA_nop
  DW_CFA_nop
  DW_CFA_nop

00008188 00000034 0000818c FDE cie=00000000 pc=000aa974..000ab244
  DW_CFA_advance_loc: 20 to 000aa988
  DW_CFA_def_cfa_offset: 288
  DW_CFA_advance_loc: 16 to 000aa998
  DW_CFA_def_cfa: r29 ofs 48
  DW_CFA_offset: r15 at cfa-8
  DW_CFA_offset: r19 at cfa-16
  DW_CFA_offset: r28 at cfa-32
  DW_CFA_offset: r30 at cfa-40
  DW_CFA_offset: r29 at cfa-48
  DW_CFA_remember_state
  DW_CFA_advance_loc: 40 to 000aa9c0
  DW_CFA_def_cfa: r31 ofs 288
  DW_CFA_advance_loc: 16 to 000aa9d0
  DW_CFA_def_cfa_offset: 0
  DW_CFA_restore: r15
  DW_CFA_restore: r19
  DW_CFA_restore: r28
  DW_CFA_restore: r30
  DW_CFA_restore: r29
  DW_CFA_advance_loc: 32 to 000aa9f0
  DW_CFA_restore_state
  DW_CFA_nop
  DW_CFA_nop
  DW_CFA_nop
  DW_CFA_nop
  DW_CFA_nop

000081c0 00000034 000081c4 FDE cie=00000000 pc=000ab244..000ab380
  DW_CFA_advance_loc: 4 to 000ab248
  DW_CFA_def_cfa_offset: 32
  DW_CFA_advance_loc: 8 to 000ab250
  DW_CFA_def_cfa: r29 ofs 32
  DW_CFA_offset: r19 at cfa-16
  DW_CFA_offset: r30 at cfa-24
  DW_CFA_offset: r29 at cfa-32
  DW_CFA_remember_state
  DW_CFA_advance_loc1: 156 to 000ab2ec
  DW_CFA_def_cfa: r31 ofs 32
  DW_CFA_advance_loc: 8 to 000ab2f4
  DW_CFA_def_cfa_offset: 0
  DW_CFA_restore: r19
  DW_CFA_restore: r30
  DW_CFA_restore: r29
  DW_CFA_advance_loc: 4 to 000ab2f8
  DW_CFA_restore_state
  DW_CFA_advance_loc1: 132 to 000ab37c
  DW_CFA_def_cfa: r31 ofs 32
  DW_CFA_nop
  DW_CFA_nop
  DW_CFA_nop
  DW_CFA_nop
  DW_CFA_nop
  DW_CFA_nop
  DW_CFA_nop

000081f8 0000003c 000081fc FDE cie=00000000 pc=000ab380..000ab61c
  DW_CFA_advance_loc: 4 to 000ab384
  DW_CFA_def_cfa_offset: 48
  DW_CFA_advance_loc: 12 to 000ab390
  DW_CFA_def_cfa: r29 ofs 16
  DW_CFA_offset: r30 at cfa-8
  DW_CFA_offset: r29 at cfa-16
  DW_CFA_offset_extended: r72 at cfa-24
  DW_CFA_offset_extended: r73 at cfa-32
  DW_CFA_offset_extended: r74 at cfa-40
  DW_CFA_offset_extended: r75 at cfa-48
  DW_CFA_advance_loc2: 636 to 000ab60c
  DW_CFA_def_cfa: r31 ofs 48
  DW_CFA_advance_loc: 12 to 000ab618
  DW_CFA_def_cfa_offset: 0
  DW_CFA_restore: r30
  DW_CFA_restore: r29
  DW_CFA_restore_extended: r72
  DW_CFA_restore_extended: r73
  DW_CFA_restore_extended: r74
  DW_CFA_restore_extended: r75
  DW_CFA_nop
  DW_CFA_nop
  DW_CFA_nop
  DW_CFA_nop
  DW_CFA_nop

00008238 0000002c 0000823c FDE cie=00000000 pc=000ab61c..000ab768
  DW_CFA_advance_loc: 4 to 000ab620
  DW_CFA_def_cfa_offset: 32
  DW_CFA_advance_loc: 8 to 000ab628
  DW_CFA_def_cfa: r29 ofs 32
  DW_CFA_offset: r19 at cfa-16
  DW_CFA_offset: r30 at cfa-24
  DW_CFA_offset: r29 at cfa-32
  DW_CFA_advance_loc2: 308 to 000ab75c
  DW_CFA_def_cfa: r31 ofs 32
  DW_CFA_advance_loc: 8 to 000ab764
  DW_CFA_def_cfa_offset: 0
  DW_CFA_restore: r19
  DW_CFA_restore: r30
  DW_CFA_restore: r29
  DW_CFA_nop
  DW_CFA_nop
  DW_CFA_nop
  DW_CFA_nop
  DW_CFA_nop
  DW_CFA_nop

00008268 00000044 0000826c FDE cie=00000000 pc=000ab768..000aba84
  DW_CFA_advance_loc: 4 to 000ab76c
  DW_CFA_def_cfa_offset: 64
  DW_CFA_advance_loc: 20 to 000ab780
  DW_CFA_def_cfa: r29 ofs 24
  DW_CFA_offset: r19 at cfa-8
  DW_CFA_offset: r30 at cfa-16
  DW_CFA_offset: r29 at cfa-24
  DW_CFA_offset_extended: r72 at cfa-32
  DW_CFA_offset_extended: r73 at cfa-40
  DW_CFA_offset_extended: r74 at cfa-48
  DW_CFA_remember_state
  DW_CFA_advance_loc2: 436 to 000ab934
  DW_CFA_def_cfa: r31 ofs 64
  DW_CFA_advance_loc: 4 to 000ab938
  DW_CFA_restore_state
  DW_CFA_advance_loc2: 308 to 000aba6c
  DW_CFA_def_cfa: r31 ofs 64
  DW_CFA_advance_loc: 20 to 000aba80
  DW_CFA_def_cfa_offset: 0
  DW_CFA_restore: r19
  DW_CFA_restore: r30
  DW_CFA_restore: r29
  DW_CFA_restore_extended: r72
  DW_CFA_restore_extended: r73
  DW_CFA_restore_extended: r74
  DW_CFA_nop
  DW_CFA_nop
  DW_CFA_nop
  DW_CFA_nop
  DW_CFA_nop
  DW_CFA_nop

000082b0 0000003c 000082b4 FDE cie=00000000 pc=000aba84..000abda8
  DW_CFA_advance_loc: 4 to 000aba88
  DW_CFA_def_cfa_offset: 64
  DW_CFA_advance_loc: 20 to 000aba9c
  DW_CFA_def_cfa: r29 ofs 24
  DW_CFA_offset: r19 at cfa-8
  DW_CFA_offset: r30 at cfa-16
  DW_CFA_offset: r29 at cfa-24
  DW_CFA_offset_extended: r72 at cfa-32
  DW_CFA_offset_extended: r73 at cfa-40
  DW_CFA_offset_extended: r74 at cfa-48
  DW_CFA_advance_loc2: 756 to 000abd90
  DW_CFA_def_cfa: r31 ofs 64
  DW_CFA_advance_loc: 20 to 000abda4
  DW_CFA_def_cfa_offset: 0
  DW_CFA_restore: r19
  DW_CFA_restore: r30
  DW_CFA_restore: r29
  DW_CFA_restore_extended: r72
  DW_CFA_restore_extended: r73
  DW_CFA_restore_extended: r74
  DW_CFA_nop
  DW_CFA_nop
  DW_CFA_nop
  DW_CFA_nop
  DW_CFA_nop
  DW_CFA_nop
  DW_CFA_nop

000082f0 0000002c 000082f4 FDE cie=00000000 pc=000abda8..000abee8
  DW_CFA_advance_loc: 4 to 000abdac
  DW_CFA_def_cfa_offset: 32
  DW_CFA_advance_loc: 8 to 000abdb4
  DW_CFA_def_cfa: r29 ofs 32
  DW_CFA_offset: r19 at cfa-16
  DW_CFA_offset: r30 at cfa-24
  DW_CFA_offset: r29 at cfa-32
  DW_CFA_advance_loc2: 296 to 000abedc
  DW_CFA_def_cfa: r31 ofs 32
  DW_CFA_advance_loc: 8 to 000abee4
  DW_CFA_def_cfa_offset: 0
  DW_CFA_restore: r19
  DW_CFA_restore: r30
  DW_CFA_restore: r29
  DW_CFA_nop
  DW_CFA_nop
  DW_CFA_nop
  DW_CFA_nop
  DW_CFA_nop
  DW_CFA_nop

00008320 0000002c 00008324 FDE cie=00000000 pc=000abee8..000ac038
  DW_CFA_advance_loc: 4 to 000abeec
  DW_CFA_def_cfa_offset: 32
  DW_CFA_advance_loc: 8 to 000abef4
  DW_CFA_def_cfa: r29 ofs 32
  DW_CFA_offset: r19 at cfa-16
  DW_CFA_offset: r30 at cfa-24
  DW_CFA_offset: r29 at cfa-32
  DW_CFA_advance_loc2: 312 to 000ac02c
  DW_CFA_def_cfa: r31 ofs 32
  DW_CFA_advance_loc: 8 to 000ac034
  DW_CFA_def_cfa_offset: 0
  DW_CFA_restore: r19
  DW_CFA_restore: r30
  DW_CFA_restore: r29
  DW_CFA_nop
  DW_CFA_nop
  DW_CFA_nop
  DW_CFA_nop
  DW_CFA_nop
  DW_CFA_nop

00008350 0000003c 00008354 FDE cie=00000000 pc=000ac038..000ac138
  DW_CFA_advance_loc: 4 to 000ac03c
  DW_CFA_def_cfa_offset: 32
  DW_CFA_advance_loc: 8 to 000ac044
  DW_CFA_def_cfa: r29 ofs 16
  DW_CFA_offset: r30 at cfa-8
  DW_CFA_offset: r29 at cfa-16
  DW_CFA_offset_extended: r72 at cfa-32
  DW_CFA_remember_state
  DW_CFA_advance_loc1: 200 to 000ac10c
  DW_CFA_def_cfa: r31 ofs 32
  DW_CFA_advance_loc: 8 to 000ac114
  DW_CFA_def_cfa_offset: 0
  DW_CFA_restore: r30
  DW_CFA_restore: r29
  DW_CFA_restore_extended: r72
  DW_CFA_advance_loc: 4 to 000ac118
  DW_CFA_restore_state
  DW_CFA_advance_loc: 20 to 000ac12c
  DW_CFA_def_cfa: r31 ofs 32
  DW_CFA_advance_loc: 8 to 000ac134
  DW_CFA_def_cfa_offset: 0
  DW_CFA_restore: r30
  DW_CFA_restore: r29
  DW_CFA_restore_extended: r72
  DW_CFA_nop
  DW_CFA_nop
  DW_CFA_nop
  DW_CFA_nop
  DW_CFA_nop
  DW_CFA_nop
  DW_CFA_nop

00008390 0000002c 00008394 FDE cie=00000000 pc=000ac138..000ac240
  DW_CFA_advance_loc: 4 to 000ac13c
  DW_CFA_def_cfa_offset: 32
  DW_CFA_advance_loc: 8 to 000ac144
  DW_CFA_def_cfa: r29 ofs 16
  DW_CFA_offset: r30 at cfa-8
  DW_CFA_offset: r29 at cfa-16
  DW_CFA_offset_extended: r72 at cfa-32
  DW_CFA_advance_loc1: 240 to 000ac234
  DW_CFA_def_cfa: r31 ofs 32
  DW_CFA_advance_loc: 8 to 000ac23c
  DW_CFA_def_cfa_offset: 0
  DW_CFA_restore: r30
  DW_CFA_restore: r29
  DW_CFA_restore_extended: r72
  DW_CFA_nop
  DW_CFA_nop
  DW_CFA_nop
  DW_CFA_nop
  DW_CFA_nop

000083c0 0000002c 000083c4 FDE cie=00000000 pc=000ac240..000ac33c
  DW_CFA_advance_loc: 20 to 000ac254
  DW_CFA_def_cfa_offset: 96
  DW_CFA_advance_loc: 12 to 000ac260
  DW_CFA_def_cfa: r29 ofs 32
  DW_CFA_offset: r15 at cfa-16
  DW_CFA_offset: r30 at cfa-24
  DW_CFA_offset: r29 at cfa-32
  DW_CFA_advance_loc1: 176 to 000ac310
  DW_CFA_def_cfa: r31 ofs 96
  DW_CFA_advance_loc: 12 to 000ac31c
  DW_CFA_def_cfa_offset: 0
  DW_CFA_restore: r15
  DW_CFA_restore: r30
  DW_CFA_restore: r29
  DW_CFA_nop
  DW_CFA_nop
  DW_CFA_nop
  DW_CFA_nop
  DW_CFA_nop
  DW_CFA_nop
  DW_CFA_nop

000083f0 00000034 000083f4 FDE cie=00000000 pc=000ac33c..000ac6b4
  DW_CFA_advance_loc: 4 to 000ac340
  DW_CFA_def_cfa_offset: 144
  DW_CFA_advance_loc: 16 to 000ac350
  DW_CFA_def_cfa: r29 ofs 48
  DW_CFA_offset: r19 at cfa-8
  DW_CFA_offset: r20 at cfa-16
  DW_CFA_offset: r21 at cfa-32
  DW_CFA_offset: r30 at cfa-40
  DW_CFA_offset: r29 at cfa-48
  DW_CFA_remember_state
  DW_CFA_advance_loc2: 836 to 000ac694
  DW_CFA_def_cfa: r31 ofs 144
  DW_CFA_advance_loc: 16 to 000ac6a4
  DW_CFA_def_cfa_offset: 0
  DW_CFA_restore: r19
  DW_CFA_restore: r20
  DW_CFA_restore: r21
  DW_CFA_restore: r30
  DW_CFA_restore: r29
  DW_CFA_advance_loc: 4 to 000ac6a8
  DW_CFA_restore_state
  DW_CFA_nop
  DW_CFA_nop
  DW_CFA_nop

00008428 00000024 0000842c FDE cie=00000000 pc=000ac6b4..000ac6cc
  DW_CFA_advance_loc: 4 to 000ac6b8
  DW_CFA_def_cfa_offset: 16
  DW_CFA_advance_loc: 4 to 000ac6bc
  DW_CFA_def_cfa: r29 ofs 16
  DW_CFA_offset: r30 at cfa-8
  DW_CFA_offset: r29 at cfa-16
  DW_CFA_advance_loc: 8 to 000ac6c4
  DW_CFA_def_cfa: r31 ofs 16
  DW_CFA_advance_loc: 4 to 000ac6c8
  DW_CFA_def_cfa_offset: 0
  DW_CFA_restore: r30
  DW_CFA_restore: r29
  DW_CFA_nop
  DW_CFA_nop
  DW_CFA_nop

00008450 00000014 00008454 FDE cie=00000000 pc=000ac6cc..000ac94c
  DW_CFA_nop
  DW_CFA_nop
  DW_CFA_nop
  DW_CFA_nop
  DW_CFA_nop
  DW_CFA_nop
  DW_CFA_nop

00008468 00000014 0000846c FDE cie=00000000 pc=000ac94c..000acbc4
  DW_CFA_nop
  DW_CFA_nop
  DW_CFA_nop
  DW_CFA_nop
  DW_CFA_nop
  DW_CFA_nop
  DW_CFA_nop

00008480 00000024 00008484 FDE cie=00000000 pc=000acbc4..000acbdc
  DW_CFA_advance_loc: 4 to 000acbc8
  DW_CFA_def_cfa_offset: 16
  DW_CFA_advance_loc: 4 to 000acbcc
  DW_CFA_def_cfa: r29 ofs 16
  DW_CFA_offset: r30 at cfa-8
  DW_CFA_offset: r29 at cfa-16
  DW_CFA_advance_loc: 8 to 000acbd4
  DW_CFA_def_cfa: r31 ofs 16
  DW_CFA_advance_loc: 4 to 000acbd8
  DW_CFA_def_cfa_offset: 0
  DW_CFA_restore: r30
  DW_CFA_restore: r29
  DW_CFA_nop
  DW_CFA_nop
  DW_CFA_nop

000084a8 00000014 000084ac FDE cie=00000000 pc=000acbdc..000acbf8
  DW_CFA_advance_loc: 4 to 000acbe0
  DW_CFA_def_cfa_offset: 32
  DW_CFA_advance_loc: 20 to 000acbf4
  DW_CFA_def_cfa_offset: 0
  DW_CFA_nop

000084c0 00000014 000084c4 FDE cie=00000000 pc=000acbf8..000acc38
  DW_CFA_nop
  DW_CFA_nop
  DW_CFA_nop
  DW_CFA_nop
  DW_CFA_nop
  DW_CFA_nop
  DW_CFA_nop

000084d8 00000014 000084dc FDE cie=00000000 pc=000acc38..000acc78
  DW_CFA_nop
  DW_CFA_nop
  DW_CFA_nop
  DW_CFA_nop
  DW_CFA_nop
  DW_CFA_nop
  DW_CFA_nop

000084f0 00000024 000084f4 FDE cie=00000000 pc=000acc78..000acd0c
  DW_CFA_advance_loc: 4 to 000acc7c
  DW_CFA_def_cfa_offset: 96
  DW_CFA_advance_loc: 8 to 000acc84
  DW_CFA_def_cfa: r29 ofs 16
  DW_CFA_offset: r30 at cfa-8
  DW_CFA_offset: r29 at cfa-16
  DW_CFA_advance_loc1: 124 to 000acd00
  DW_CFA_def_cfa: r31 ofs 96
  DW_CFA_advance_loc: 8 to 000acd08
  DW_CFA_def_cfa_offset: 0
  DW_CFA_restore: r30
  DW_CFA_restore: r29
  DW_CFA_nop
  DW_CFA_nop

00008518 00000014 0000851c FDE cie=00000000 pc=000acd0c..000acd20
  DW_CFA_nop
  DW_CFA_nop
  DW_CFA_nop
  DW_CFA_nop
  DW_CFA_nop
  DW_CFA_nop
  DW_CFA_nop

00008530 00000014 00008534 FDE cie=00000000 pc=000acd20..000acd34
  DW_CFA_nop
  DW_CFA_nop
  DW_CFA_nop
  DW_CFA_nop
  DW_CFA_nop
  DW_CFA_nop
  DW_CFA_nop

00008548 0000002c 0000854c FDE cie=00000000 pc=000acd34..000ace40
  DW_CFA_advance_loc: 4 to 000acd38
  DW_CFA_def_cfa_offset: 144
  DW_CFA_advance_loc: 12 to 000acd44
  DW_CFA_def_cfa: r29 ofs 32
  DW_CFA_offset: r19 at cfa-8
  DW_CFA_offset: r20 at cfa-16
  DW_CFA_offset: r30 at cfa-24
  DW_CFA_offset: r29 at cfa-32
  DW_CFA_advance_loc1: 236 to 000ace30
  DW_CFA_def_cfa: r31 ofs 144
  DW_CFA_advance_loc: 12 to 000ace3c
  DW_CFA_def_cfa_offset: 0
  DW_CFA_restore: r19
  DW_CFA_restore: r20
  DW_CFA_restore: r30
  DW_CFA_restore: r29
  DW_CFA_nop
  DW_CFA_nop

00008578 000000ac 0000857c FDE cie=00000000 pc=000ace40..000ad3c0
  DW_CFA_advance_loc: 4 to 000ace44
  DW_CFA_def_cfa_offset: 464
  DW_CFA_advance_loc: 28 to 000ace60
  DW_CFA_def_cfa: r29 ofs 96
  DW_CFA_offset: r19 at cfa-8
  DW_CFA_offset: r20 at cfa-16
  DW_CFA_offset: r21 at cfa-24
  DW_CFA_offset: r22 at cfa-32
  DW_CFA_offset: r23 at cfa-40
  DW_CFA_offset: r24 at cfa-48
  DW_CFA_offset: r25 at cfa-56
  DW_CFA_offset: r26 at cfa-64
  DW_CFA_offset: r27 at cfa-72
  DW_CFA_offset: r28 at cfa-80
  DW_CFA_offset: r30 at cfa-88
  DW_CFA_offset: r29 at cfa-96
  DW_CFA_remember_state
  DW_CFA_advance_loc: 56 to 000ace98
  DW_CFA_def_cfa: r31 ofs 464
  DW_CFA_advance_loc: 28 to 000aceb4
  DW_CFA_def_cfa_offset: 0
  DW_CFA_restore: r19
  DW_CFA_restore: r20
  DW_CFA_restore: r21
  DW_CFA_restore: r22
  DW_CFA_restore: r23
  DW_CFA_restore: r24
  DW_CFA_restore: r25
  DW_CFA_restore: r26
  DW_CFA_restore: r27
  DW_CFA_restore: r28
  DW_CFA_restore: r30
  DW_CFA_restore: r29
  DW_CFA_advance_loc: 4 to 000aceb8
  DW_CFA_restore_state
  DW_CFA_remember_state
  DW_CFA_advance_loc1: 100 to 000acf1c
  DW_CFA_def_cfa: r31 ofs 464
  DW_CFA_advance_loc: 28 to 000acf38
  DW_CFA_def_cfa_offset: 0
  DW_CFA_restore: r19
  DW_CFA_restore: r20
  DW_CFA_restore: r21
  DW_CFA_restore: r22
  DW_CFA_restore: r23
  DW_CFA_restore: r24
  DW_CFA_restore: r25
  DW_CFA_restore: r26
  DW_CFA_restore: r27
  DW_CFA_restore: r28
  DW_CFA_restore: r30
  DW_CFA_restore: r29
  DW_CFA_advance_loc: 4 to 000acf3c
  DW_CFA_restore_state
  DW_CFA_remember_state
  DW_CFA_advance_loc2: 552 to 000ad164
  DW_CFA_def_cfa: r31 ofs 464
  DW_CFA_advance_loc: 4 to 000ad168
  DW_CFA_restore_state
  DW_CFA_remember_state
  DW_CFA_advance_loc2: 408 to 000ad300
  DW_CFA_def_cfa: r31 ofs 464
  DW_CFA_advance_loc: 28 to 000ad31c
  DW_CFA_def_cfa_offset: 0
  DW_CFA_restore: r19
  DW_CFA_restore: r20
  DW_CFA_restore: r21
  DW_CFA_restore: r22
  DW_CFA_restore: r23
  DW_CFA_restore: r24
  DW_CFA_restore: r25
  DW_CFA_restore: r26
  DW_CFA_restore: r27
  DW_CFA_restore: r28
  DW_CFA_restore: r30
  DW_CFA_restore: r29
  DW_CFA_advance_loc: 4 to 000ad320
  DW_CFA_restore_state
  DW_CFA_remember_state
  DW_CFA_advance_loc1: 84 to 000ad374
  DW_CFA_def_cfa: r31 ofs 464
  DW_CFA_advance_loc: 28 to 000ad390
  DW_CFA_def_cfa_offset: 0
  DW_CFA_restore: r19
  DW_CFA_restore: r20
  DW_CFA_restore: r21
  DW_CFA_restore: r22
  DW_CFA_restore: r23
  DW_CFA_restore: r24
  DW_CFA_restore: r25
  DW_CFA_restore: r26
  DW_CFA_restore: r27
  DW_CFA_restore: r28
  DW_CFA_restore: r30
  DW_CFA_restore: r29
  DW_CFA_advance_loc: 4 to 000ad394
  DW_CFA_restore_state
  DW_CFA_advance_loc: 12 to 000ad3a0
  DW_CFA_def_cfa: r31 ofs 464
  DW_CFA_advance_loc: 28 to 000ad3bc
  DW_CFA_def_cfa_offset: 0
  DW_CFA_restore: r19
  DW_CFA_restore: r20
  DW_CFA_restore: r21
  DW_CFA_restore: r22
  DW_CFA_restore: r23
  DW_CFA_restore: r24
  DW_CFA_restore: r25
  DW_CFA_restore: r26
  DW_CFA_restore: r27
  DW_CFA_restore: r28
  DW_CFA_restore: r30
  DW_CFA_restore: r29
  DW_CFA_nop

00008628 00000024 0000862c FDE cie=00000000 pc=000ad3c0..000ad4d4
  DW_CFA_advance_loc: 4 to 000ad3c4
  DW_CFA_def_cfa_offset: 96
  DW_CFA_advance_loc: 8 to 000ad3cc
  DW_CFA_def_cfa: r29 ofs 16
  DW_CFA_offset: r30 at cfa-8
  DW_CFA_offset: r29 at cfa-16
  DW_CFA_advance_loc1: 252 to 000ad4c8
  DW_CFA_def_cfa: r31 ofs 96
  DW_CFA_advance_loc: 8 to 000ad4d0
  DW_CFA_def_cfa_offset: 0
  DW_CFA_restore: r30
  DW_CFA_restore: r29
  DW_CFA_nop
  DW_CFA_nop

00008650 00000024 00008654 FDE cie=00000000 pc=000ad4d4..000ad538
  DW_CFA_advance_loc: 4 to 000ad4d8
  DW_CFA_def_cfa_offset: 80
  DW_CFA_advance_loc: 8 to 000ad4e0
  DW_CFA_def_cfa: r29 ofs 16
  DW_CFA_offset: r30 at cfa-8
  DW_CFA_offset: r29 at cfa-16
  DW_CFA_advance_loc1: 76 to 000ad52c
  DW_CFA_def_cfa: r31 ofs 80
  DW_CFA_advance_loc: 8 to 000ad534
  DW_CFA_def_cfa_offset: 0
  DW_CFA_restore: r30
  DW_CFA_restore: r29
  DW_CFA_nop
  DW_CFA_nop

00008678 00000034 0000867c FDE cie=00000000 pc=000ad538..000ad5e0
  DW_CFA_advance_loc: 4 to 000ad53c
  DW_CFA_def_cfa_offset: 96
  DW_CFA_advance_loc: 8 to 000ad544
  DW_CFA_def_cfa: r29 ofs 16
  DW_CFA_offset: r30 at cfa-8
  DW_CFA_offset: r29 at cfa-16
  DW_CFA_remember_state
  DW_CFA_advance_loc1: 128 to 000ad5c4
  DW_CFA_def_cfa: r31 ofs 96
  DW_CFA_advance_loc: 8 to 000ad5cc
  DW_CFA_def_cfa_offset: 0
  DW_CFA_restore: r30
  DW_CFA_restore: r29
  DW_CFA_advance_loc: 4 to 000ad5d0
  DW_CFA_restore_state
  DW_CFA_advance_loc: 4 to 000ad5d4
  DW_CFA_def_cfa: r31 ofs 96
  DW_CFA_advance_loc: 8 to 000ad5dc
  DW_CFA_def_cfa_offset: 0
  DW_CFA_restore: r30
  DW_CFA_restore: r29
  DW_CFA_nop
  DW_CFA_nop
  DW_CFA_nop
  DW_CFA_nop
  DW_CFA_nop
  DW_CFA_nop

000086b0 0000002c 000086b4 FDE cie=00000000 pc=000ad5e0..000ad750
  DW_CFA_advance_loc: 4 to 000ad5e4
  DW_CFA_def_cfa_offset: 128
  DW_CFA_advance_loc: 12 to 000ad5f0
  DW_CFA_def_cfa: r29 ofs 32
  DW_CFA_offset: r19 at cfa-16
  DW_CFA_offset: r30 at cfa-24
  DW_CFA_offset: r29 at cfa-32
  DW_CFA_advance_loc2: 336 to 000ad740
  DW_CFA_def_cfa: r31 ofs 128
  DW_CFA_advance_loc: 12 to 000ad74c
  DW_CFA_def_cfa_offset: 0
  DW_CFA_restore: r19
  DW_CFA_restore: r30
  DW_CFA_restore: r29
  DW_CFA_nop
  DW_CFA_nop
  DW_CFA_nop
  DW_CFA_nop

000086e0 00000024 000086e4 FDE cie=00000000 pc=000ad750..000ad7f4
  DW_CFA_advance_loc: 4 to 000ad754
  DW_CFA_def_cfa_offset: 80
  DW_CFA_advance_loc: 8 to 000ad75c
  DW_CFA_def_cfa: r29 ofs 16
  DW_CFA_offset: r30 at cfa-8
  DW_CFA_offset: r29 at cfa-16
  DW_CFA_advance_loc1: 140 to 000ad7e8
  DW_CFA_def_cfa: r31 ofs 80
  DW_CFA_advance_loc: 8 to 000ad7f0
  DW_CFA_def_cfa_offset: 0
  DW_CFA_restore: r30
  DW_CFA_restore: r29
  DW_CFA_nop
  DW_CFA_nop

00008708 00000024 0000870c FDE cie=00000000 pc=000ad7f4..000ad894
  DW_CFA_advance_loc: 4 to 000ad7f8
  DW_CFA_def_cfa_offset: 80
  DW_CFA_advance_loc: 8 to 000ad800
  DW_CFA_def_cfa: r29 ofs 16
  DW_CFA_offset: r30 at cfa-8
  DW_CFA_offset: r29 at cfa-16
  DW_CFA_advance_loc1: 136 to 000ad888
  DW_CFA_def_cfa: r31 ofs 80
  DW_CFA_advance_loc: 8 to 000ad890
  DW_CFA_def_cfa_offset: 0
  DW_CFA_restore: r30
  DW_CFA_restore: r29
  DW_CFA_nop
  DW_CFA_nop

00008730 00000014 00008734 FDE cie=00000000 pc=000ad894..000ada0c
  DW_CFA_nop
  DW_CFA_nop
  DW_CFA_nop
  DW_CFA_nop
  DW_CFA_nop
  DW_CFA_nop
  DW_CFA_nop

00008748 00000014 0000874c FDE cie=00000000 pc=000ada0c..000adb7c
  DW_CFA_nop
  DW_CFA_nop
  DW_CFA_nop
  DW_CFA_nop
  DW_CFA_nop
  DW_CFA_nop
  DW_CFA_nop

00008760 0000003c 00008764 FDE cie=00000000 pc=000adb7c..000adddc
  DW_CFA_advance_loc: 4 to 000adb80
  DW_CFA_def_cfa_offset: 320
  DW_CFA_advance_loc: 24 to 000adb98
  DW_CFA_def_cfa: r29 ofs 80
  DW_CFA_offset: r19 at cfa-8
  DW_CFA_offset: r20 at cfa-16
  DW_CFA_offset: r21 at cfa-24
  DW_CFA_offset: r22 at cfa-32
  DW_CFA_offset: r23 at cfa-40
  DW_CFA_offset: r24 at cfa-48
  DW_CFA_offset: r28 at cfa-64
  DW_CFA_offset: r30 at cfa-72
  DW_CFA_offset: r29 at cfa-80
  DW_CFA_remember_state
  DW_CFA_advance_loc: 60 to 000adbd4
  DW_CFA_def_cfa: r31 ofs 320
  DW_CFA_advance_loc: 24 to 000adbec
  DW_CFA_def_cfa_offset: 0
  DW_CFA_restore: r19
  DW_CFA_restore: r20
  DW_CFA_restore: r21
  DW_CFA_restore: r22
  DW_CFA_restore: r23
  DW_CFA_restore: r24
  DW_CFA_restore: r28
  DW_CFA_restore: r30
  DW_CFA_restore: r29
  DW_CFA_advance_loc: 4 to 000adbf0
  DW_CFA_restore_state
  DW_CFA_nop

000087a0 0000002c 000087a4 FDE cie=00000000 pc=000adddc..000ade50
  DW_CFA_advance_loc: 4 to 000adde0
  DW_CFA_def_cfa_offset: 32
  DW_CFA_advance_loc: 8 to 000adde8
  DW_CFA_def_cfa: r29 ofs 32
  DW_CFA_offset: r19 at cfa-16
  DW_CFA_offset: r30 at cfa-24
  DW_CFA_offset: r29 at cfa-32
  DW_CFA_advance_loc1: 92 to 000ade44
  DW_CFA_def_cfa: r31 ofs 32
  DW_CFA_advance_loc: 8 to 000ade4c
  DW_CFA_def_cfa_offset: 0
  DW_CFA_restore: r19
  DW_CFA_restore: r30
  DW_CFA_restore: r29
  DW_CFA_nop
  DW_CFA_nop
  DW_CFA_nop
  DW_CFA_nop
  DW_CFA_nop
  DW_CFA_nop
  DW_CFA_nop

000087d0 0000002c 000087d4 FDE cie=00000000 pc=000ade50..000adec4
  DW_CFA_advance_loc: 4 to 000ade54
  DW_CFA_def_cfa_offset: 32
  DW_CFA_advance_loc: 8 to 000ade5c
  DW_CFA_def_cfa: r29 ofs 32
  DW_CFA_offset: r19 at cfa-16
  DW_CFA_offset: r30 at cfa-24
  DW_CFA_offset: r29 at cfa-32
  DW_CFA_advance_loc1: 92 to 000adeb8
  DW_CFA_def_cfa: r31 ofs 32
  DW_CFA_advance_loc: 8 to 000adec0
  DW_CFA_def_cfa_offset: 0
  DW_CFA_restore: r19
  DW_CFA_restore: r30
  DW_CFA_restore: r29
  DW_CFA_nop
  DW_CFA_nop
  DW_CFA_nop
  DW_CFA_nop
  DW_CFA_nop
  DW_CFA_nop
  DW_CFA_nop

00008800 00000014 00008804 FDE cie=00000000 pc=000adec4..000adfc8
  DW_CFA_nop
  DW_CFA_nop
  DW_CFA_nop
  DW_CFA_nop
  DW_CFA_nop
  DW_CFA_nop
  DW_CFA_nop

00008818 00000014 0000881c FDE cie=00000000 pc=000adfc8..000ae084
  DW_CFA_nop
  DW_CFA_nop
  DW_CFA_nop
  DW_CFA_nop
  DW_CFA_nop
  DW_CFA_nop
  DW_CFA_nop

00008830 0000002c 00008834 FDE cie=00000000 pc=000ae084..000ae374
  DW_CFA_advance_loc: 4 to 000ae088
  DW_CFA_def_cfa_offset: 224
  DW_CFA_advance_loc: 12 to 000ae094
  DW_CFA_def_cfa: r29 ofs 32
  DW_CFA_offset: r19 at cfa-8
  DW_CFA_offset: r20 at cfa-16
  DW_CFA_offset: r30 at cfa-24
  DW_CFA_offset: r29 at cfa-32
  DW_CFA_advance_loc2: 720 to 000ae364
  DW_CFA_def_cfa: r31 ofs 224
  DW_CFA_advance_loc: 12 to 000ae370
  DW_CFA_def_cfa_offset: 0
  DW_CFA_restore: r19
  DW_CFA_restore: r20
  DW_CFA_restore: r30
  DW_CFA_restore: r29
  DW_CFA_nop

00008860 00000014 00008864 FDE cie=00000000 pc=000ae374..000ae3d8
  DW_CFA_nop
  DW_CFA_nop
  DW_CFA_nop
  DW_CFA_nop
  DW_CFA_nop
  DW_CFA_nop
  DW_CFA_nop

00008878 00000014 0000887c FDE cie=00000000 pc=000ae3d8..000ae43c
  DW_CFA_nop
  DW_CFA_nop
  DW_CFA_nop
  DW_CFA_nop
  DW_CFA_nop
  DW_CFA_nop
  DW_CFA_nop

00008890 0000002c 00008894 FDE cie=00000000 pc=000ae43c..000ae510
  DW_CFA_advance_loc: 4 to 000ae440
  DW_CFA_def_cfa_offset: 112
  DW_CFA_advance_loc: 12 to 000ae44c
  DW_CFA_def_cfa: r29 ofs 32
  DW_CFA_offset: r19 at cfa-16
  DW_CFA_offset: r30 at cfa-24
  DW_CFA_offset: r29 at cfa-32
  DW_CFA_advance_loc1: 180 to 000ae500
  DW_CFA_def_cfa: r31 ofs 112
  DW_CFA_advance_loc: 12 to 000ae50c
  DW_CFA_def_cfa_offset: 0
  DW_CFA_restore: r19
  DW_CFA_restore: r30
  DW_CFA_restore: r29
  DW_CFA_nop
  DW_CFA_nop
  DW_CFA_nop
  DW_CFA_nop
  DW_CFA_nop
  DW_CFA_nop
  DW_CFA_nop

000088c0 00000014 000088c4 FDE cie=00000000 pc=000ae510..000ae608
  DW_CFA_nop
  DW_CFA_nop
  DW_CFA_nop
  DW_CFA_nop
  DW_CFA_nop
  DW_CFA_nop
  DW_CFA_nop

000088d8 00000044 000088dc FDE cie=00000000 pc=000ae608..000ae874
  DW_CFA_advance_loc: 4 to 000ae60c
  DW_CFA_def_cfa_offset: 64
  DW_CFA_advance_loc: 16 to 000ae61c
  DW_CFA_def_cfa: r29 ofs 32
  DW_CFA_offset: r19 at cfa-8
  DW_CFA_offset: r20 at cfa-16
  DW_CFA_offset: r30 at cfa-24
  DW_CFA_offset: r29 at cfa-32
  DW_CFA_offset_extended: r72 at cfa-40
  DW_CFA_offset_extended: r73 at cfa-48
  DW_CFA_offset_extended: r74 at cfa-56
  DW_CFA_offset_extended: r75 at cfa-64
  DW_CFA_advance_loc2: 580 to 000ae860
  DW_CFA_def_cfa: r31 ofs 64
  DW_CFA_advance_loc: 16 to 000ae870
  DW_CFA_def_cfa_offset: 0
  DW_CFA_restore: r19
  DW_CFA_restore: r20
  DW_CFA_restore: r30
  DW_CFA_restore: r29
  DW_CFA_restore_extended: r72
  DW_CFA_restore_extended: r73
  DW_CFA_restore_extended: r74
  DW_CFA_restore_extended: r75
  DW_CFA_nop
  DW_CFA_nop
  DW_CFA_nop
  DW_CFA_nop
  DW_CFA_nop
  DW_CFA_nop
  DW_CFA_nop

00008920 00000054 00008924 FDE cie=00000000 pc=000ae874..000aea58
  DW_CFA_advance_loc: 4 to 000ae878
  DW_CFA_def_cfa_offset: 32
  DW_CFA_advance_loc: 8 to 000ae880
  DW_CFA_def_cfa: r29 ofs 16
  DW_CFA_offset: r30 at cfa-8
  DW_CFA_offset: r29 at cfa-16
  DW_CFA_offset_extended: r72 at cfa-24
  DW_CFA_offset_extended: r73 at cfa-32
  DW_CFA_remember_state
  DW_CFA_advance_loc: 40 to 000ae8a8
  DW_CFA_def_cfa: r31 ofs 32
  DW_CFA_advance_loc: 4 to 000ae8ac
  DW_CFA_restore_state
  DW_CFA_remember_state
  DW_CFA_advance_loc: 16 to 000ae8bc
  DW_CFA_def_cfa: r31 ofs 32
  DW_CFA_advance_loc: 8 to 000ae8c4
  DW_CFA_def_cfa_offset: 0
  DW_CFA_restore: r30
  DW_CFA_restore: r29
  DW_CFA_restore_extended: r72
  DW_CFA_restore_extended: r73
  DW_CFA_advance_loc: 4 to 000ae8c8
  DW_CFA_restore_state
  DW_CFA_remember_state
  DW_CFA_advance_loc: 12 to 000ae8d4
  DW_CFA_def_cfa: r31 ofs 32
  DW_CFA_advance_loc: 8 to 000ae8dc
  DW_CFA_def_cfa_offset: 0
  DW_CFA_restore: r30
  DW_CFA_restore: r29
  DW_CFA_restore_extended: r72
  DW_CFA_restore_extended: r73
  DW_CFA_advance_loc: 4 to 000ae8e0
  DW_CFA_restore_state
  DW_CFA_remember_state
  DW_CFA_advance_loc2: 332 to 000aea2c
  DW_CFA_def_cfa: r31 ofs 32
  DW_CFA_advance_loc: 4 to 000aea30
  DW_CFA_restore_state
  DW_CFA_advance_loc: 36 to 000aea54
  DW_CFA_def_cfa: r31 ofs 32
  DW_CFA_nop
  DW_CFA_nop

00008978 00000014 0000897c FDE cie=00000000 pc=000aea58..000aeb64
  DW_CFA_nop
  DW_CFA_nop
  DW_CFA_nop
  DW_CFA_nop
  DW_CFA_nop
  DW_CFA_nop
  DW_CFA_nop

00008990 00000044 00008994 FDE cie=00000000 pc=000aeb64..000aedc4
  DW_CFA_advance_loc: 4 to 000aeb68
  DW_CFA_def_cfa_offset: 64
  DW_CFA_advance_loc: 16 to 000aeb78
  DW_CFA_def_cfa: r29 ofs 32
  DW_CFA_offset: r19 at cfa-8
  DW_CFA_offset: r20 at cfa-16
  DW_CFA_offset: r30 at cfa-24
  DW_CFA_offset: r29 at cfa-32
  DW_CFA_offset_extended: r72 at cfa-40
  DW_CFA_offset_extended: r73 at cfa-48
  DW_CFA_offset_extended: r74 at cfa-56
  DW_CFA_offset_extended: r75 at cfa-64
  DW_CFA_advance_loc2: 568 to 000aedb0
  DW_CFA_def_cfa: r31 ofs 64
  DW_CFA_advance_loc: 16 to 000aedc0
  DW_CFA_def_cfa_offset: 0
  DW_CFA_restore: r19
  DW_CFA_restore: r20
  DW_CFA_restore: r30
  DW_CFA_restore: r29
  DW_CFA_restore_extended: r72
  DW_CFA_restore_extended: r73
  DW_CFA_restore_extended: r74
  DW_CFA_restore_extended: r75
  DW_CFA_nop
  DW_CFA_nop
  DW_CFA_nop
  DW_CFA_nop
  DW_CFA_nop
  DW_CFA_nop
  DW_CFA_nop

000089d8 0000005c 000089dc FDE cie=00000000 pc=000aedc4..000af050
  DW_CFA_advance_loc: 4 to 000aedc8
  DW_CFA_def_cfa_offset: 48
  DW_CFA_advance_loc: 12 to 000aedd4
  DW_CFA_def_cfa: r29 ofs 16
  DW_CFA_offset: r30 at cfa-8
  DW_CFA_offset: r29 at cfa-16
  DW_CFA_offset_extended: r72 at cfa-24
  DW_CFA_offset_extended: r73 at cfa-32
  DW_CFA_offset_extended: r74 at cfa-48
  DW_CFA_remember_state
  DW_CFA_advance_loc: 40 to 000aedfc
  DW_CFA_def_cfa: r31 ofs 48
  DW_CFA_advance_loc: 4 to 000aee00
  DW_CFA_restore_state
  DW_CFA_remember_state
  DW_CFA_advance_loc: 16 to 000aee10
  DW_CFA_def_cfa: r31 ofs 48
  DW_CFA_advance_loc: 12 to 000aee1c
  DW_CFA_def_cfa_offset: 0
  DW_CFA_restore: r30
  DW_CFA_restore: r29
  DW_CFA_restore_extended: r72
  DW_CFA_restore_extended: r73
  DW_CFA_restore_extended: r74
  DW_CFA_advance_loc: 4 to 000aee20
  DW_CFA_restore_state
  DW_CFA_remember_state
  DW_CFA_advance_loc: 20 to 000aee34
  DW_CFA_def_cfa: r31 ofs 48
  DW_CFA_advance_loc: 12 to 000aee40
  DW_CFA_def_cfa_offset: 0
  DW_CFA_restore: r30
  DW_CFA_restore: r29
  DW_CFA_restore_extended: r72
  DW_CFA_restore_extended: r73
  DW_CFA_restore_extended: r74
  DW_CFA_advance_loc: 4 to 000aee44
  DW_CFA_restore_state
  DW_CFA_remember_state
  DW_CFA_advance_loc1: 252 to 000aef40
  DW_CFA_def_cfa: r31 ofs 48
  DW_CFA_advance_loc: 4 to 000aef44
  DW_CFA_restore_state
  DW_CFA_advance_loc2: 264 to 000af04c
  DW_CFA_def_cfa: r31 ofs 48
  DW_CFA_nop
  DW_CFA_nop

00008a38 00000014 00008a3c FDE cie=00000000 pc=000af050..000af128
  DW_CFA_nop
  DW_CFA_nop
  DW_CFA_nop
  DW_CFA_nop
  DW_CFA_nop
  DW_CFA_nop
  DW_CFA_nop

00008a50 00000044 00008a54 FDE cie=00000000 pc=000af128..000af3ac
  DW_CFA_advance_loc: 4 to 000af12c
  DW_CFA_def_cfa_offset: 80
  DW_CFA_advance_loc: 20 to 000af140
  DW_CFA_def_cfa: r29 ofs 48
  DW_CFA_offset: r19 at cfa-8
  DW_CFA_offset: r20 at cfa-16
  DW_CFA_offset: r21 at cfa-32
  DW_CFA_offset: r30 at cfa-40
  DW_CFA_offset: r29 at cfa-48
  DW_CFA_offset_extended: r72 at cfa-56
  DW_CFA_offset_extended: r73 at cfa-64
  DW_CFA_offset_extended: r74 at cfa-72
  DW_CFA_offset_extended: r75 at cfa-80
  DW_CFA_advance_loc2: 596 to 000af394
  DW_CFA_def_cfa: r31 ofs 80
  DW_CFA_advance_loc: 20 to 000af3a8
  DW_CFA_def_cfa_offset: 0
  DW_CFA_restore: r19
  DW_CFA_restore: r20
  DW_CFA_restore: r21
  DW_CFA_restore: r30
  DW_CFA_restore: r29
  DW_CFA_restore_extended: r72
  DW_CFA_restore_extended: r73
  DW_CFA_restore_extended: r74
  DW_CFA_restore_extended: r75
  DW_CFA_nop
  DW_CFA_nop
  DW_CFA_nop
  DW_CFA_nop

00008a98 0000004c 00008a9c FDE cie=00000000 pc=000af3ac..000af56c
  DW_CFA_advance_loc: 4 to 000af3b0
  DW_CFA_def_cfa_offset: 48
  DW_CFA_advance_loc: 12 to 000af3bc
  DW_CFA_def_cfa: r29 ofs 16
  DW_CFA_offset: r30 at cfa-8
  DW_CFA_offset: r29 at cfa-16
  DW_CFA_offset_extended: r72 at cfa-24
  DW_CFA_offset_extended: r73 at cfa-32
  DW_CFA_offset_extended: r74 at cfa-48
  DW_CFA_remember_state
  DW_CFA_advance_loc1: 88 to 000af414
  DW_CFA_def_cfa: r31 ofs 48
  DW_CFA_advance_loc: 12 to 000af420
  DW_CFA_def_cfa_offset: 0
  DW_CFA_restore: r30
  DW_CFA_restore: r29
  DW_CFA_restore_extended: r72
  DW_CFA_restore_extended: r73
  DW_CFA_restore_extended: r74
  DW_CFA_advance_loc: 4 to 000af424
  DW_CFA_restore_state
  DW_CFA_remember_state
  DW_CFA_advance_loc: 20 to 000af438
  DW_CFA_def_cfa: r31 ofs 48
  DW_CFA_advance_loc: 12 to 000af444
  DW_CFA_def_cfa_offset: 0
  DW_CFA_restore: r30
  DW_CFA_restore: r29
  DW_CFA_restore_extended: r72
  DW_CFA_restore_extended: r73
  DW_CFA_restore_extended: r74
  DW_CFA_advance_loc: 4 to 000af448
  DW_CFA_restore_state
  DW_CFA_advance_loc2: 288 to 000af568
  DW_CFA_def_cfa: r31 ofs 48

00008ae8 00000014 00008aec FDE cie=00000000 pc=000af56c..000af660
  DW_CFA_nop
  DW_CFA_nop
  DW_CFA_nop
  DW_CFA_nop
  DW_CFA_nop
  DW_CFA_nop
  DW_CFA_nop

00008b00 00000044 00008b04 FDE cie=00000000 pc=000af660..000af8e4
  DW_CFA_advance_loc: 4 to 000af664
  DW_CFA_def_cfa_offset: 80
  DW_CFA_advance_loc: 20 to 000af678
  DW_CFA_def_cfa: r29 ofs 48
  DW_CFA_offset: r19 at cfa-8
  DW_CFA_offset: r20 at cfa-16
  DW_CFA_offset: r21 at cfa-32
  DW_CFA_offset: r30 at cfa-40
  DW_CFA_offset: r29 at cfa-48
  DW_CFA_offset_extended: r72 at cfa-56
  DW_CFA_offset_extended: r73 at cfa-64
  DW_CFA_offset_extended: r74 at cfa-72
  DW_CFA_offset_extended: r75 at cfa-80
  DW_CFA_advance_loc2: 596 to 000af8cc
  DW_CFA_def_cfa: r31 ofs 80
  DW_CFA_advance_loc: 20 to 000af8e0
  DW_CFA_def_cfa_offset: 0
  DW_CFA_restore: r19
  DW_CFA_restore: r20
  DW_CFA_restore: r21
  DW_CFA_restore: r30
  DW_CFA_restore: r29
  DW_CFA_restore_extended: r72
  DW_CFA_restore_extended: r73
  DW_CFA_restore_extended: r74
  DW_CFA_restore_extended: r75
  DW_CFA_nop
  DW_CFA_nop
  DW_CFA_nop
  DW_CFA_nop

00008b48 0000005c 00008b4c FDE cie=00000000 pc=000af8e4..000afb40
  DW_CFA_advance_loc: 4 to 000af8e8
  DW_CFA_def_cfa_offset: 48
  DW_CFA_advance_loc: 12 to 000af8f4
  DW_CFA_def_cfa: r29 ofs 16
  DW_CFA_offset: r30 at cfa-8
  DW_CFA_offset: r29 at cfa-16
  DW_CFA_offset_extended: r72 at cfa-24
  DW_CFA_offset_extended: r73 at cfa-32
  DW_CFA_offset_extended: r74 at cfa-48
  DW_CFA_remember_state
  DW_CFA_advance_loc: 40 to 000af91c
  DW_CFA_def_cfa: r31 ofs 48
  DW_CFA_advance_loc: 4 to 000af920
  DW_CFA_restore_state
  DW_CFA_remember_state
  DW_CFA_advance_loc: 16 to 000af930
  DW_CFA_def_cfa: r31 ofs 48
  DW_CFA_advance_loc: 12 to 000af93c
  DW_CFA_def_cfa_offset: 0
  DW_CFA_restore: r30
  DW_CFA_restore: r29
  DW_CFA_restore_extended: r72
  DW_CFA_restore_extended: r73
  DW_CFA_restore_extended: r74
  DW_CFA_advance_loc: 4 to 000af940
  DW_CFA_restore_state
  DW_CFA_remember_state
  DW_CFA_advance_loc: 24 to 000af958
  DW_CFA_def_cfa: r31 ofs 48
  DW_CFA_advance_loc: 12 to 000af964
  DW_CFA_def_cfa_offset: 0
  DW_CFA_restore: r30
  DW_CFA_restore: r29
  DW_CFA_restore_extended: r72
  DW_CFA_restore_extended: r73
  DW_CFA_restore_extended: r74
  DW_CFA_advance_loc: 4 to 000af968
  DW_CFA_restore_state
  DW_CFA_remember_state
  DW_CFA_advance_loc: 28 to 000af984
  DW_CFA_def_cfa: r31 ofs 48
  DW_CFA_advance_loc: 4 to 000af988
  DW_CFA_restore_state
  DW_CFA_advance_loc2: 436 to 000afb3c
  DW_CFA_def_cfa: r31 ofs 48
  DW_CFA_nop
  DW_CFA_nop
  DW_CFA_nop

00008ba8 0000008c 00008bac FDE cie=00000000 pc=000afb40..000b03cc
  DW_CFA_advance_loc: 4 to 000afb44
  DW_CFA_def_cfa_offset: 96
  DW_CFA_advance_loc: 24 to 000afb5c
  DW_CFA_def_cfa: r29 ofs 48
  DW_CFA_offset: r19 at cfa-8
  DW_CFA_offset: r20 at cfa-16
  DW_CFA_offset: r21 at cfa-24
  DW_CFA_offset: r22 at cfa-32
  DW_CFA_offset: r30 at cfa-40
  DW_CFA_offset: r29 at cfa-48
  DW_CFA_offset_extended: r72 at cfa-56
  DW_CFA_offset_extended: r73 at cfa-64
  DW_CFA_offset_extended: r74 at cfa-72
  DW_CFA_offset_extended: r75 at cfa-80
  DW_CFA_offset_extended: r76 at cfa-96
  DW_CFA_remember_state
  DW_CFA_advance_loc2: 256 to 000afc5c
  DW_CFA_def_cfa: r31 ofs 96
  DW_CFA_advance_loc: 24 to 000afc74
  DW_CFA_def_cfa_offset: 0
  DW_CFA_restore: r19
  DW_CFA_restore: r20
  DW_CFA_restore: r21
  DW_CFA_restore: r22
  DW_CFA_restore: r30
  DW_CFA_restore: r29
  DW_CFA_restore_extended: r72
  DW_CFA_restore_extended: r73
  DW_CFA_restore_extended: r74
  DW_CFA_restore_extended: r75
  DW_CFA_restore_extended: r76
  DW_CFA_advance_loc: 4 to 000afc78
  DW_CFA_restore_state
  DW_CFA_remember_state
  DW_CFA_advance_loc: 24 to 000afc90
  DW_CFA_def_cfa: r31 ofs 96
  DW_CFA_advance_loc: 24 to 000afca8
  DW_CFA_def_cfa_offset: 0
  DW_CFA_restore: r19
  DW_CFA_restore: r20
  DW_CFA_restore: r21
  DW_CFA_restore: r22
  DW_CFA_restore: r30
  DW_CFA_restore: r29
  DW_CFA_restore_extended: r72
  DW_CFA_restore_extended: r73
  DW_CFA_restore_extended: r74
  DW_CFA_restore_extended: r75
  DW_CFA_restore_extended: r76
  DW_CFA_advance_loc: 4 to 000afcac
  DW_CFA_restore_state
  DW_CFA_remember_state
  DW_CFA_advance_loc1: 224 to 000afd8c
  DW_CFA_def_cfa: r31 ofs 96
  DW_CFA_advance_loc: 4 to 000afd90
  DW_CFA_restore_state
  DW_CFA_advance_loc2: 1568 to 000b03b0
  DW_CFA_def_cfa: r31 ofs 96
  DW_CFA_advance_loc: 24 to 000b03c8
  DW_CFA_def_cfa_offset: 0
  DW_CFA_restore: r19
  DW_CFA_restore: r20
  DW_CFA_restore: r21
  DW_CFA_restore: r22
  DW_CFA_restore: r30
  DW_CFA_restore: r29
  DW_CFA_restore_extended: r72
  DW_CFA_restore_extended: r73
  DW_CFA_restore_extended: r74
  DW_CFA_restore_extended: r75
  DW_CFA_restore_extended: r76
  DW_CFA_nop
  DW_CFA_nop
  DW_CFA_nop
  DW_CFA_nop
  DW_CFA_nop
  DW_CFA_nop

00008c38 0000004c 00008c3c FDE cie=00000000 pc=000b03cc..000b058c
  DW_CFA_advance_loc: 4 to 000b03d0
  DW_CFA_def_cfa_offset: 48
  DW_CFA_advance_loc: 12 to 000b03dc
  DW_CFA_def_cfa: r29 ofs 32
  DW_CFA_offset: r19 at cfa-8
  DW_CFA_offset: r20 at cfa-16
  DW_CFA_offset: r30 at cfa-24
  DW_CFA_offset: r29 at cfa-32
  DW_CFA_offset_extended: r72 at cfa-40
  DW_CFA_offset_extended: r73 at cfa-48
  DW_CFA_remember_state
  DW_CFA_advance_loc1: 168 to 000b0484
  DW_CFA_def_cfa: r31 ofs 48
  DW_CFA_advance_loc: 12 to 000b0490
  DW_CFA_def_cfa_offset: 0
  DW_CFA_restore: r19
  DW_CFA_restore: r20
  DW_CFA_restore: r30
  DW_CFA_restore: r29
  DW_CFA_restore_extended: r72
  DW_CFA_restore_extended: r73
  DW_CFA_advance_loc: 4 to 000b0494
  DW_CFA_restore_state
  DW_CFA_advance_loc1: 232 to 000b057c
  DW_CFA_def_cfa: r31 ofs 48
  DW_CFA_advance_loc: 12 to 000b0588
  DW_CFA_def_cfa_offset: 0
  DW_CFA_restore: r19
  DW_CFA_restore: r20
  DW_CFA_restore: r30
  DW_CFA_restore: r29
  DW_CFA_restore_extended: r72
  DW_CFA_restore_extended: r73
  DW_CFA_nop
  DW_CFA_nop
  DW_CFA_nop
  DW_CFA_nop
  DW_CFA_nop
  DW_CFA_nop
  DW_CFA_nop

00008c88 0000008c 00008c8c FDE cie=00000000 pc=000b058c..000b0c64
  DW_CFA_advance_loc: 4 to 000b0590
  DW_CFA_def_cfa_offset: 96
  DW_CFA_advance_loc: 24 to 000b05a8
  DW_CFA_def_cfa: r29 ofs 48
  DW_CFA_offset: r19 at cfa-8
  DW_CFA_offset: r20 at cfa-16
  DW_CFA_offset: r21 at cfa-24
  DW_CFA_offset: r22 at cfa-32
  DW_CFA_offset: r30 at cfa-40
  DW_CFA_offset: r29 at cfa-48
  DW_CFA_offset_extended: r72 at cfa-56
  DW_CFA_offset_extended: r73 at cfa-64
  DW_CFA_offset_extended: r74 at cfa-72
  DW_CFA_offset_extended: r75 at cfa-80
  DW_CFA_offset_extended: r76 at cfa-96
  DW_CFA_remember_state
  DW_CFA_advance_loc1: 228 to 000b068c
  DW_CFA_def_cfa: r31 ofs 96
  DW_CFA_advance_loc: 24 to 000b06a4
  DW_CFA_def_cfa_offset: 0
  DW_CFA_restore: r19
  DW_CFA_restore: r20
  DW_CFA_restore: r21
  DW_CFA_restore: r22
  DW_CFA_restore: r30
  DW_CFA_restore: r29
  DW_CFA_restore_extended: r72
  DW_CFA_restore_extended: r73
  DW_CFA_restore_extended: r74
  DW_CFA_restore_extended: r75
  DW_CFA_restore_extended: r76
  DW_CFA_advance_loc: 4 to 000b06a8
  DW_CFA_restore_state
  DW_CFA_remember_state
  DW_CFA_advance_loc: 24 to 000b06c0
  DW_CFA_def_cfa: r31 ofs 96
  DW_CFA_advance_loc: 24 to 000b06d8
  DW_CFA_def_cfa_offset: 0
  DW_CFA_restore: r19
  DW_CFA_restore: r20
  DW_CFA_restore: r21
  DW_CFA_restore: r22
  DW_CFA_restore: r30
  DW_CFA_restore: r29
  DW_CFA_restore_extended: r72
  DW_CFA_restore_extended: r73
  DW_CFA_restore_extended: r74
  DW_CFA_restore_extended: r75
  DW_CFA_restore_extended: r76
  DW_CFA_advance_loc: 4 to 000b06dc
  DW_CFA_restore_state
  DW_CFA_remember_state
  DW_CFA_advance_loc1: 172 to 000b0788
  DW_CFA_def_cfa: r31 ofs 96
  DW_CFA_advance_loc: 4 to 000b078c
  DW_CFA_restore_state
  DW_CFA_advance_loc2: 1212 to 000b0c48
  DW_CFA_def_cfa: r31 ofs 96
  DW_CFA_advance_loc: 24 to 000b0c60
  DW_CFA_def_cfa_offset: 0
  DW_CFA_restore: r19
  DW_CFA_restore: r20
  DW_CFA_restore: r21
  DW_CFA_restore: r22
  DW_CFA_restore: r30
  DW_CFA_restore: r29
  DW_CFA_restore_extended: r72
  DW_CFA_restore_extended: r73
  DW_CFA_restore_extended: r74
  DW_CFA_restore_extended: r75
  DW_CFA_restore_extended: r76
  DW_CFA_nop
  DW_CFA_nop
  DW_CFA_nop
  DW_CFA_nop
  DW_CFA_nop
  DW_CFA_nop
  DW_CFA_nop

00008d18 00000044 00008d1c FDE cie=00000000 pc=000b0c64..000b0d68
  DW_CFA_advance_loc: 4 to 000b0c68
  DW_CFA_def_cfa_offset: 48
  DW_CFA_advance_loc: 12 to 000b0c74
  DW_CFA_def_cfa: r29 ofs 32
  DW_CFA_offset: r19 at cfa-8
  DW_CFA_offset: r20 at cfa-16
  DW_CFA_offset: r30 at cfa-24
  DW_CFA_offset: r29 at cfa-32
  DW_CFA_offset_extended: r72 at cfa-40
  DW_CFA_offset_extended: r73 at cfa-48
  DW_CFA_remember_state
  DW_CFA_advance_loc1: 192 to 000b0d34
  DW_CFA_def_cfa: r31 ofs 48
  DW_CFA_advance_loc: 12 to 000b0d40
  DW_CFA_def_cfa_offset: 0
  DW_CFA_restore: r19
  DW_CFA_restore: r20
  DW_CFA_restore: r30
  DW_CFA_restore: r29
  DW_CFA_restore_extended: r72
  DW_CFA_restore_extended: r73
  DW_CFA_advance_loc: 4 to 000b0d44
  DW_CFA_restore_state
  DW_CFA_advance_loc: 20 to 000b0d58
  DW_CFA_def_cfa: r31 ofs 48
  DW_CFA_advance_loc: 12 to 000b0d64
  DW_CFA_def_cfa_offset: 0
  DW_CFA_restore: r19
  DW_CFA_restore: r20
  DW_CFA_restore: r30
  DW_CFA_restore: r29
  DW_CFA_restore_extended: r72
  DW_CFA_restore_extended: r73

00008d60 00000014 00008d64 FDE cie=00000000 pc=000b0d68..000b0e00
  DW_CFA_nop
  DW_CFA_nop
  DW_CFA_nop
  DW_CFA_nop
  DW_CFA_nop
  DW_CFA_nop
  DW_CFA_nop

00008d78 00000014 00008d7c FDE cie=00000000 pc=000b0e00..000b0e90
  DW_CFA_nop
  DW_CFA_nop
  DW_CFA_nop
  DW_CFA_nop
  DW_CFA_nop
  DW_CFA_nop
  DW_CFA_nop

00008d90 0000002c 00008d94 FDE cie=00000000 pc=000b0e90..000b0f60
  DW_CFA_advance_loc: 4 to 000b0e94
  DW_CFA_def_cfa_offset: 64
  DW_CFA_advance_loc: 12 to 000b0ea0
  DW_CFA_def_cfa: r29 ofs 32
  DW_CFA_offset: r19 at cfa-16
  DW_CFA_offset: r30 at cfa-24
  DW_CFA_offset: r29 at cfa-32
  DW_CFA_advance_loc1: 176 to 000b0f50
  DW_CFA_def_cfa: r31 ofs 64
  DW_CFA_advance_loc: 12 to 000b0f5c
  DW_CFA_def_cfa_offset: 0
  DW_CFA_restore: r19
  DW_CFA_restore: r30
  DW_CFA_restore: r29
  DW_CFA_nop
  DW_CFA_nop
  DW_CFA_nop
  DW_CFA_nop
  DW_CFA_nop
  DW_CFA_nop
  DW_CFA_nop

00008dc0 00000014 00008dc4 FDE cie=00000000 pc=000b0f60..000b0f6c
  DW_CFA_nop
  DW_CFA_nop
  DW_CFA_nop
  DW_CFA_nop
  DW_CFA_nop
  DW_CFA_nop
  DW_CFA_nop

00008dd8 00000044 00008ddc FDE cie=00000000 pc=000b0f6c..000b1710
  DW_CFA_advance_loc: 4 to 000b0f70
  DW_CFA_def_cfa_offset: 64
  DW_CFA_advance_loc: 20 to 000b0f84
  DW_CFA_def_cfa: r29 ofs 40
  DW_CFA_offset: r19 at cfa-8
  DW_CFA_offset: r20 at cfa-16
  DW_CFA_offset: r21 at cfa-24
  DW_CFA_offset: r30 at cfa-32
  DW_CFA_offset: r29 at cfa-40
  DW_CFA_offset_extended: r72 at cfa-48
  DW_CFA_offset_extended: r73 at cfa-56
  DW_CFA_offset_extended: r74 at cfa-64
  DW_CFA_remember_state
  DW_CFA_advance_loc2: 1300 to 000b1498
  DW_CFA_def_cfa: r31 ofs 64
  DW_CFA_advance_loc: 20 to 000b14ac
  DW_CFA_def_cfa_offset: 0
  DW_CFA_restore: r19
  DW_CFA_restore: r20
  DW_CFA_restore: r21
  DW_CFA_restore: r30
  DW_CFA_restore: r29
  DW_CFA_restore_extended: r72
  DW_CFA_restore_extended: r73
  DW_CFA_restore_extended: r74
  DW_CFA_advance_loc: 4 to 000b14b0
  DW_CFA_restore_state
  DW_CFA_nop
  DW_CFA_nop
  DW_CFA_nop
  DW_CFA_nop
  DW_CFA_nop
  DW_CFA_nop

00008e20 00000014 00008e24 FDE cie=00000000 pc=000b1710..000b171c
  DW_CFA_nop
  DW_CFA_nop
  DW_CFA_nop
  DW_CFA_nop
  DW_CFA_nop
  DW_CFA_nop
  DW_CFA_nop

00008e38 00000044 00008e3c FDE cie=00000000 pc=000b171c..000b1f2c
  DW_CFA_advance_loc: 4 to 000b1720
  DW_CFA_def_cfa_offset: 64
  DW_CFA_advance_loc: 20 to 000b1734
  DW_CFA_def_cfa: r29 ofs 40
  DW_CFA_offset: r19 at cfa-8
  DW_CFA_offset: r20 at cfa-16
  DW_CFA_offset: r21 at cfa-24
  DW_CFA_offset: r30 at cfa-32
  DW_CFA_offset: r29 at cfa-40
  DW_CFA_offset_extended: r72 at cfa-48
  DW_CFA_offset_extended: r73 at cfa-56
  DW_CFA_offset_extended: r74 at cfa-64
  DW_CFA_remember_state
  DW_CFA_advance_loc2: 656 to 000b19c4
  DW_CFA_def_cfa: r31 ofs 64
  DW_CFA_advance_loc: 20 to 000b19d8
  DW_CFA_def_cfa_offset: 0
  DW_CFA_restore: r19
  DW_CFA_restore: r20
  DW_CFA_restore: r21
  DW_CFA_restore: r30
  DW_CFA_restore: r29
  DW_CFA_restore_extended: r72
  DW_CFA_restore_extended: r73
  DW_CFA_restore_extended: r74
  DW_CFA_advance_loc: 4 to 000b19dc
  DW_CFA_restore_state
  DW_CFA_nop
  DW_CFA_nop
  DW_CFA_nop
  DW_CFA_nop
  DW_CFA_nop
  DW_CFA_nop

00008e80 00000024 00008e84 FDE cie=00000000 pc=000b1f2c..000b1f54
  DW_CFA_advance_loc: 4 to 000b1f30
  DW_CFA_def_cfa_offset: 32
  DW_CFA_advance_loc: 8 to 000b1f38
  DW_CFA_def_cfa: r29 ofs 32
  DW_CFA_offset: r19 at cfa-16
  DW_CFA_offset: r30 at cfa-24
  DW_CFA_offset: r29 at cfa-32
  DW_CFA_advance_loc: 16 to 000b1f48
  DW_CFA_def_cfa: r31 ofs 32
  DW_CFA_advance_loc: 8 to 000b1f50
  DW_CFA_def_cfa_offset: 0
  DW_CFA_restore: r19
  DW_CFA_restore: r30
  DW_CFA_restore: r29

00008ea8 00000024 00008eac FDE cie=00000000 pc=000b1f54..000b1f74
  DW_CFA_advance_loc: 4 to 000b1f58
  DW_CFA_def_cfa_offset: 16
  DW_CFA_advance_loc: 4 to 000b1f5c
  DW_CFA_def_cfa: r29 ofs 16
  DW_CFA_offset: r30 at cfa-8
  DW_CFA_offset: r29 at cfa-16
  DW_CFA_advance_loc: 16 to 000b1f6c
  DW_CFA_def_cfa: r31 ofs 16
  DW_CFA_advance_loc: 4 to 000b1f70
  DW_CFA_def_cfa_offset: 0
  DW_CFA_restore: r30
  DW_CFA_restore: r29
  DW_CFA_nop
  DW_CFA_nop
  DW_CFA_nop

00008ed0 0000002c 00008ed4 FDE cie=00000000 pc=000b1f74..000b2078
  DW_CFA_advance_loc: 4 to 000b1f78
  DW_CFA_def_cfa_offset: 112
  DW_CFA_advance_loc: 12 to 000b1f84
  DW_CFA_def_cfa: r29 ofs 32
  DW_CFA_offset: r19 at cfa-8
  DW_CFA_offset: r20 at cfa-16
  DW_CFA_offset: r30 at cfa-24
  DW_CFA_offset: r29 at cfa-32
  DW_CFA_advance_loc1: 228 to 000b2068
  DW_CFA_def_cfa: r31 ofs 112
  DW_CFA_advance_loc: 12 to 000b2074
  DW_CFA_def_cfa_offset: 0
  DW_CFA_restore: r19
  DW_CFA_restore: r20
  DW_CFA_restore: r30
  DW_CFA_restore: r29
  DW_CFA_nop
  DW_CFA_nop
  DW_CFA_nop
  DW_CFA_nop

00008f00 00000024 00008f04 FDE cie=00000000 pc=000b2078..000b2090
  DW_CFA_advance_loc: 4 to 000b207c
  DW_CFA_def_cfa_offset: 16
  DW_CFA_advance_loc: 4 to 000b2080
  DW_CFA_def_cfa: r29 ofs 16
  DW_CFA_offset: r30 at cfa-8
  DW_CFA_offset: r29 at cfa-16
  DW_CFA_advance_loc: 8 to 000b2088
  DW_CFA_def_cfa: r31 ofs 16
  DW_CFA_advance_loc: 4 to 000b208c
  DW_CFA_def_cfa_offset: 0
  DW_CFA_restore: r30
  DW_CFA_restore: r29
  DW_CFA_nop
  DW_CFA_nop
  DW_CFA_nop

00008f28 00000014 00008f2c FDE cie=00000000 pc=000b2090..000b21f8
  DW_CFA_nop
  DW_CFA_nop
  DW_CFA_nop
  DW_CFA_nop
  DW_CFA_nop
  DW_CFA_nop
  DW_CFA_nop

00008f40 00000024 00008f44 FDE cie=00000000 pc=000b21f8..000b2210
  DW_CFA_advance_loc: 4 to 000b21fc
  DW_CFA_def_cfa_offset: 16
  DW_CFA_advance_loc: 4 to 000b2200
  DW_CFA_def_cfa: r29 ofs 16
  DW_CFA_offset: r30 at cfa-8
  DW_CFA_offset: r29 at cfa-16
  DW_CFA_advance_loc: 8 to 000b2208
  DW_CFA_def_cfa: r31 ofs 16
  DW_CFA_advance_loc: 4 to 000b220c
  DW_CFA_def_cfa_offset: 0
  DW_CFA_restore: r30
  DW_CFA_restore: r29
  DW_CFA_nop
  DW_CFA_nop
  DW_CFA_nop

00008f68 00000014 00008f6c FDE cie=00000000 pc=000b2210..000b23b8
  DW_CFA_nop
  DW_CFA_nop
  DW_CFA_nop
  DW_CFA_nop
  DW_CFA_nop
  DW_CFA_nop
  DW_CFA_nop

00008f80 00000014 00008f84 FDE cie=00000000 pc=000b23b8..000b2544
  DW_CFA_nop
  DW_CFA_nop
  DW_CFA_nop
  DW_CFA_nop
  DW_CFA_nop
  DW_CFA_nop
  DW_CFA_nop

00008f98 00000024 00008f9c FDE cie=00000000 pc=000b2544..000b255c
  DW_CFA_advance_loc: 4 to 000b2548
  DW_CFA_def_cfa_offset: 16
  DW_CFA_advance_loc: 4 to 000b254c
  DW_CFA_def_cfa: r29 ofs 16
  DW_CFA_offset: r30 at cfa-8
  DW_CFA_offset: r29 at cfa-16
  DW_CFA_advance_loc: 8 to 000b2554
  DW_CFA_def_cfa: r31 ofs 16
  DW_CFA_advance_loc: 4 to 000b2558
  DW_CFA_def_cfa_offset: 0
  DW_CFA_restore: r30
  DW_CFA_restore: r29
  DW_CFA_nop
  DW_CFA_nop
  DW_CFA_nop

00008fc0 00000024 00008fc4 FDE cie=00000000 pc=000b255c..000b2574
  DW_CFA_advance_loc: 4 to 000b2560
  DW_CFA_def_cfa_offset: 16
  DW_CFA_advance_loc: 4 to 000b2564
  DW_CFA_def_cfa: r29 ofs 16
  DW_CFA_offset: r30 at cfa-8
  DW_CFA_offset: r29 at cfa-16
  DW_CFA_advance_loc: 8 to 000b256c
  DW_CFA_def_cfa: r31 ofs 16
  DW_CFA_advance_loc: 4 to 000b2570
  DW_CFA_def_cfa_offset: 0
  DW_CFA_restore: r30
  DW_CFA_restore: r29
  DW_CFA_nop
  DW_CFA_nop
  DW_CFA_nop

00008fe8 00000014 00008fec FDE cie=00000000 pc=000b2574..000b2614
  DW_CFA_nop
  DW_CFA_nop
  DW_CFA_nop
  DW_CFA_nop
  DW_CFA_nop
  DW_CFA_nop
  DW_CFA_nop

00009000 0000002c 00009004 FDE cie=00000000 pc=000b2614..000b2728
  DW_CFA_advance_loc: 4 to 000b2618
  DW_CFA_def_cfa_offset: 128
  DW_CFA_advance_loc: 12 to 000b2624
  DW_CFA_def_cfa: r29 ofs 32
  DW_CFA_offset: r19 at cfa-16
  DW_CFA_offset: r30 at cfa-24
  DW_CFA_offset: r29 at cfa-32
  DW_CFA_advance_loc1: 244 to 000b2718
  DW_CFA_def_cfa: r31 ofs 128
  DW_CFA_advance_loc: 12 to 000b2724
  DW_CFA_def_cfa_offset: 0
  DW_CFA_restore: r19
  DW_CFA_restore: r30
  DW_CFA_restore: r29
  DW_CFA_nop
  DW_CFA_nop
  DW_CFA_nop
  DW_CFA_nop
  DW_CFA_nop

00009030 00000024 00009034 FDE cie=00000000 pc=000b2728..000b2740
  DW_CFA_advance_loc: 4 to 000b272c
  DW_CFA_def_cfa_offset: 16
  DW_CFA_advance_loc: 4 to 000b2730
  DW_CFA_def_cfa: r29 ofs 16
  DW_CFA_offset: r30 at cfa-8
  DW_CFA_offset: r29 at cfa-16
  DW_CFA_advance_loc: 8 to 000b2738
  DW_CFA_def_cfa: r31 ofs 16
  DW_CFA_advance_loc: 4 to 000b273c
  DW_CFA_def_cfa_offset: 0
  DW_CFA_restore: r30
  DW_CFA_restore: r29
  DW_CFA_nop
  DW_CFA_nop
  DW_CFA_nop

00009058 0000002c 0000905c FDE cie=00000000 pc=000b2740..000b2844
  DW_CFA_advance_loc: 4 to 000b2744
  DW_CFA_def_cfa_offset: 112
  DW_CFA_advance_loc: 12 to 000b2750
  DW_CFA_def_cfa: r29 ofs 32
  DW_CFA_offset: r19 at cfa-8
  DW_CFA_offset: r20 at cfa-16
  DW_CFA_offset: r30 at cfa-24
  DW_CFA_offset: r29 at cfa-32
  DW_CFA_advance_loc1: 228 to 000b2834
  DW_CFA_def_cfa: r31 ofs 112
  DW_CFA_advance_loc: 12 to 000b2840
  DW_CFA_def_cfa_offset: 0
  DW_CFA_restore: r19
  DW_CFA_restore: r20
  DW_CFA_restore: r30
  DW_CFA_restore: r29
  DW_CFA_nop
  DW_CFA_nop
  DW_CFA_nop
  DW_CFA_nop

00009088 00000024 0000908c FDE cie=00000000 pc=000b2844..000b285c
  DW_CFA_advance_loc: 4 to 000b2848
  DW_CFA_def_cfa_offset: 16
  DW_CFA_advance_loc: 4 to 000b284c
  DW_CFA_def_cfa: r29 ofs 16
  DW_CFA_offset: r30 at cfa-8
  DW_CFA_offset: r29 at cfa-16
  DW_CFA_advance_loc: 8 to 000b2854
  DW_CFA_def_cfa: r31 ofs 16
  DW_CFA_advance_loc: 4 to 000b2858
  DW_CFA_def_cfa_offset: 0
  DW_CFA_restore: r30
  DW_CFA_restore: r29
  DW_CFA_nop
  DW_CFA_nop
  DW_CFA_nop

000090b0 00000014 000090b4 FDE cie=00000000 pc=000b285c..000b28e4
  DW_CFA_nop
  DW_CFA_nop
  DW_CFA_nop
  DW_CFA_nop
  DW_CFA_nop
  DW_CFA_nop
  DW_CFA_nop

000090c8 00000014 000090cc FDE cie=00000000 pc=000b28e4..000b2968
  DW_CFA_nop
  DW_CFA_nop
  DW_CFA_nop
  DW_CFA_nop
  DW_CFA_nop
  DW_CFA_nop
  DW_CFA_nop

000090e0 0000002c 000090e4 FDE cie=00000000 pc=000b2968..000b2af8
  DW_CFA_advance_loc: 4 to 000b296c
  DW_CFA_def_cfa_offset: 160
  DW_CFA_advance_loc: 12 to 000b2978
  DW_CFA_def_cfa: r29 ofs 32
  DW_CFA_offset: r19 at cfa-8
  DW_CFA_offset: r20 at cfa-16
  DW_CFA_offset: r30 at cfa-24
  DW_CFA_offset: r29 at cfa-32
  DW_CFA_advance_loc2: 368 to 000b2ae8
  DW_CFA_def_cfa: r31 ofs 160
  DW_CFA_advance_loc: 12 to 000b2af4
  DW_CFA_def_cfa_offset: 0
  DW_CFA_restore: r19
  DW_CFA_restore: r20
  DW_CFA_restore: r30
  DW_CFA_restore: r29
  DW_CFA_nop

00009110 00000014 00009114 FDE cie=00000000 pc=000b2af8..000b2b04
  DW_CFA_nop
  DW_CFA_nop
  DW_CFA_nop
  DW_CFA_nop
  DW_CFA_nop
  DW_CFA_nop
  DW_CFA_nop

00009128 00000014 0000912c FDE cie=00000000 pc=000b2b04..000b2b10
  DW_CFA_nop
  DW_CFA_nop
  DW_CFA_nop
  DW_CFA_nop
  DW_CFA_nop
  DW_CFA_nop
  DW_CFA_nop

00009140 00000014 00009144 FDE cie=00000000 pc=000b2b10..000b2b1c
  DW_CFA_nop
  DW_CFA_nop
  DW_CFA_nop
  DW_CFA_nop
  DW_CFA_nop
  DW_CFA_nop
  DW_CFA_nop

00009158 0000002c 0000915c FDE cie=00000000 pc=000b2b1c..000b2be4
  DW_CFA_advance_loc: 4 to 000b2b20
  DW_CFA_def_cfa_offset: 112
  DW_CFA_advance_loc: 12 to 000b2b2c
  DW_CFA_def_cfa: r29 ofs 32
  DW_CFA_offset: r19 at cfa-16
  DW_CFA_offset: r30 at cfa-24
  DW_CFA_offset: r29 at cfa-32
  DW_CFA_advance_loc1: 168 to 000b2bd4
  DW_CFA_def_cfa: r31 ofs 112
  DW_CFA_advance_loc: 12 to 000b2be0
  DW_CFA_def_cfa_offset: 0
  DW_CFA_restore: r19
  DW_CFA_restore: r30
  DW_CFA_restore: r29
  DW_CFA_nop
  DW_CFA_nop
  DW_CFA_nop
  DW_CFA_nop
  DW_CFA_nop
  DW_CFA_nop
  DW_CFA_nop

00009188 00000014 0000918c FDE cie=00000000 pc=000b2be4..000b2c80
  DW_CFA_nop
  DW_CFA_nop
  DW_CFA_nop
  DW_CFA_nop
  DW_CFA_nop
  DW_CFA_nop
  DW_CFA_nop

000091a0 00000014 000091a4 FDE cie=00000000 pc=000b2c80..000b2d20
  DW_CFA_nop
  DW_CFA_nop
  DW_CFA_nop
  DW_CFA_nop
  DW_CFA_nop
  DW_CFA_nop
  DW_CFA_nop

000091b8 00000034 000091bc FDE cie=00000000 pc=000b2d20..000b2e80
  DW_CFA_advance_loc: 4 to 000b2d24
  DW_CFA_def_cfa_offset: 160
  DW_CFA_advance_loc: 16 to 000b2d34
  DW_CFA_def_cfa: r29 ofs 48
  DW_CFA_offset: r19 at cfa-8
  DW_CFA_offset: r20 at cfa-16
  DW_CFA_offset: r21 at cfa-32
  DW_CFA_offset: r30 at cfa-40
  DW_CFA_offset: r29 at cfa-48
  DW_CFA_remember_state
  DW_CFA_advance_loc1: 252 to 000b2e30
  DW_CFA_def_cfa: r31 ofs 160
  DW_CFA_advance_loc: 16 to 000b2e40
  DW_CFA_def_cfa_offset: 0
  DW_CFA_restore: r19
  DW_CFA_restore: r20
  DW_CFA_restore: r21
  DW_CFA_restore: r30
  DW_CFA_restore: r29
  DW_CFA_advance_loc: 4 to 000b2e44
  DW_CFA_restore_state
  DW_CFA_nop
  DW_CFA_nop
  DW_CFA_nop
  DW_CFA_nop

000091f0 00000034 000091f4 FDE cie=00000000 pc=000b2e80..000b2f90
  DW_CFA_advance_loc: 4 to 000b2e84
  DW_CFA_def_cfa_offset: 96
  DW_CFA_advance_loc: 16 to 000b2e94
  DW_CFA_def_cfa: r29 ofs 32
  DW_CFA_offset: r19 at cfa-8
  DW_CFA_offset: r20 at cfa-16
  DW_CFA_offset: r30 at cfa-24
  DW_CFA_offset: r29 at cfa-32
  DW_CFA_offset_extended: r72 at cfa-48
  DW_CFA_remember_state
  DW_CFA_advance_loc1: 116 to 000b2f08
  DW_CFA_def_cfa: r31 ofs 96
  DW_CFA_advance_loc: 16 to 000b2f18
  DW_CFA_def_cfa_offset: 0
  DW_CFA_restore: r19
  DW_CFA_restore: r20
  DW_CFA_restore: r30
  DW_CFA_restore: r29
  DW_CFA_restore_extended: r72
  DW_CFA_advance_loc: 4 to 000b2f1c
  DW_CFA_restore_state
  DW_CFA_nop
  DW_CFA_nop
  DW_CFA_nop
  DW_CFA_nop

00009228 00000034 0000922c FDE cie=00000000 pc=000b2f90..000b30a4
  DW_CFA_advance_loc: 4 to 000b2f94
  DW_CFA_def_cfa_offset: 96
  DW_CFA_advance_loc: 16 to 000b2fa4
  DW_CFA_def_cfa: r29 ofs 32
  DW_CFA_offset: r19 at cfa-8
  DW_CFA_offset: r20 at cfa-16
  DW_CFA_offset: r30 at cfa-24
  DW_CFA_offset: r29 at cfa-32
  DW_CFA_offset_extended: r72 at cfa-48
  DW_CFA_remember_state
  DW_CFA_advance_loc1: 116 to 000b3018
  DW_CFA_def_cfa: r31 ofs 96
  DW_CFA_advance_loc: 16 to 000b3028
  DW_CFA_def_cfa_offset: 0
  DW_CFA_restore: r19
  DW_CFA_restore: r20
  DW_CFA_restore: r30
  DW_CFA_restore: r29
  DW_CFA_restore_extended: r72
  DW_CFA_advance_loc: 4 to 000b302c
  DW_CFA_restore_state
  DW_CFA_nop
  DW_CFA_nop
  DW_CFA_nop
  DW_CFA_nop

00009260 00000014 00009264 FDE cie=00000000 pc=000b30a4..000b30a8
  DW_CFA_nop
  DW_CFA_nop
  DW_CFA_nop
  DW_CFA_nop
  DW_CFA_nop
  DW_CFA_nop
  DW_CFA_nop

00009278 0000002c 0000927c FDE cie=00000000 pc=000b30a8..000b30e8
  DW_CFA_advance_loc: 4 to 000b30ac
  DW_CFA_def_cfa_offset: 48
  DW_CFA_advance_loc: 12 to 000b30b8
  DW_CFA_def_cfa: r29 ofs 16
  DW_CFA_offset: r30 at cfa-8
  DW_CFA_offset: r29 at cfa-16
  DW_CFA_offset_extended: r72 at cfa-32
  DW_CFA_advance_loc: 32 to 000b30d8
  DW_CFA_def_cfa: r31 ofs 48
  DW_CFA_advance_loc: 12 to 000b30e4
  DW_CFA_def_cfa_offset: 0
  DW_CFA_restore: r30
  DW_CFA_restore: r29
  DW_CFA_restore_extended: r72
  DW_CFA_nop
  DW_CFA_nop
  DW_CFA_nop
  DW_CFA_nop
  DW_CFA_nop
  DW_CFA_nop

000092a8 00000024 000092ac FDE cie=00000000 pc=000b30e8..000b313c
  DW_CFA_advance_loc: 20 to 000b30fc
  DW_CFA_def_cfa_offset: 48
  DW_CFA_advance_loc: 12 to 000b3108
  DW_CFA_def_cfa: r29 ofs 32
  DW_CFA_offset: r15 at cfa-16
  DW_CFA_offset: r30 at cfa-24
  DW_CFA_offset: r29 at cfa-32
  DW_CFA_advance_loc: 8 to 000b3110
  DW_CFA_def_cfa: r31 ofs 48
  DW_CFA_advance_loc: 12 to 000b311c
  DW_CFA_def_cfa_offset: 0
  DW_CFA_restore: r15
  DW_CFA_restore: r30
  DW_CFA_restore: r29

000092d0 00000024 000092d4 FDE cie=00000000 pc=000b313c..000b3190
  DW_CFA_advance_loc: 20 to 000b3150
  DW_CFA_def_cfa_offset: 48
  DW_CFA_advance_loc: 12 to 000b315c
  DW_CFA_def_cfa: r29 ofs 32
  DW_CFA_offset: r15 at cfa-16
  DW_CFA_offset: r30 at cfa-24
  DW_CFA_offset: r29 at cfa-32
  DW_CFA_advance_loc: 8 to 000b3164
  DW_CFA_def_cfa: r31 ofs 48
  DW_CFA_advance_loc: 12 to 000b3170
  DW_CFA_def_cfa_offset: 0
  DW_CFA_restore: r15
  DW_CFA_restore: r30
  DW_CFA_restore: r29

000092f8 00000024 000092fc FDE cie=00000000 pc=000b3190..000b31e4
  DW_CFA_advance_loc: 20 to 000b31a4
  DW_CFA_def_cfa_offset: 48
  DW_CFA_advance_loc: 12 to 000b31b0
  DW_CFA_def_cfa: r29 ofs 32
  DW_CFA_offset: r15 at cfa-16
  DW_CFA_offset: r30 at cfa-24
  DW_CFA_offset: r29 at cfa-32
  DW_CFA_advance_loc: 8 to 000b31b8
  DW_CFA_def_cfa: r31 ofs 48
  DW_CFA_advance_loc: 12 to 000b31c4
  DW_CFA_def_cfa_offset: 0
  DW_CFA_restore: r15
  DW_CFA_restore: r30
  DW_CFA_restore: r29

00009320 00000014 00009324 FDE cie=00000000 pc=000b31e4..000b33b0
  DW_CFA_nop
  DW_CFA_nop
  DW_CFA_nop
  DW_CFA_nop
  DW_CFA_nop
  DW_CFA_nop
  DW_CFA_nop

00009338 00000014 0000933c FDE cie=00000000 pc=000b33b0..000b3570
  DW_CFA_nop
  DW_CFA_nop
  DW_CFA_nop
  DW_CFA_nop
  DW_CFA_nop
  DW_CFA_nop
  DW_CFA_nop

00009350 00000044 00009354 FDE cie=00000000 pc=000b3570..000b3890
  DW_CFA_advance_loc: 4 to 000b3574
  DW_CFA_def_cfa_offset: 368
  DW_CFA_advance_loc: 24 to 000b358c
  DW_CFA_def_cfa: r29 ofs 80
  DW_CFA_offset: r19 at cfa-8
  DW_CFA_offset: r20 at cfa-16
  DW_CFA_offset: r21 at cfa-24
  DW_CFA_offset: r22 at cfa-32
  DW_CFA_offset: r23 at cfa-40
  DW_CFA_offset: r24 at cfa-48
  DW_CFA_offset: r25 at cfa-56
  DW_CFA_offset: r28 at cfa-64
  DW_CFA_offset: r30 at cfa-72
  DW_CFA_offset: r29 at cfa-80
  DW_CFA_remember_state
  DW_CFA_advance_loc1: 68 to 000b35d0
  DW_CFA_def_cfa: r31 ofs 368
  DW_CFA_advance_loc: 24 to 000b35e8
  DW_CFA_def_cfa_offset: 0
  DW_CFA_restore: r19
  DW_CFA_restore: r20
  DW_CFA_restore: r21
  DW_CFA_restore: r22
  DW_CFA_restore: r23
  DW_CFA_restore: r24
  DW_CFA_restore: r25
  DW_CFA_restore: r28
  DW_CFA_restore: r30
  DW_CFA_restore: r29
  DW_CFA_advance_loc: 4 to 000b35ec
  DW_CFA_restore_state
  DW_CFA_nop
  DW_CFA_nop
  DW_CFA_nop
  DW_CFA_nop
  DW_CFA_nop

00009398 0000002c 0000939c FDE cie=00000000 pc=000b3890..000b3938
  DW_CFA_advance_loc: 4 to 000b3894
  DW_CFA_def_cfa_offset: 112
  DW_CFA_advance_loc: 12 to 000b38a0
  DW_CFA_def_cfa: r29 ofs 32
  DW_CFA_offset: r19 at cfa-16
  DW_CFA_offset: r30 at cfa-24
  DW_CFA_offset: r29 at cfa-32
  DW_CFA_advance_loc1: 136 to 000b3928
  DW_CFA_def_cfa: r31 ofs 112
  DW_CFA_advance_loc: 12 to 000b3934
  DW_CFA_def_cfa_offset: 0
  DW_CFA_restore: r19
  DW_CFA_restore: r30
  DW_CFA_restore: r29
  DW_CFA_nop
  DW_CFA_nop
  DW_CFA_nop
  DW_CFA_nop
  DW_CFA_nop
  DW_CFA_nop
  DW_CFA_nop

000093c8 0000002c 000093cc FDE cie=00000000 pc=000b3938..000b3a5c
  DW_CFA_advance_loc: 4 to 000b393c
  DW_CFA_def_cfa_offset: 144
  DW_CFA_advance_loc: 12 to 000b3948
  DW_CFA_def_cfa: r29 ofs 32
  DW_CFA_offset: r19 at cfa-8
  DW_CFA_offset: r20 at cfa-16
  DW_CFA_offset: r30 at cfa-24
  DW_CFA_offset: r29 at cfa-32
  DW_CFA_advance_loc2: 260 to 000b3a4c
  DW_CFA_def_cfa: r31 ofs 144
  DW_CFA_advance_loc: 12 to 000b3a58
  DW_CFA_def_cfa_offset: 0
  DW_CFA_restore: r19
  DW_CFA_restore: r20
  DW_CFA_restore: r30
  DW_CFA_restore: r29
  DW_CFA_nop

000093f8 00000014 000093fc FDE cie=00000000 pc=000b3a5c..000b3b38
  DW_CFA_nop
  DW_CFA_nop
  DW_CFA_nop
  DW_CFA_nop
  DW_CFA_nop
  DW_CFA_nop
  DW_CFA_nop

00009410 00000014 00009414 FDE cie=00000000 pc=000b3b38..000b3c10
  DW_CFA_nop
  DW_CFA_nop
  DW_CFA_nop
  DW_CFA_nop
  DW_CFA_nop
  DW_CFA_nop
  DW_CFA_nop

00009428 00000014 0000942c FDE cie=00000000 pc=000b3c10..000b3cc0
  DW_CFA_nop
  DW_CFA_nop
  DW_CFA_nop
  DW_CFA_nop
  DW_CFA_nop
  DW_CFA_nop
  DW_CFA_nop

00009440 00000014 00009444 FDE cie=00000000 pc=000b3cc0..000b3d68
  DW_CFA_nop
  DW_CFA_nop
  DW_CFA_nop
  DW_CFA_nop
  DW_CFA_nop
  DW_CFA_nop
  DW_CFA_nop

00009458 0000002c 0000945c FDE cie=00000000 pc=000b3d68..000b3e4c
  DW_CFA_advance_loc: 4 to 000b3d6c
  DW_CFA_def_cfa_offset: 64
  DW_CFA_advance_loc: 12 to 000b3d78
  DW_CFA_def_cfa: r29 ofs 32
  DW_CFA_offset: r19 at cfa-16
  DW_CFA_offset: r30 at cfa-24
  DW_CFA_offset: r29 at cfa-32
  DW_CFA_advance_loc1: 196 to 000b3e3c
  DW_CFA_def_cfa: r31 ofs 64
  DW_CFA_advance_loc: 12 to 000b3e48
  DW_CFA_def_cfa_offset: 0
  DW_CFA_restore: r19
  DW_CFA_restore: r30
  DW_CFA_restore: r29
  DW_CFA_nop
  DW_CFA_nop
  DW_CFA_nop
  DW_CFA_nop
  DW_CFA_nop
  DW_CFA_nop
  DW_CFA_nop

00009488 00000014 0000948c FDE cie=00000000 pc=000b3e4c..000b3ee4
  DW_CFA_nop
  DW_CFA_nop
  DW_CFA_nop
  DW_CFA_nop
  DW_CFA_nop
  DW_CFA_nop
  DW_CFA_nop

000094a0 00000014 000094a4 FDE cie=00000000 pc=000b3ee4..000b3f74
  DW_CFA_nop
  DW_CFA_nop
  DW_CFA_nop
  DW_CFA_nop
  DW_CFA_nop
  DW_CFA_nop
  DW_CFA_nop

000094b8 0000002c 000094bc FDE cie=00000000 pc=000b3f74..000b4044
  DW_CFA_advance_loc: 4 to 000b3f78
  DW_CFA_def_cfa_offset: 64
  DW_CFA_advance_loc: 12 to 000b3f84
  DW_CFA_def_cfa: r29 ofs 32
  DW_CFA_offset: r19 at cfa-16
  DW_CFA_offset: r30 at cfa-24
  DW_CFA_offset: r29 at cfa-32
  DW_CFA_advance_loc1: 176 to 000b4034
  DW_CFA_def_cfa: r31 ofs 64
  DW_CFA_advance_loc: 12 to 000b4040
  DW_CFA_def_cfa_offset: 0
  DW_CFA_restore: r19
  DW_CFA_restore: r30
  DW_CFA_restore: r29
  DW_CFA_nop
  DW_CFA_nop
  DW_CFA_nop
  DW_CFA_nop
  DW_CFA_nop
  DW_CFA_nop
  DW_CFA_nop

000094e8 00000014 000094ec FDE cie=00000000 pc=000b4044..000b4158
  DW_CFA_nop
  DW_CFA_nop
  DW_CFA_nop
  DW_CFA_nop
  DW_CFA_nop
  DW_CFA_nop
  DW_CFA_nop

00009500 00000014 00009504 FDE cie=00000000 pc=000b4158..000b4264
  DW_CFA_nop
  DW_CFA_nop
  DW_CFA_nop
  DW_CFA_nop
  DW_CFA_nop
  DW_CFA_nop
  DW_CFA_nop

00009518 00000034 0000951c FDE cie=00000000 pc=000b4264..000b49ec
  DW_CFA_advance_loc: 20 to 000b4278
  DW_CFA_def_cfa_offset: 336
  DW_CFA_advance_loc: 20 to 000b428c
  DW_CFA_def_cfa: r29 ofs 64
  DW_CFA_offset: r15 at cfa-8
  DW_CFA_offset: r19 at cfa-16
  DW_CFA_offset: r20 at cfa-24
  DW_CFA_offset: r21 at cfa-32
  DW_CFA_offset: r28 at cfa-48
  DW_CFA_offset: r30 at cfa-56
  DW_CFA_offset: r29 at cfa-64
  DW_CFA_advance_loc2: 1836 to 000b49b8
  DW_CFA_def_cfa: r31 ofs 336
  DW_CFA_advance_loc: 20 to 000b49cc
  DW_CFA_def_cfa_offset: 0
  DW_CFA_restore: r15
  DW_CFA_restore: r19
  DW_CFA_restore: r20
  DW_CFA_restore: r21
  DW_CFA_restore: r28
  DW_CFA_restore: r30
  DW_CFA_restore: r29

00009550 0000002c 00009554 FDE cie=00000000 pc=000b49ec..000b4ad0
  DW_CFA_advance_loc: 4 to 000b49f0
  DW_CFA_def_cfa_offset: 64
  DW_CFA_advance_loc: 16 to 000b4a00
  DW_CFA_def_cfa: r29 ofs 24
  DW_CFA_offset: r19 at cfa-8
  DW_CFA_offset: r30 at cfa-16
  DW_CFA_offset: r29 at cfa-24
  DW_CFA_offset_extended: r72 at cfa-32
  DW_CFA_advance_loc1: 188 to 000b4abc
  DW_CFA_def_cfa: r31 ofs 64
  DW_CFA_advance_loc: 16 to 000b4acc
  DW_CFA_def_cfa_offset: 0
  DW_CFA_restore: r19
  DW_CFA_restore: r30
  DW_CFA_restore: r29
  DW_CFA_restore_extended: r72
  DW_CFA_nop
  DW_CFA_nop

00009580 0000002c 00009584 FDE cie=00000000 pc=000b4ad0..000b4bb0
  DW_CFA_advance_loc: 4 to 000b4ad4
  DW_CFA_def_cfa_offset: 64
  DW_CFA_advance_loc: 16 to 000b4ae4
  DW_CFA_def_cfa: r29 ofs 24
  DW_CFA_offset: r19 at cfa-8
  DW_CFA_offset: r30 at cfa-16
  DW_CFA_offset: r29 at cfa-24
  DW_CFA_offset_extended: r72 at cfa-32
  DW_CFA_advance_loc1: 184 to 000b4b9c
  DW_CFA_def_cfa: r31 ofs 64
  DW_CFA_advance_loc: 16 to 000b4bac
  DW_CFA_def_cfa_offset: 0
  DW_CFA_restore: r19
  DW_CFA_restore: r30
  DW_CFA_restore: r29
  DW_CFA_restore_extended: r72
  DW_CFA_nop
  DW_CFA_nop

000095b0 0000002c 000095b4 FDE cie=00000000 pc=000b4bb0..000b4c98
  DW_CFA_advance_loc: 4 to 000b4bb4
  DW_CFA_def_cfa_offset: 64
  DW_CFA_advance_loc: 16 to 000b4bc4
  DW_CFA_def_cfa: r29 ofs 24
  DW_CFA_offset: r19 at cfa-8
  DW_CFA_offset: r30 at cfa-16
  DW_CFA_offset: r29 at cfa-24
  DW_CFA_offset_extended: r72 at cfa-32
  DW_CFA_advance_loc1: 192 to 000b4c84
  DW_CFA_def_cfa: r31 ofs 64
  DW_CFA_advance_loc: 16 to 000b4c94
  DW_CFA_def_cfa_offset: 0
  DW_CFA_restore: r19
  DW_CFA_restore: r30
  DW_CFA_restore: r29
  DW_CFA_restore_extended: r72
  DW_CFA_nop
  DW_CFA_nop

000095e0 00000044 000095e4 FDE cie=00000000 pc=000b4c98..000b5550
  DW_CFA_advance_loc: 20 to 000b4cac
  DW_CFA_def_cfa_offset: 288
  DW_CFA_advance_loc: 16 to 000b4cbc
  DW_CFA_def_cfa: r29 ofs 48
  DW_CFA_offset: r15 at cfa-8
  DW_CFA_offset: r19 at cfa-16
  DW_CFA_offset: r28 at cfa-32
  DW_CFA_offset: r30 at cfa-40
  DW_CFA_offset: r29 at cfa-48
  DW_CFA_remember_state
  DW_CFA_advance_loc2: 904 to 000b5044
  DW_CFA_def_cfa: r31 ofs 288
  DW_CFA_advance_loc: 16 to 000b5054
  DW_CFA_def_cfa_offset: 0
  DW_CFA_restore: r15
  DW_CFA_restore: r19
  DW_CFA_restore: r28
  DW_CFA_restore: r30
  DW_CFA_restore: r29
  DW_CFA_advance_loc: 4 to 000b5058
  DW_CFA_restore_state
  DW_CFA_advance_loc2: 1224 to 000b5520
  DW_CFA_def_cfa: r31 ofs 288
  DW_CFA_advance_loc: 16 to 000b5530
  DW_CFA_def_cfa_offset: 0
  DW_CFA_restore: r15
  DW_CFA_restore: r19
  DW_CFA_restore: r28
  DW_CFA_restore: r30
  DW_CFA_restore: r29
  DW_CFA_nop
  DW_CFA_nop
  DW_CFA_nop
  DW_CFA_nop

00009628 0000002c 0000962c FDE cie=00000000 pc=000b5550..000b58e0
  DW_CFA_advance_loc: 4 to 000b5554
  DW_CFA_def_cfa_offset: 80
  DW_CFA_advance_loc: 8 to 000b555c
  DW_CFA_def_cfa: r29 ofs 16
  DW_CFA_offset: r30 at cfa-8
  DW_CFA_offset: r29 at cfa-16
  DW_CFA_remember_state
  DW_CFA_advance_loc2: 796 to 000b5878
  DW_CFA_def_cfa: r31 ofs 80
  DW_CFA_advance_loc: 8 to 000b5880
  DW_CFA_def_cfa_offset: 0
  DW_CFA_restore: r30
  DW_CFA_restore: r29
  DW_CFA_advance_loc: 4 to 000b5884
  DW_CFA_restore_state
  DW_CFA_nop
  DW_CFA_nop
  DW_CFA_nop
  DW_CFA_nop
  DW_CFA_nop
  DW_CFA_nop

00009658 00000034 0000965c FDE cie=00000000 pc=000b58e0..000b5c50
  DW_CFA_advance_loc: 20 to 000b58f4
  DW_CFA_def_cfa_offset: 48
  DW_CFA_advance_loc: 12 to 000b5900
  DW_CFA_def_cfa: r29 ofs 32
  DW_CFA_offset: r15 at cfa-8
  DW_CFA_offset: r19 at cfa-16
  DW_CFA_offset: r30 at cfa-24
  DW_CFA_offset: r29 at cfa-32
  DW_CFA_remember_state
  DW_CFA_advance_loc2: 744 to 000b5be8
  DW_CFA_def_cfa: r31 ofs 48
  DW_CFA_advance_loc: 12 to 000b5bf4
  DW_CFA_def_cfa_offset: 0
  DW_CFA_restore: r15
  DW_CFA_restore: r19
  DW_CFA_restore: r30
  DW_CFA_restore: r29
  DW_CFA_advance_loc: 32 to 000b5c14
  DW_CFA_restore_state
  DW_CFA_advance_loc: 56 to 000b5c4c
  DW_CFA_def_cfa: r31 ofs 48
  DW_CFA_nop
  DW_CFA_nop
  DW_CFA_nop
  DW_CFA_nop

00009690 0000002c 00009694 FDE cie=00000000 pc=000b5c50..000b5fb0
  DW_CFA_advance_loc: 20 to 000b5c64
  DW_CFA_def_cfa_offset: 48
  DW_CFA_advance_loc: 12 to 000b5c70
  DW_CFA_def_cfa: r29 ofs 32
  DW_CFA_offset: r15 at cfa-8
  DW_CFA_offset: r19 at cfa-16
  DW_CFA_offset: r30 at cfa-24
  DW_CFA_offset: r29 at cfa-32
  DW_CFA_remember_state
  DW_CFA_advance_loc2: 476 to 000b5e4c
  DW_CFA_def_cfa: r31 ofs 48
  DW_CFA_advance_loc: 12 to 000b5e58
  DW_CFA_def_cfa_offset: 0
  DW_CFA_restore: r15
  DW_CFA_restore: r19
  DW_CFA_restore: r30
  DW_CFA_restore: r29
  DW_CFA_advance_loc: 32 to 000b5e78
  DW_CFA_restore_state

000096c0 0000002c 000096c4 FDE cie=00000000 pc=000b5fb0..000b608c
  DW_CFA_advance_loc: 4 to 000b5fb4
  DW_CFA_def_cfa_offset: 32
  DW_CFA_advance_loc: 8 to 000b5fbc
  DW_CFA_def_cfa: r29 ofs 32
  DW_CFA_offset: r19 at cfa-16
  DW_CFA_offset: r30 at cfa-24
  DW_CFA_offset: r29 at cfa-32
  DW_CFA_advance_loc1: 196 to 000b6080
  DW_CFA_def_cfa: r31 ofs 32
  DW_CFA_advance_loc: 8 to 000b6088
  DW_CFA_def_cfa_offset: 0
  DW_CFA_restore: r19
  DW_CFA_restore: r30
  DW_CFA_restore: r29
  DW_CFA_nop
  DW_CFA_nop
  DW_CFA_nop
  DW_CFA_nop
  DW_CFA_nop
  DW_CFA_nop
  DW_CFA_nop

000096f0 0000002c 000096f4 FDE cie=00000000 pc=000b608c..000b6164
  DW_CFA_advance_loc: 4 to 000b6090
  DW_CFA_def_cfa_offset: 32
  DW_CFA_advance_loc: 8 to 000b6098
  DW_CFA_def_cfa: r29 ofs 32
  DW_CFA_offset: r19 at cfa-16
  DW_CFA_offset: r30 at cfa-24
  DW_CFA_offset: r29 at cfa-32
  DW_CFA_advance_loc1: 192 to 000b6158
  DW_CFA_def_cfa: r31 ofs 32
  DW_CFA_advance_loc: 8 to 000b6160
  DW_CFA_def_cfa_offset: 0
  DW_CFA_restore: r19
  DW_CFA_restore: r30
  DW_CFA_restore: r29
  DW_CFA_nop
  DW_CFA_nop
  DW_CFA_nop
  DW_CFA_nop
  DW_CFA_nop
  DW_CFA_nop
  DW_CFA_nop

00009720 0000002c 00009724 FDE cie=00000000 pc=000b6164..000b6244
  DW_CFA_advance_loc: 4 to 000b6168
  DW_CFA_def_cfa_offset: 32
  DW_CFA_advance_loc: 8 to 000b6170
  DW_CFA_def_cfa: r29 ofs 32
  DW_CFA_offset: r19 at cfa-16
  DW_CFA_offset: r30 at cfa-24
  DW_CFA_offset: r29 at cfa-32
  DW_CFA_advance_loc1: 200 to 000b6238
  DW_CFA_def_cfa: r31 ofs 32
  DW_CFA_advance_loc: 8 to 000b6240
  DW_CFA_def_cfa_offset: 0
  DW_CFA_restore: r19
  DW_CFA_restore: r30
  DW_CFA_restore: r29
  DW_CFA_nop
  DW_CFA_nop
  DW_CFA_nop
  DW_CFA_nop
  DW_CFA_nop
  DW_CFA_nop
  DW_CFA_nop

00009750 00000044 00009754 FDE cie=00000000 pc=000b6244..000b6358
  DW_CFA_advance_loc: 20 to 000b6258
  DW_CFA_def_cfa_offset: 128
  DW_CFA_advance_loc: 12 to 000b6264
  DW_CFA_def_cfa: r29 ofs 32
  DW_CFA_offset: r15 at cfa-8
  DW_CFA_offset: r19 at cfa-16
  DW_CFA_offset: r30 at cfa-24
  DW_CFA_offset: r29 at cfa-32
  DW_CFA_remember_state
  DW_CFA_advance_loc: 32 to 000b6284
  DW_CFA_def_cfa: r31 ofs 128
  DW_CFA_advance_loc: 12 to 000b6290
  DW_CFA_def_cfa_offset: 0
  DW_CFA_restore: r15
  DW_CFA_restore: r19
  DW_CFA_restore: r30
  DW_CFA_restore: r29
  DW_CFA_advance_loc: 32 to 000b62b0
  DW_CFA_restore_state
  DW_CFA_remember_state
  DW_CFA_advance_loc1: 132 to 000b6334
  DW_CFA_def_cfa: r31 ofs 128
  DW_CFA_advance_loc: 4 to 000b6338
  DW_CFA_restore_state
  DW_CFA_advance_loc: 16 to 000b6348
  DW_CFA_def_cfa: r31 ofs 128
  DW_CFA_advance_loc: 12 to 000b6354
  DW_CFA_def_cfa_offset: 0
  DW_CFA_restore: r15
  DW_CFA_restore: r19
  DW_CFA_restore: r30
  DW_CFA_restore: r29
  DW_CFA_nop
  DW_CFA_nop
  DW_CFA_nop

00009798 00000044 0000979c FDE cie=00000000 pc=000b6358..000b6930
  DW_CFA_advance_loc: 4 to 000b635c
  DW_CFA_def_cfa_offset: 64
  DW_CFA_advance_loc: 16 to 000b636c
  DW_CFA_def_cfa: r29 ofs 16
  DW_CFA_offset: r30 at cfa-8
  DW_CFA_offset: r29 at cfa-16
  DW_CFA_offset_extended: r72 at cfa-24
  DW_CFA_offset_extended: r73 at cfa-32
  DW_CFA_offset_extended: r74 at cfa-40
  DW_CFA_offset_extended: r75 at cfa-48
  DW_CFA_offset_extended: r76 at cfa-56
  DW_CFA_offset_extended: r77 at cfa-64
  DW_CFA_advance_loc2: 1456 to 000b691c
  DW_CFA_def_cfa: r31 ofs 64
  DW_CFA_advance_loc: 16 to 000b692c
  DW_CFA_def_cfa_offset: 0
  DW_CFA_restore: r30
  DW_CFA_restore: r29
  DW_CFA_restore_extended: r72
  DW_CFA_restore_extended: r73
  DW_CFA_restore_extended: r74
  DW_CFA_restore_extended: r75
  DW_CFA_restore_extended: r76
  DW_CFA_restore_extended: r77
  DW_CFA_nop
  DW_CFA_nop
  DW_CFA_nop

000097e0 00000024 000097e4 FDE cie=00000000 pc=000b6930..000b694c
  DW_CFA_advance_loc: 4 to 000b6934
  DW_CFA_def_cfa_offset: 16
  DW_CFA_advance_loc: 4 to 000b6938
  DW_CFA_def_cfa: r29 ofs 16
  DW_CFA_offset: r30 at cfa-8
  DW_CFA_offset: r29 at cfa-16
  DW_CFA_advance_loc: 12 to 000b6944
  DW_CFA_def_cfa: r31 ofs 16
  DW_CFA_advance_loc: 4 to 000b6948
  DW_CFA_def_cfa_offset: 0
  DW_CFA_restore: r30
  DW_CFA_restore: r29
  DW_CFA_nop
  DW_CFA_nop
  DW_CFA_nop

00009808 00000024 0000980c FDE cie=00000000 pc=000b694c..000b6964
  DW_CFA_advance_loc: 4 to 000b6950
  DW_CFA_def_cfa_offset: 16
  DW_CFA_advance_loc: 4 to 000b6954
  DW_CFA_def_cfa: r29 ofs 16
  DW_CFA_offset: r30 at cfa-8
  DW_CFA_offset: r29 at cfa-16
  DW_CFA_advance_loc: 8 to 000b695c
  DW_CFA_def_cfa: r31 ofs 16
  DW_CFA_advance_loc: 4 to 000b6960
  DW_CFA_def_cfa_offset: 0
  DW_CFA_restore: r30
  DW_CFA_restore: r29
  DW_CFA_nop
  DW_CFA_nop
  DW_CFA_nop

00009830 0000002c 00009834 FDE cie=00000000 pc=000b6964..000b6a68
  DW_CFA_advance_loc: 4 to 000b6968
  DW_CFA_def_cfa_offset: 144
  DW_CFA_advance_loc: 12 to 000b6974
  DW_CFA_def_cfa: r29 ofs 32
  DW_CFA_offset: r19 at cfa-16
  DW_CFA_offset: r30 at cfa-24
  DW_CFA_offset: r29 at cfa-32
  DW_CFA_advance_loc1: 228 to 000b6a58
  DW_CFA_def_cfa: r31 ofs 144
  DW_CFA_advance_loc: 12 to 000b6a64
  DW_CFA_def_cfa_offset: 0
  DW_CFA_restore: r19
  DW_CFA_restore: r30
  DW_CFA_restore: r29
  DW_CFA_nop
  DW_CFA_nop
  DW_CFA_nop
  DW_CFA_nop
  DW_CFA_nop

00009860 0000002c 00009864 FDE cie=00000000 pc=000b6a68..000b6b7c
  DW_CFA_advance_loc: 4 to 000b6a6c
  DW_CFA_def_cfa_offset: 32
  DW_CFA_advance_loc: 8 to 000b6a74
  DW_CFA_def_cfa: r29 ofs 32
  DW_CFA_offset: r19 at cfa-8
  DW_CFA_offset: r20 at cfa-16
  DW_CFA_offset: r30 at cfa-24
  DW_CFA_offset: r29 at cfa-32
  DW_CFA_advance_loc1: 252 to 000b6b70
  DW_CFA_def_cfa: r31 ofs 32
  DW_CFA_advance_loc: 8 to 000b6b78
  DW_CFA_def_cfa_offset: 0
  DW_CFA_restore: r19
  DW_CFA_restore: r20
  DW_CFA_restore: r30
  DW_CFA_restore: r29
  DW_CFA_nop
  DW_CFA_nop
  DW_CFA_nop
  DW_CFA_nop

00009890 00000014 00009894 FDE cie=00000000 pc=000b6b7c..000b6bbc
  DW_CFA_nop
  DW_CFA_nop
  DW_CFA_nop
  DW_CFA_nop
  DW_CFA_nop
  DW_CFA_nop
  DW_CFA_nop

000098a8 0000002c 000098ac FDE cie=00000000 pc=000b6bbc..000b6c3c
  DW_CFA_advance_loc: 4 to 000b6bc0
  DW_CFA_def_cfa_offset: 32
  DW_CFA_advance_loc: 8 to 000b6bc8
  DW_CFA_def_cfa: r29 ofs 32
  DW_CFA_offset: r19 at cfa-16
  DW_CFA_offset: r30 at cfa-24
  DW_CFA_offset: r29 at cfa-32
  DW_CFA_advance_loc1: 104 to 000b6c30
  DW_CFA_def_cfa: r31 ofs 32
  DW_CFA_advance_loc: 8 to 000b6c38
  DW_CFA_def_cfa_offset: 0
  DW_CFA_restore: r19
  DW_CFA_restore: r30
  DW_CFA_restore: r29
  DW_CFA_nop
  DW_CFA_nop
  DW_CFA_nop
  DW_CFA_nop
  DW_CFA_nop
  DW_CFA_nop
  DW_CFA_nop

000098d8 0000002c 000098dc FDE cie=00000000 pc=000b6c3c..000b6d14
  DW_CFA_advance_loc: 4 to 000b6c40
  DW_CFA_def_cfa_offset: 32
  DW_CFA_advance_loc: 8 to 000b6c48
  DW_CFA_def_cfa: r29 ofs 32
  DW_CFA_offset: r19 at cfa-16
  DW_CFA_offset: r30 at cfa-24
  DW_CFA_offset: r29 at cfa-32
  DW_CFA_remember_state
  DW_CFA_advance_loc1: 88 to 000b6ca0
  DW_CFA_def_cfa: r31 ofs 32
  DW_CFA_advance_loc: 8 to 000b6ca8
  DW_CFA_def_cfa_offset: 0
  DW_CFA_restore: r19
  DW_CFA_restore: r30
  DW_CFA_restore: r29
  DW_CFA_advance_loc: 4 to 000b6cac
  DW_CFA_restore_state
  DW_CFA_nop
  DW_CFA_nop
  DW_CFA_nop
  DW_CFA_nop

00009908 00000014 0000990c FDE cie=00000000 pc=000b6d14..000b6d2c
  DW_CFA_nop
  DW_CFA_nop
  DW_CFA_nop
  DW_CFA_nop
  DW_CFA_nop
  DW_CFA_nop
  DW_CFA_nop

00009920 00000014 00009924 FDE cie=00000000 pc=000b6d2c..000b6d40
  DW_CFA_nop
  DW_CFA_nop
  DW_CFA_nop
  DW_CFA_nop
  DW_CFA_nop
  DW_CFA_nop
  DW_CFA_nop

00009938 00000014 0000993c FDE cie=00000000 pc=000b6d40..000b6d54
  DW_CFA_nop
  DW_CFA_nop
  DW_CFA_nop
  DW_CFA_nop
  DW_CFA_nop
  DW_CFA_nop
  DW_CFA_nop

00009950 0000004c 00009954 FDE cie=00000000 pc=000b6d54..000b72a0
  DW_CFA_advance_loc: 20 to 000b6d68
  DW_CFA_def_cfa_offset: 400
  DW_CFA_advance_loc: 32 to 000b6d88
  DW_CFA_def_cfa: r29 ofs 112
  DW_CFA_offset: r15 at cfa-8
  DW_CFA_offset: r19 at cfa-16
  DW_CFA_offset: r20 at cfa-24
  DW_CFA_offset: r21 at cfa-32
  DW_CFA_offset: r22 at cfa-40
  DW_CFA_offset: r23 at cfa-48
  DW_CFA_offset: r24 at cfa-56
  DW_CFA_offset: r25 at cfa-64
  DW_CFA_offset: r26 at cfa-72
  DW_CFA_offset: r27 at cfa-80
  DW_CFA_offset: r28 at cfa-96
  DW_CFA_offset: r30 at cfa-104
  DW_CFA_offset: r29 at cfa-112
  DW_CFA_advance_loc2: 1240 to 000b7260
  DW_CFA_def_cfa: r31 ofs 400
  DW_CFA_advance_loc: 32 to 000b7280
  DW_CFA_def_cfa_offset: 0
  DW_CFA_restore: r15
  DW_CFA_restore: r19
  DW_CFA_restore: r20
  DW_CFA_restore: r21
  DW_CFA_restore: r22
  DW_CFA_restore: r23
  DW_CFA_restore: r24
  DW_CFA_restore: r25
  DW_CFA_restore: r26
  DW_CFA_restore: r27
  DW_CFA_restore: r28
  DW_CFA_restore: r30
  DW_CFA_restore: r29
  DW_CFA_nop
  DW_CFA_nop
  DW_CFA_nop
  DW_CFA_nop
  DW_CFA_nop
  DW_CFA_nop

000099a0 0000003c 000099a4 FDE cie=00000000 pc=000b72a0..000b79a0
  DW_CFA_advance_loc: 20 to 000b72b4
  DW_CFA_def_cfa_offset: 80
  DW_CFA_advance_loc: 20 to 000b72c8
  DW_CFA_def_cfa: r29 ofs 80
  DW_CFA_offset: r15 at cfa-8
  DW_CFA_offset: r19 at cfa-16
  DW_CFA_offset: r20 at cfa-24
  DW_CFA_offset: r21 at cfa-32
  DW_CFA_offset: r22 at cfa-40
  DW_CFA_offset: r23 at cfa-48
  DW_CFA_offset: r28 at cfa-64
  DW_CFA_offset: r30 at cfa-72
  DW_CFA_offset: r29 at cfa-80
  DW_CFA_remember_state
  DW_CFA_advance_loc2: 576 to 000b7508
  DW_CFA_def_cfa: r31 ofs 80
  DW_CFA_advance_loc: 20 to 000b751c
  DW_CFA_def_cfa_offset: 0
  DW_CFA_restore: r15
  DW_CFA_restore: r19
  DW_CFA_restore: r20
  DW_CFA_restore: r21
  DW_CFA_restore: r22
  DW_CFA_restore: r23
  DW_CFA_restore: r28
  DW_CFA_restore: r30
  DW_CFA_restore: r29
  DW_CFA_advance_loc: 32 to 000b753c
  DW_CFA_restore_state
  DW_CFA_nop

000099e0 00000034 000099e4 FDE cie=00000000 pc=000b79a0..000b7ba4
  DW_CFA_advance_loc: 20 to 000b79b4
  DW_CFA_def_cfa_offset: 48
  DW_CFA_advance_loc: 12 to 000b79c0
  DW_CFA_def_cfa: r29 ofs 48
  DW_CFA_offset: r15 at cfa-8
  DW_CFA_offset: r19 at cfa-16
  DW_CFA_offset: r20 at cfa-24
  DW_CFA_offset: r28 at cfa-32
  DW_CFA_offset: r30 at cfa-40
  DW_CFA_offset: r29 at cfa-48
  DW_CFA_remember_state
  DW_CFA_advance_loc2: 400 to 000b7b50
  DW_CFA_def_cfa: r31 ofs 48
  DW_CFA_advance_loc: 12 to 000b7b5c
  DW_CFA_def_cfa_offset: 0
  DW_CFA_restore: r15
  DW_CFA_restore: r19
  DW_CFA_restore: r20
  DW_CFA_restore: r28
  DW_CFA_restore: r30
  DW_CFA_restore: r29
  DW_CFA_advance_loc: 32 to 000b7b7c
  DW_CFA_restore_state
  DW_CFA_nop
  DW_CFA_nop

00009a18 0000003c 00009a1c FDE cie=00000000 pc=000b7ba4..000b7c10
  DW_CFA_advance_loc: 4 to 000b7ba8
  DW_CFA_def_cfa_offset: 16
  DW_CFA_advance_loc: 4 to 000b7bac
  DW_CFA_def_cfa: r29 ofs 16
  DW_CFA_offset: r30 at cfa-8
  DW_CFA_offset: r29 at cfa-16
  DW_CFA_remember_state
  DW_CFA_advance_loc: 16 to 000b7bbc
  DW_CFA_def_cfa: r31 ofs 16
  DW_CFA_advance_loc: 4 to 000b7bc0
  DW_CFA_def_cfa_offset: 0
  DW_CFA_restore: r30
  DW_CFA_restore: r29
  DW_CFA_advance_loc: 4 to 000b7bc4
  DW_CFA_restore_state
  DW_CFA_remember_state
  DW_CFA_advance_loc: 56 to 000b7bfc
  DW_CFA_def_cfa: r31 ofs 16
  DW_CFA_advance_loc: 4 to 000b7c00
  DW_CFA_def_cfa_offset: 0
  DW_CFA_restore: r30
  DW_CFA_restore: r29
  DW_CFA_advance_loc: 4 to 000b7c04
  DW_CFA_restore_state
  DW_CFA_advance_loc: 4 to 000b7c08
  DW_CFA_def_cfa: r31 ofs 16
  DW_CFA_advance_loc: 4 to 000b7c0c
  DW_CFA_def_cfa_offset: 0
  DW_CFA_restore: r30
  DW_CFA_restore: r29
  DW_CFA_nop
  DW_CFA_nop
  DW_CFA_nop

00009a58 00000034 00009a5c FDE cie=00000000 pc=000b7c10..000b7cd8
  DW_CFA_advance_loc: 20 to 000b7c24
  DW_CFA_def_cfa_offset: 464
  DW_CFA_advance_loc: 20 to 000b7c38
  DW_CFA_def_cfa: r29 ofs 64
  DW_CFA_offset: r15 at cfa-8
  DW_CFA_offset: r19 at cfa-16
  DW_CFA_offset: r20 at cfa-24
  DW_CFA_offset: r21 at cfa-32
  DW_CFA_offset: r28 at cfa-48
  DW_CFA_offset: r30 at cfa-56
  DW_CFA_offset: r29 at cfa-64
  DW_CFA_advance_loc1: 108 to 000b7ca4
  DW_CFA_def_cfa: r31 ofs 464
  DW_CFA_advance_loc: 20 to 000b7cb8
  DW_CFA_def_cfa_offset: 0
  DW_CFA_restore: r15
  DW_CFA_restore: r19
  DW_CFA_restore: r20
  DW_CFA_restore: r21
  DW_CFA_restore: r28
  DW_CFA_restore: r30
  DW_CFA_restore: r29
  DW_CFA_nop

00009a90 00000034 00009a94 FDE cie=00000000 pc=000b7cd8..000b7de4
  DW_CFA_advance_loc: 20 to 000b7cec
  DW_CFA_def_cfa_offset: 80
  DW_CFA_advance_loc: 20 to 000b7d00
  DW_CFA_def_cfa: r29 ofs 64
  DW_CFA_offset: r15 at cfa-8
  DW_CFA_offset: r19 at cfa-16
  DW_CFA_offset: r20 at cfa-24
  DW_CFA_offset: r21 at cfa-32
  DW_CFA_offset: r22 at cfa-48
  DW_CFA_offset: r30 at cfa-56
  DW_CFA_offset: r29 at cfa-64
  DW_CFA_advance_loc1: 176 to 000b7db0
  DW_CFA_def_cfa: r31 ofs 80
  DW_CFA_advance_loc: 20 to 000b7dc4
  DW_CFA_def_cfa_offset: 0
  DW_CFA_restore: r15
  DW_CFA_restore: r19
  DW_CFA_restore: r20
  DW_CFA_restore: r21
  DW_CFA_restore: r22
  DW_CFA_restore: r30
  DW_CFA_restore: r29
  DW_CFA_nop
  DW_CFA_nop
  DW_CFA_nop

00009ac8 00000014 00009acc FDE cie=00000000 pc=000b7de4..000b7dec
  DW_CFA_nop
  DW_CFA_nop
  DW_CFA_nop
  DW_CFA_nop
  DW_CFA_nop
  DW_CFA_nop
  DW_CFA_nop

00009ae0 0000003c 00009ae4 FDE cie=00000000 pc=000b7dec..000b7f50
  DW_CFA_advance_loc: 4 to 000b7df0
  DW_CFA_def_cfa_offset: 64
  DW_CFA_advance_loc: 16 to 000b7e00
  DW_CFA_def_cfa: r29 ofs 64
  DW_CFA_offset: r19 at cfa-8
  DW_CFA_offset: r20 at cfa-16
  DW_CFA_offset: r21 at cfa-24
  DW_CFA_offset: r22 at cfa-32
  DW_CFA_offset: r23 at cfa-40
  DW_CFA_offset: r24 at cfa-48
  DW_CFA_offset: r30 at cfa-56
  DW_CFA_offset: r29 at cfa-64
  DW_CFA_remember_state
  DW_CFA_advance_loc2: 312 to 000b7f38
  DW_CFA_def_cfa: r31 ofs 64
  DW_CFA_advance_loc: 4 to 000b7f3c
  DW_CFA_restore_state
  DW_CFA_def_cfa: r31 ofs 64
  DW_CFA_advance_loc: 16 to 000b7f4c
  DW_CFA_def_cfa_offset: 0
  DW_CFA_restore: r19
  DW_CFA_restore: r20
  DW_CFA_restore: r21
  DW_CFA_restore: r22
  DW_CFA_restore: r23
  DW_CFA_restore: r24
  DW_CFA_restore: r30
  DW_CFA_restore: r29
  DW_CFA_nop

00009b20 0000004c 00009b24 FDE cie=00000000 pc=000b7f50..000b8380
  DW_CFA_advance_loc: 4 to 000b7f54
  DW_CFA_def_cfa_offset: 128
  DW_CFA_advance_loc: 28 to 000b7f70
  DW_CFA_def_cfa: r29 ofs 96
  DW_CFA_offset: r19 at cfa-8
  DW_CFA_offset: r20 at cfa-16
  DW_CFA_offset: r21 at cfa-24
  DW_CFA_offset: r22 at cfa-32
  DW_CFA_offset: r23 at cfa-40
  DW_CFA_offset: r24 at cfa-48
  DW_CFA_offset: r25 at cfa-56
  DW_CFA_offset: r26 at cfa-64
  DW_CFA_offset: r27 at cfa-72
  DW_CFA_offset: r28 at cfa-80
  DW_CFA_offset: r30 at cfa-88
  DW_CFA_offset: r29 at cfa-96
  DW_CFA_remember_state
  DW_CFA_advance_loc1: 212 to 000b8044
  DW_CFA_def_cfa: r31 ofs 128
  DW_CFA_advance_loc: 28 to 000b8060
  DW_CFA_def_cfa_offset: 0
  DW_CFA_restore: r19
  DW_CFA_restore: r20
  DW_CFA_restore: r21
  DW_CFA_restore: r22
  DW_CFA_restore: r23
  DW_CFA_restore: r24
  DW_CFA_restore: r25
  DW_CFA_restore: r26
  DW_CFA_restore: r27
  DW_CFA_restore: r28
  DW_CFA_restore: r30
  DW_CFA_restore: r29
  DW_CFA_advance_loc: 4 to 000b8064
  DW_CFA_restore_state
  DW_CFA_nop
  DW_CFA_nop
  DW_CFA_nop
  DW_CFA_nop
  DW_CFA_nop
  DW_CFA_nop
  DW_CFA_nop

00009b70 00000014 00009b74 FDE cie=00000000 pc=000b8380..000b8388
  DW_CFA_nop
  DW_CFA_nop
  DW_CFA_nop
  DW_CFA_nop
  DW_CFA_nop
  DW_CFA_nop
  DW_CFA_nop

00009b88 0000004c 00009b8c FDE cie=00000000 pc=000b8388..000b88a8
  DW_CFA_advance_loc: 4 to 000b838c
  DW_CFA_def_cfa_offset: 128
  DW_CFA_advance_loc: 28 to 000b83a8
  DW_CFA_def_cfa: r29 ofs 96
  DW_CFA_offset: r19 at cfa-8
  DW_CFA_offset: r20 at cfa-16
  DW_CFA_offset: r21 at cfa-24
  DW_CFA_offset: r22 at cfa-32
  DW_CFA_offset: r23 at cfa-40
  DW_CFA_offset: r24 at cfa-48
  DW_CFA_offset: r25 at cfa-56
  DW_CFA_offset: r26 at cfa-64
  DW_CFA_offset: r27 at cfa-72
  DW_CFA_offset: r28 at cfa-80
  DW_CFA_offset: r30 at cfa-88
  DW_CFA_offset: r29 at cfa-96
  DW_CFA_remember_state
  DW_CFA_advance_loc1: 252 to 000b84a4
  DW_CFA_def_cfa: r31 ofs 128
  DW_CFA_advance_loc: 28 to 000b84c0
  DW_CFA_def_cfa_offset: 0
  DW_CFA_restore: r19
  DW_CFA_restore: r20
  DW_CFA_restore: r21
  DW_CFA_restore: r22
  DW_CFA_restore: r23
  DW_CFA_restore: r24
  DW_CFA_restore: r25
  DW_CFA_restore: r26
  DW_CFA_restore: r27
  DW_CFA_restore: r28
  DW_CFA_restore: r30
  DW_CFA_restore: r29
  DW_CFA_advance_loc: 4 to 000b84c4
  DW_CFA_restore_state
  DW_CFA_nop
  DW_CFA_nop
  DW_CFA_nop
  DW_CFA_nop
  DW_CFA_nop
  DW_CFA_nop
  DW_CFA_nop

00009bd8 00000014 00009bdc FDE cie=00000000 pc=000b88a8..000b88b0
  DW_CFA_nop
  DW_CFA_nop
  DW_CFA_nop
  DW_CFA_nop
  DW_CFA_nop
  DW_CFA_nop
  DW_CFA_nop

00009bf0 00000024 00009bf4 FDE cie=00000000 pc=000b88b0..000b8904
  DW_CFA_advance_loc: 4 to 000b88b4
  DW_CFA_def_cfa_offset: 32
  DW_CFA_advance_loc: 8 to 000b88bc
  DW_CFA_def_cfa: r29 ofs 32
  DW_CFA_offset: r19 at cfa-16
  DW_CFA_offset: r30 at cfa-24
  DW_CFA_offset: r29 at cfa-32
  DW_CFA_advance_loc: 60 to 000b88f8
  DW_CFA_def_cfa: r31 ofs 32
  DW_CFA_advance_loc: 8 to 000b8900
  DW_CFA_def_cfa_offset: 0
  DW_CFA_restore: r19
  DW_CFA_restore: r30
  DW_CFA_restore: r29

00009c18 00000024 00009c1c FDE cie=00000000 pc=000b8904..000b8940
  DW_CFA_advance_loc: 4 to 000b8908
  DW_CFA_def_cfa_offset: 32
  DW_CFA_advance_loc: 8 to 000b8910
  DW_CFA_def_cfa: r29 ofs 32
  DW_CFA_offset: r19 at cfa-16
  DW_CFA_offset: r30 at cfa-24
  DW_CFA_offset: r29 at cfa-32
  DW_CFA_advance_loc: 36 to 000b8934
  DW_CFA_def_cfa: r31 ofs 32
  DW_CFA_advance_loc: 8 to 000b893c
  DW_CFA_def_cfa_offset: 0
  DW_CFA_restore: r19
  DW_CFA_restore: r30
  DW_CFA_restore: r29

00009c40 00000024 00009c44 FDE cie=00000000 pc=000b8940..000b897c
  DW_CFA_advance_loc: 4 to 000b8944
  DW_CFA_def_cfa_offset: 32
  DW_CFA_advance_loc: 8 to 000b894c
  DW_CFA_def_cfa: r29 ofs 32
  DW_CFA_offset: r19 at cfa-16
  DW_CFA_offset: r30 at cfa-24
  DW_CFA_offset: r29 at cfa-32
  DW_CFA_advance_loc: 36 to 000b8970
  DW_CFA_def_cfa: r31 ofs 32
  DW_CFA_advance_loc: 8 to 000b8978
  DW_CFA_def_cfa_offset: 0
  DW_CFA_restore: r19
  DW_CFA_restore: r30
  DW_CFA_restore: r29

00009c68 00000034 00009c6c FDE cie=00000000 pc=000b897c..000b8adc
  DW_CFA_advance_loc: 20 to 000b8990
  DW_CFA_def_cfa_offset: 80
  DW_CFA_advance_loc: 20 to 000b89a4
  DW_CFA_def_cfa: r29 ofs 64
  DW_CFA_offset: r15 at cfa-8
  DW_CFA_offset: r19 at cfa-16
  DW_CFA_offset: r20 at cfa-24
  DW_CFA_offset: r21 at cfa-32
  DW_CFA_offset: r22 at cfa-48
  DW_CFA_offset: r30 at cfa-56
  DW_CFA_offset: r29 at cfa-64
  DW_CFA_advance_loc2: 260 to 000b8aa8
  DW_CFA_def_cfa: r31 ofs 80
  DW_CFA_advance_loc: 20 to 000b8abc
  DW_CFA_def_cfa_offset: 0
  DW_CFA_restore: r15
  DW_CFA_restore: r19
  DW_CFA_restore: r20
  DW_CFA_restore: r21
  DW_CFA_restore: r22
  DW_CFA_restore: r30
  DW_CFA_restore: r29
  DW_CFA_nop
  DW_CFA_nop

00009ca0 00000024 00009ca4 FDE cie=00000000 pc=000b8adc..000b8b28
  DW_CFA_advance_loc: 4 to 000b8ae0
  DW_CFA_def_cfa_offset: 32
  DW_CFA_advance_loc: 8 to 000b8ae8
  DW_CFA_def_cfa: r29 ofs 32
  DW_CFA_offset: r19 at cfa-16
  DW_CFA_offset: r30 at cfa-24
  DW_CFA_offset: r29 at cfa-32
  DW_CFA_advance_loc: 52 to 000b8b1c
  DW_CFA_def_cfa: r31 ofs 32
  DW_CFA_advance_loc: 8 to 000b8b24
  DW_CFA_def_cfa_offset: 0
  DW_CFA_restore: r19
  DW_CFA_restore: r30
  DW_CFA_restore: r29

00009cc8 00000034 00009ccc FDE cie=00000000 pc=000b8b28..000b8c08
  DW_CFA_advance_loc: 4 to 000b8b2c
  DW_CFA_def_cfa_offset: 64
  DW_CFA_advance_loc: 16 to 000b8b3c
  DW_CFA_def_cfa: r29 ofs 64
  DW_CFA_offset: r19 at cfa-8
  DW_CFA_offset: r20 at cfa-16
  DW_CFA_offset: r21 at cfa-24
  DW_CFA_offset: r22 at cfa-32
  DW_CFA_offset: r23 at cfa-48
  DW_CFA_offset: r30 at cfa-56
  DW_CFA_offset: r29 at cfa-64
  DW_CFA_advance_loc1: 184 to 000b8bf4
  DW_CFA_def_cfa: r31 ofs 64
  DW_CFA_advance_loc: 16 to 000b8c04
  DW_CFA_def_cfa_offset: 0
  DW_CFA_restore: r19
  DW_CFA_restore: r20
  DW_CFA_restore: r21
  DW_CFA_restore: r22
  DW_CFA_restore: r23
  DW_CFA_restore: r30
  DW_CFA_restore: r29
  DW_CFA_nop
  DW_CFA_nop
  DW_CFA_nop

00009d00 0000002c 00009d04 FDE cie=00000000 pc=000b8c08..000b8cb8
  DW_CFA_advance_loc: 20 to 000b8c1c
  DW_CFA_def_cfa_offset: 192
  DW_CFA_advance_loc: 12 to 000b8c28
  DW_CFA_def_cfa: r29 ofs 32
  DW_CFA_offset: r15 at cfa-8
  DW_CFA_offset: r19 at cfa-16
  DW_CFA_offset: r30 at cfa-24
  DW_CFA_offset: r29 at cfa-32
  DW_CFA_advance_loc1: 100 to 000b8c8c
  DW_CFA_def_cfa: r31 ofs 192
  DW_CFA_advance_loc: 12 to 000b8c98
  DW_CFA_def_cfa_offset: 0
  DW_CFA_restore: r15
  DW_CFA_restore: r19
  DW_CFA_restore: r30
  DW_CFA_restore: r29
  DW_CFA_nop
  DW_CFA_nop

00009d30 0000002c 00009d34 FDE cie=00000000 pc=000b8cb8..000b8db4
  DW_CFA_advance_loc: 20 to 000b8ccc
  DW_CFA_def_cfa_offset: 240
  DW_CFA_advance_loc: 12 to 000b8cd8
  DW_CFA_def_cfa: r29 ofs 32
  DW_CFA_offset: r15 at cfa-8
  DW_CFA_offset: r19 at cfa-16
  DW_CFA_offset: r30 at cfa-24
  DW_CFA_offset: r29 at cfa-32
  DW_CFA_advance_loc1: 176 to 000b8d88
  DW_CFA_def_cfa: r31 ofs 240
  DW_CFA_advance_loc: 12 to 000b8d94
  DW_CFA_def_cfa_offset: 0
  DW_CFA_restore: r15
  DW_CFA_restore: r19
  DW_CFA_restore: r30
  DW_CFA_restore: r29
  DW_CFA_nop
  DW_CFA_nop

00009d60 00000014 00009d64 FDE cie=00000000 pc=000b8db4..000b8dc0
  DW_CFA_nop
  DW_CFA_nop
  DW_CFA_nop
  DW_CFA_nop
  DW_CFA_nop
  DW_CFA_nop
  DW_CFA_nop

00009d78 0000002c 00009d7c FDE cie=00000000 pc=000b8dc0..000b8ee0
  DW_CFA_advance_loc: 20 to 000b8dd4
  DW_CFA_def_cfa_offset: 64
  DW_CFA_advance_loc: 12 to 000b8de0
  DW_CFA_def_cfa: r29 ofs 32
  DW_CFA_offset: r15 at cfa-16
  DW_CFA_offset: r30 at cfa-24
  DW_CFA_offset: r29 at cfa-32
  DW_CFA_remember_state
  DW_CFA_advance_loc1: 196 to 000b8ea4
  DW_CFA_def_cfa: r31 ofs 64
  DW_CFA_advance_loc: 12 to 000b8eb0
  DW_CFA_def_cfa_offset: 0
  DW_CFA_restore: r15
  DW_CFA_restore: r30
  DW_CFA_restore: r29
  DW_CFA_advance_loc: 32 to 000b8ed0
  DW_CFA_restore_state
  DW_CFA_nop
  DW_CFA_nop
  DW_CFA_nop
  DW_CFA_nop

00009da8 00000034 00009dac FDE cie=00000000 pc=000b8ee0..000b911c
  DW_CFA_advance_loc: 20 to 000b8ef4
  DW_CFA_def_cfa_offset: 320
  DW_CFA_advance_loc: 20 to 000b8f08
  DW_CFA_def_cfa: r29 ofs 64
  DW_CFA_offset: r15 at cfa-8
  DW_CFA_offset: r19 at cfa-16
  DW_CFA_offset: r20 at cfa-24
  DW_CFA_offset: r21 at cfa-32
  DW_CFA_offset: r28 at cfa-48
  DW_CFA_offset: r30 at cfa-56
  DW_CFA_offset: r29 at cfa-64
  DW_CFA_advance_loc2: 480 to 000b90e8
  DW_CFA_def_cfa: r31 ofs 320
  DW_CFA_advance_loc: 20 to 000b90fc
  DW_CFA_def_cfa_offset: 0
  DW_CFA_restore: r15
  DW_CFA_restore: r19
  DW_CFA_restore: r20
  DW_CFA_restore: r21
  DW_CFA_restore: r28
  DW_CFA_restore: r30
  DW_CFA_restore: r29

00009de0 00000014 00009de4 FDE cie=00000000 pc=000b911c..000b9120
  DW_CFA_nop
  DW_CFA_nop
  DW_CFA_nop
  DW_CFA_nop
  DW_CFA_nop
  DW_CFA_nop
  DW_CFA_nop

00009df8 00000024 00009dfc FDE cie=00000000 pc=000b9120..000b913c
  DW_CFA_advance_loc: 8 to 000b9128
  DW_CFA_def_cfa_offset: 16
  DW_CFA_advance_loc: 4 to 000b912c
  DW_CFA_def_cfa: r29 ofs 16
  DW_CFA_offset: r30 at cfa-8
  DW_CFA_offset: r29 at cfa-16
  DW_CFA_advance_loc: 4 to 000b9130
  DW_CFA_def_cfa: r31 ofs 16
  DW_CFA_advance_loc: 4 to 000b9134
  DW_CFA_def_cfa_offset: 0
  DW_CFA_restore: r30
  DW_CFA_restore: r29
  DW_CFA_nop
  DW_CFA_nop
  DW_CFA_nop

00009e20 0000004c 00009e24 FDE cie=00000000 pc=000b913c..000b952c
  DW_CFA_advance_loc: 20 to 000b9150
  DW_CFA_def_cfa_offset: 208
  DW_CFA_advance_loc: 32 to 000b9170
  DW_CFA_def_cfa: r29 ofs 112
  DW_CFA_offset: r15 at cfa-8
  DW_CFA_offset: r19 at cfa-16
  DW_CFA_offset: r20 at cfa-24
  DW_CFA_offset: r21 at cfa-32
  DW_CFA_offset: r22 at cfa-40
  DW_CFA_offset: r23 at cfa-48
  DW_CFA_offset: r24 at cfa-56
  DW_CFA_offset: r25 at cfa-64
  DW_CFA_offset: r26 at cfa-72
  DW_CFA_offset: r27 at cfa-80
  DW_CFA_offset: r28 at cfa-96
  DW_CFA_offset: r30 at cfa-104
  DW_CFA_offset: r29 at cfa-112
  DW_CFA_advance_loc2: 892 to 000b94ec
  DW_CFA_def_cfa: r31 ofs 208
  DW_CFA_advance_loc: 32 to 000b950c
  DW_CFA_def_cfa_offset: 0
  DW_CFA_restore: r15
  DW_CFA_restore: r19
  DW_CFA_restore: r20
  DW_CFA_restore: r21
  DW_CFA_restore: r22
  DW_CFA_restore: r23
  DW_CFA_restore: r24
  DW_CFA_restore: r25
  DW_CFA_restore: r26
  DW_CFA_restore: r27
  DW_CFA_restore: r28
  DW_CFA_restore: r30
  DW_CFA_restore: r29
  DW_CFA_nop
  DW_CFA_nop
  DW_CFA_nop
  DW_CFA_nop
  DW_CFA_nop
  DW_CFA_nop

00009e70 00000014 00009e74 FDE cie=00000000 pc=000b952c..000b9544
  DW_CFA_nop
  DW_CFA_nop
  DW_CFA_nop
  DW_CFA_nop
  DW_CFA_nop
  DW_CFA_nop
  DW_CFA_nop

00009e88 0000002c 00009e8c FDE cie=00000000 pc=000b9544..000b959c
  DW_CFA_advance_loc: 4 to 000b9548
  DW_CFA_def_cfa_offset: 32
  DW_CFA_advance_loc: 8 to 000b9550
  DW_CFA_def_cfa: r29 ofs 32
  DW_CFA_offset: r19 at cfa-8
  DW_CFA_offset: r20 at cfa-16
  DW_CFA_offset: r30 at cfa-24
  DW_CFA_offset: r29 at cfa-32
  DW_CFA_advance_loc1: 64 to 000b9590
  DW_CFA_def_cfa: r31 ofs 32
  DW_CFA_advance_loc: 8 to 000b9598
  DW_CFA_def_cfa_offset: 0
  DW_CFA_restore: r19
  DW_CFA_restore: r20
  DW_CFA_restore: r30
  DW_CFA_restore: r29
  DW_CFA_nop
  DW_CFA_nop
  DW_CFA_nop
  DW_CFA_nop

00009eb8 00000014 00009ebc FDE cie=00000000 pc=000b959c..000b95a4
  DW_CFA_nop
  DW_CFA_nop
  DW_CFA_nop
  DW_CFA_nop
  DW_CFA_nop
  DW_CFA_nop
  DW_CFA_nop

00009ed0 00000034 00009ed4 FDE cie=00000000 pc=000b95a4..000b9690
  DW_CFA_advance_loc: 20 to 000b95b8
  DW_CFA_def_cfa_offset: 64
  DW_CFA_advance_loc: 16 to 000b95c8
  DW_CFA_def_cfa: r29 ofs 64
  DW_CFA_offset: r15 at cfa-8
  DW_CFA_offset: r19 at cfa-16
  DW_CFA_offset: r20 at cfa-24
  DW_CFA_offset: r21 at cfa-32
  DW_CFA_offset: r22 at cfa-40
  DW_CFA_offset: r28 at cfa-48
  DW_CFA_offset: r30 at cfa-56
  DW_CFA_offset: r29 at cfa-64
  DW_CFA_advance_loc1: 152 to 000b9660
  DW_CFA_def_cfa: r31 ofs 64
  DW_CFA_advance_loc: 16 to 000b9670
  DW_CFA_def_cfa_offset: 0
  DW_CFA_restore: r15
  DW_CFA_restore: r19
  DW_CFA_restore: r20
  DW_CFA_restore: r21
  DW_CFA_restore: r22
  DW_CFA_restore: r28
  DW_CFA_restore: r30
  DW_CFA_restore: r29

00009f08 00000044 00009f0c FDE cie=00000000 pc=000b9690..000b9d84
  DW_CFA_advance_loc: 20 to 000b96a4
  DW_CFA_def_cfa_offset: 112
  DW_CFA_advance_loc: 28 to 000b96c0
  DW_CFA_def_cfa: r29 ofs 112
  DW_CFA_offset: r15 at cfa-8
  DW_CFA_offset: r19 at cfa-16
  DW_CFA_offset: r20 at cfa-24
  DW_CFA_offset: r21 at cfa-32
  DW_CFA_offset: r22 at cfa-40
  DW_CFA_offset: r23 at cfa-48
  DW_CFA_offset: r24 at cfa-56
  DW_CFA_offset: r25 at cfa-64
  DW_CFA_offset: r26 at cfa-72
  DW_CFA_offset: r27 at cfa-80
  DW_CFA_offset: r28 at cfa-96
  DW_CFA_offset: r30 at cfa-104
  DW_CFA_offset: r29 at cfa-112
  DW_CFA_advance_loc2: 1672 to 000b9d48
  DW_CFA_def_cfa: r31 ofs 112
  DW_CFA_advance_loc: 28 to 000b9d64
  DW_CFA_def_cfa_offset: 0
  DW_CFA_restore: r15
  DW_CFA_restore: r19
  DW_CFA_restore: r20
  DW_CFA_restore: r21
  DW_CFA_restore: r22
  DW_CFA_restore: r23
  DW_CFA_restore: r24
  DW_CFA_restore: r25
  DW_CFA_restore: r26
  DW_CFA_restore: r27
  DW_CFA_restore: r28
  DW_CFA_restore: r30
  DW_CFA_restore: r29

00009f50 00000044 00009f54 FDE cie=00000000 pc=000b9d84..000b9fdc
  DW_CFA_advance_loc: 20 to 000b9d98
  DW_CFA_def_cfa_offset: 368
  DW_CFA_advance_loc: 24 to 000b9db0
  DW_CFA_def_cfa: r29 ofs 80
  DW_CFA_offset: r15 at cfa-8
  DW_CFA_offset: r19 at cfa-16
  DW_CFA_offset: r20 at cfa-24
  DW_CFA_offset: r21 at cfa-32
  DW_CFA_offset: r22 at cfa-40
  DW_CFA_offset: r23 at cfa-48
  DW_CFA_offset: r24 at cfa-56
  DW_CFA_offset: r28 at cfa-64
  DW_CFA_offset: r30 at cfa-72
  DW_CFA_offset: r29 at cfa-80
  DW_CFA_advance_loc2: 500 to 000b9fa4
  DW_CFA_def_cfa: r31 ofs 368
  DW_CFA_advance_loc: 24 to 000b9fbc
  DW_CFA_def_cfa_offset: 0
  DW_CFA_restore: r15
  DW_CFA_restore: r19
  DW_CFA_restore: r20
  DW_CFA_restore: r21
  DW_CFA_restore: r22
  DW_CFA_restore: r23
  DW_CFA_restore: r24
  DW_CFA_restore: r28
  DW_CFA_restore: r30
  DW_CFA_restore: r29
  DW_CFA_nop
  DW_CFA_nop
  DW_CFA_nop
  DW_CFA_nop
  DW_CFA_nop
  DW_CFA_nop
  DW_CFA_nop

00009f98 0000002c 00009f9c FDE cie=00000000 pc=000b9fdc..000ba090
  DW_CFA_advance_loc: 20 to 000b9ff0
  DW_CFA_def_cfa_offset: 64
  DW_CFA_advance_loc: 16 to 000ba000
  DW_CFA_def_cfa: r29 ofs 48
  DW_CFA_offset: r15 at cfa-8
  DW_CFA_offset: r19 at cfa-16
  DW_CFA_offset: r20 at cfa-32
  DW_CFA_offset: r30 at cfa-40
  DW_CFA_offset: r29 at cfa-48
  DW_CFA_advance_loc1: 96 to 000ba060
  DW_CFA_def_cfa: r31 ofs 64
  DW_CFA_advance_loc: 16 to 000ba070
  DW_CFA_def_cfa_offset: 0
  DW_CFA_restore: r15
  DW_CFA_restore: r19
  DW_CFA_restore: r20
  DW_CFA_restore: r30
  DW_CFA_restore: r29
  DW_CFA_nop

00009fc8 00000024 00009fcc FDE cie=00000000 pc=000ba090..000ba0dc
  DW_CFA_advance_loc: 4 to 000ba094
  DW_CFA_def_cfa_offset: 32
  DW_CFA_advance_loc: 8 to 000ba09c
  DW_CFA_def_cfa: r29 ofs 32
  DW_CFA_offset: r19 at cfa-16
  DW_CFA_offset: r30 at cfa-24
  DW_CFA_offset: r29 at cfa-32
  DW_CFA_advance_loc: 52 to 000ba0d0
  DW_CFA_def_cfa: r31 ofs 32
  DW_CFA_advance_loc: 8 to 000ba0d8
  DW_CFA_def_cfa_offset: 0
  DW_CFA_restore: r19
  DW_CFA_restore: r30
  DW_CFA_restore: r29

00009ff0 00000014 00009ff4 FDE cie=00000000 pc=000ba0dc..000ba0e4
  DW_CFA_nop
  DW_CFA_nop
  DW_CFA_nop
  DW_CFA_nop
  DW_CFA_nop
  DW_CFA_nop
  DW_CFA_nop

0000a008 00000024 0000a00c FDE cie=00000000 pc=000ba0e4..000ba144
  DW_CFA_advance_loc: 20 to 000ba0f8
  DW_CFA_def_cfa_offset: 48
  DW_CFA_advance_loc: 12 to 000ba104
  DW_CFA_def_cfa: r29 ofs 32
  DW_CFA_offset: r15 at cfa-16
  DW_CFA_offset: r30 at cfa-24
  DW_CFA_offset: r29 at cfa-32
  DW_CFA_advance_loc: 20 to 000ba118
  DW_CFA_def_cfa: r31 ofs 48
  DW_CFA_advance_loc: 12 to 000ba124
  DW_CFA_def_cfa_offset: 0
  DW_CFA_restore: r15
  DW_CFA_restore: r30
  DW_CFA_restore: r29

0000a030 0000002c 0000a034 FDE cie=00000000 pc=000ba144..000ba1e8
  DW_CFA_advance_loc: 20 to 000ba158
  DW_CFA_def_cfa_offset: 48
  DW_CFA_advance_loc: 12 to 000ba164
  DW_CFA_def_cfa: r29 ofs 32
  DW_CFA_offset: r15 at cfa-8
  DW_CFA_offset: r19 at cfa-16
  DW_CFA_offset: r30 at cfa-24
  DW_CFA_offset: r29 at cfa-32
  DW_CFA_advance_loc1: 88 to 000ba1bc
  DW_CFA_def_cfa: r31 ofs 48
  DW_CFA_advance_loc: 12 to 000ba1c8
  DW_CFA_def_cfa_offset: 0
  DW_CFA_restore: r15
  DW_CFA_restore: r19
  DW_CFA_restore: r30
  DW_CFA_restore: r29
  DW_CFA_nop
  DW_CFA_nop
  DW_CFA_nop
  DW_CFA_nop

0000a060 0000004c 0000a064 FDE cie=00000000 pc=000ba1e8..000ba6fc
  DW_CFA_advance_loc: 20 to 000ba1fc
  DW_CFA_def_cfa_offset: 112
  DW_CFA_advance_loc: 28 to 000ba218
  DW_CFA_def_cfa: r29 ofs 112
  DW_CFA_offset: r15 at cfa-8
  DW_CFA_offset: r19 at cfa-16
  DW_CFA_offset: r20 at cfa-24
  DW_CFA_offset: r21 at cfa-32
  DW_CFA_offset: r22 at cfa-40
  DW_CFA_offset: r23 at cfa-48
  DW_CFA_offset: r24 at cfa-56
  DW_CFA_offset: r25 at cfa-64
  DW_CFA_offset: r26 at cfa-72
  DW_CFA_offset: r27 at cfa-80
  DW_CFA_offset: r28 at cfa-96
  DW_CFA_offset: r30 at cfa-104
  DW_CFA_offset: r29 at cfa-112
  DW_CFA_remember_state
  DW_CFA_advance_loc2: 788 to 000ba52c
  DW_CFA_def_cfa: r31 ofs 112
  DW_CFA_advance_loc: 28 to 000ba548
  DW_CFA_def_cfa_offset: 0
  DW_CFA_restore: r15
  DW_CFA_restore: r19
  DW_CFA_restore: r20
  DW_CFA_restore: r21
  DW_CFA_restore: r22
  DW_CFA_restore: r23
  DW_CFA_restore: r24
  DW_CFA_restore: r25
  DW_CFA_restore: r26
  DW_CFA_restore: r27
  DW_CFA_restore: r28
  DW_CFA_restore: r30
  DW_CFA_restore: r29
  DW_CFA_advance_loc: 32 to 000ba568
  DW_CFA_restore_state
  DW_CFA_nop
  DW_CFA_nop
  DW_CFA_nop
  DW_CFA_nop
  DW_CFA_nop

0000a0b0 00000024 0000a0b4 FDE cie=00000000 pc=000ba6fc..000ba738
  DW_CFA_advance_loc: 4 to 000ba700
  DW_CFA_def_cfa_offset: 32
  DW_CFA_advance_loc: 8 to 000ba708
  DW_CFA_def_cfa: r29 ofs 32
  DW_CFA_offset: r19 at cfa-16
  DW_CFA_offset: r30 at cfa-24
  DW_CFA_offset: r29 at cfa-32
  DW_CFA_advance_loc: 36 to 000ba72c
  DW_CFA_def_cfa: r31 ofs 32
  DW_CFA_advance_loc: 8 to 000ba734
  DW_CFA_def_cfa_offset: 0
  DW_CFA_restore: r19
  DW_CFA_restore: r30
  DW_CFA_restore: r29

0000a0d8 00000024 0000a0dc FDE cie=00000000 pc=000ba738..000ba780
  DW_CFA_advance_loc: 4 to 000ba73c
  DW_CFA_def_cfa_offset: 32
  DW_CFA_advance_loc: 8 to 000ba744
  DW_CFA_def_cfa: r29 ofs 32
  DW_CFA_offset: r19 at cfa-16
  DW_CFA_offset: r30 at cfa-24
  DW_CFA_offset: r29 at cfa-32
  DW_CFA_advance_loc: 48 to 000ba774
  DW_CFA_def_cfa: r31 ofs 32
  DW_CFA_advance_loc: 8 to 000ba77c
  DW_CFA_def_cfa_offset: 0
  DW_CFA_restore: r19
  DW_CFA_restore: r30
  DW_CFA_restore: r29

0000a100 0000002c 0000a104 FDE cie=00000000 pc=000ba780..000ba868
  DW_CFA_advance_loc: 20 to 000ba794
  DW_CFA_def_cfa_offset: 64
  DW_CFA_advance_loc: 12 to 000ba7a0
  DW_CFA_def_cfa: r29 ofs 32
  DW_CFA_offset: r15 at cfa-8
  DW_CFA_offset: r19 at cfa-16
  DW_CFA_offset: r30 at cfa-24
  DW_CFA_offset: r29 at cfa-32
  DW_CFA_advance_loc1: 156 to 000ba83c
  DW_CFA_def_cfa: r31 ofs 64
  DW_CFA_advance_loc: 12 to 000ba848
  DW_CFA_def_cfa_offset: 0
  DW_CFA_restore: r15
  DW_CFA_restore: r19
  DW_CFA_restore: r30
  DW_CFA_restore: r29
  DW_CFA_nop
  DW_CFA_nop
  DW_CFA_nop
  DW_CFA_nop

0000a130 00000014 0000a134 FDE cie=00000000 pc=000ba868..000ba894
  DW_CFA_nop
  DW_CFA_nop
  DW_CFA_nop
  DW_CFA_nop
  DW_CFA_nop
  DW_CFA_nop
  DW_CFA_nop

0000a148 0000002c 0000a14c FDE cie=00000000 pc=000ba894..000ba93c
  DW_CFA_advance_loc: 4 to 000ba898
  DW_CFA_def_cfa_offset: 32
  DW_CFA_advance_loc: 8 to 000ba8a0
  DW_CFA_def_cfa: r29 ofs 32
  DW_CFA_offset: r19 at cfa-16
  DW_CFA_offset: r30 at cfa-24
  DW_CFA_offset: r29 at cfa-32
  DW_CFA_advance_loc1: 144 to 000ba930
  DW_CFA_def_cfa: r31 ofs 32
  DW_CFA_advance_loc: 8 to 000ba938
  DW_CFA_def_cfa_offset: 0
  DW_CFA_restore: r19
  DW_CFA_restore: r30
  DW_CFA_restore: r29
  DW_CFA_nop
  DW_CFA_nop
  DW_CFA_nop
  DW_CFA_nop
  DW_CFA_nop
  DW_CFA_nop
  DW_CFA_nop

0000a178 00000034 0000a17c FDE cie=00000000 pc=000ba93c..000baad0
  DW_CFA_advance_loc: 20 to 000ba950
  DW_CFA_def_cfa_offset: 336
  DW_CFA_advance_loc: 20 to 000ba964
  DW_CFA_def_cfa: r29 ofs 64
  DW_CFA_offset: r15 at cfa-8
  DW_CFA_offset: r19 at cfa-16
  DW_CFA_offset: r20 at cfa-24
  DW_CFA_offset: r21 at cfa-32
  DW_CFA_offset: r28 at cfa-48
  DW_CFA_offset: r30 at cfa-56
  DW_CFA_offset: r29 at cfa-64
  DW_CFA_advance_loc2: 312 to 000baa9c
  DW_CFA_def_cfa: r31 ofs 336
  DW_CFA_advance_loc: 20 to 000baab0
  DW_CFA_def_cfa_offset: 0
  DW_CFA_restore: r15
  DW_CFA_restore: r19
  DW_CFA_restore: r20
  DW_CFA_restore: r21
  DW_CFA_restore: r28
  DW_CFA_restore: r30
  DW_CFA_restore: r29

0000a1b0 0000003c 0000a1b4 FDE cie=00000000 pc=000baad0..000bac78
  DW_CFA_advance_loc: 20 to 000baae4
  DW_CFA_def_cfa_offset: 80
  DW_CFA_advance_loc: 20 to 000baaf8
  DW_CFA_def_cfa: r29 ofs 64
  DW_CFA_offset: r15 at cfa-8
  DW_CFA_offset: r19 at cfa-16
  DW_CFA_offset: r20 at cfa-24
  DW_CFA_offset: r21 at cfa-32
  DW_CFA_offset: r22 at cfa-40
  DW_CFA_offset: r23 at cfa-48
  DW_CFA_offset: r30 at cfa-56
  DW_CFA_offset: r29 at cfa-64
  DW_CFA_advance_loc2: 332 to 000bac44
  DW_CFA_def_cfa: r31 ofs 80
  DW_CFA_advance_loc: 20 to 000bac58
  DW_CFA_def_cfa_offset: 0
  DW_CFA_restore: r15
  DW_CFA_restore: r19
  DW_CFA_restore: r20
  DW_CFA_restore: r21
  DW_CFA_restore: r22
  DW_CFA_restore: r23
  DW_CFA_restore: r30
  DW_CFA_restore: r29
  DW_CFA_nop
  DW_CFA_nop
  DW_CFA_nop
  DW_CFA_nop
  DW_CFA_nop
  DW_CFA_nop
  DW_CFA_nop

0000a1f0 0000002c 0000a1f4 FDE cie=00000000 pc=000bac78..000bad18
  DW_CFA_advance_loc: 20 to 000bac8c
  DW_CFA_def_cfa_offset: 272
  DW_CFA_advance_loc: 12 to 000bac98
  DW_CFA_def_cfa: r29 ofs 32
  DW_CFA_offset: r15 at cfa-8
  DW_CFA_offset: r28 at cfa-16
  DW_CFA_offset: r30 at cfa-24
  DW_CFA_offset: r29 at cfa-32
  DW_CFA_advance_loc1: 84 to 000bacec
  DW_CFA_def_cfa: r31 ofs 272
  DW_CFA_advance_loc: 12 to 000bacf8
  DW_CFA_def_cfa_offset: 0
  DW_CFA_restore: r15
  DW_CFA_restore: r28
  DW_CFA_restore: r30
  DW_CFA_restore: r29
  DW_CFA_nop
  DW_CFA_nop

0000a220 00000044 0000a224 FDE cie=00000000 pc=000bad18..000bb2cc
  DW_CFA_advance_loc: 20 to 000bad2c
  DW_CFA_def_cfa_offset: 96
  DW_CFA_advance_loc: 24 to 000bad44
  DW_CFA_def_cfa: r29 ofs 96
  DW_CFA_offset: r15 at cfa-8
  DW_CFA_offset: r19 at cfa-16
  DW_CFA_offset: r20 at cfa-24
  DW_CFA_offset: r21 at cfa-32
  DW_CFA_offset: r22 at cfa-40
  DW_CFA_offset: r23 at cfa-48
  DW_CFA_offset: r24 at cfa-56
  DW_CFA_offset: r25 at cfa-64
  DW_CFA_offset: r26 at cfa-72
  DW_CFA_offset: r28 at cfa-80
  DW_CFA_offset: r30 at cfa-88
  DW_CFA_offset: r29 at cfa-96
  DW_CFA_advance_loc2: 1360 to 000bb294
  DW_CFA_def_cfa: r31 ofs 96
  DW_CFA_advance_loc: 24 to 000bb2ac
  DW_CFA_def_cfa_offset: 0
  DW_CFA_restore: r15
  DW_CFA_restore: r19
  DW_CFA_restore: r20
  DW_CFA_restore: r21
  DW_CFA_restore: r22
  DW_CFA_restore: r23
  DW_CFA_restore: r24
  DW_CFA_restore: r25
  DW_CFA_restore: r26
  DW_CFA_restore: r28
  DW_CFA_restore: r30
  DW_CFA_restore: r29
  DW_CFA_nop
  DW_CFA_nop
  DW_CFA_nop

0000a268 00000024 0000a26c FDE cie=00000000 pc=000bb2cc..000bb308
  DW_CFA_advance_loc: 4 to 000bb2d0
  DW_CFA_def_cfa_offset: 32
  DW_CFA_advance_loc: 8 to 000bb2d8
  DW_CFA_def_cfa: r29 ofs 32
  DW_CFA_offset: r19 at cfa-16
  DW_CFA_offset: r30 at cfa-24
  DW_CFA_offset: r29 at cfa-32
  DW_CFA_advance_loc: 36 to 000bb2fc
  DW_CFA_def_cfa: r31 ofs 32
  DW_CFA_advance_loc: 8 to 000bb304
  DW_CFA_def_cfa_offset: 0
  DW_CFA_restore: r19
  DW_CFA_restore: r30
  DW_CFA_restore: r29

0000a290 0000004c 0000a294 FDE cie=00000000 pc=000bb308..000bbc60
  DW_CFA_advance_loc: 20 to 000bb31c
  DW_CFA_def_cfa_offset: 112
  DW_CFA_advance_loc: 28 to 000bb338
  DW_CFA_def_cfa: r29 ofs 112
  DW_CFA_offset: r15 at cfa-8
  DW_CFA_offset: r19 at cfa-16
  DW_CFA_offset: r20 at cfa-24
  DW_CFA_offset: r21 at cfa-32
  DW_CFA_offset: r22 at cfa-40
  DW_CFA_offset: r23 at cfa-48
  DW_CFA_offset: r24 at cfa-56
  DW_CFA_offset: r25 at cfa-64
  DW_CFA_offset: r26 at cfa-72
  DW_CFA_offset: r27 at cfa-80
  DW_CFA_offset: r28 at cfa-96
  DW_CFA_offset: r30 at cfa-104
  DW_CFA_offset: r29 at cfa-112
  DW_CFA_remember_state
  DW_CFA_advance_loc2: 1736 to 000bba00
  DW_CFA_def_cfa: r31 ofs 112
  DW_CFA_advance_loc: 28 to 000bba1c
  DW_CFA_def_cfa_offset: 0
  DW_CFA_restore: r15
  DW_CFA_restore: r19
  DW_CFA_restore: r20
  DW_CFA_restore: r21
  DW_CFA_restore: r22
  DW_CFA_restore: r23
  DW_CFA_restore: r24
  DW_CFA_restore: r25
  DW_CFA_restore: r26
  DW_CFA_restore: r27
  DW_CFA_restore: r28
  DW_CFA_restore: r30
  DW_CFA_restore: r29
  DW_CFA_advance_loc: 32 to 000bba3c
  DW_CFA_restore_state
  DW_CFA_nop
  DW_CFA_nop
  DW_CFA_nop
  DW_CFA_nop
  DW_CFA_nop

0000a2e0 0000002c 0000a2e4 FDE cie=00000000 pc=000bbc60..000bbcbc
  DW_CFA_advance_loc: 4 to 000bbc64
  DW_CFA_def_cfa_offset: 32
  DW_CFA_advance_loc: 8 to 000bbc6c
  DW_CFA_def_cfa: r29 ofs 32
  DW_CFA_offset: r19 at cfa-8
  DW_CFA_offset: r20 at cfa-16
  DW_CFA_offset: r30 at cfa-24
  DW_CFA_offset: r29 at cfa-32
  DW_CFA_advance_loc1: 68 to 000bbcb0
  DW_CFA_def_cfa: r31 ofs 32
  DW_CFA_advance_loc: 8 to 000bbcb8
  DW_CFA_def_cfa_offset: 0
  DW_CFA_restore: r19
  DW_CFA_restore: r20
  DW_CFA_restore: r30
  DW_CFA_restore: r29
  DW_CFA_nop
  DW_CFA_nop
  DW_CFA_nop
  DW_CFA_nop

0000a310 00000024 0000a314 FDE cie=00000000 pc=000bbcbc..000bbcfc
  DW_CFA_advance_loc: 4 to 000bbcc0
  DW_CFA_def_cfa_offset: 32
